(dp1
S'84ea3a5d6aa2e335c6e60d4898c936e45cafc431'
p2
(dp3
S'insert'
p4
I11
sS'delete'
p5
I2
ssS'4f8f487e681786a0f3f9760cf4c1050c10c1ecab'
p6
(dp7
g4
I174
sg5
I4
ssS'9b77150a63817cd16cbe38ff7f7226f837afabe4'
p8
(dp9
g4
I171
sg5
I12
ssS'40e70cff5158287e434b135075ef785bee3f5dab'
p10
(dp11
g4
I4
sg5
I6
ssS'4dfdfc28f06683f80eb44281b07df415b8d035cf'
p12
(dp13
g4
I1
sg5
I1
ssS'b69c34c5009fbd9cee2b1c9c22cd6acdcd36e667'
p14
(dp15
g4
I0
sg5
I0
ssS'3e5a498a64911502aec56c2c8bfd5453d9efcb69'
p16
(dp17
g4
I0
sg5
I0
ssS'ac57ea3973afb02563935f6cee85ca3b91e81964'
p18
(dp19
g4
I153
sg5
I6
ssS'0e34e0bb35e8476166b47382fb7117c13598eebe'
p20
(dp21
g4
I1
sg5
I1
ssS'8fe34319aa5ef2f71d83e3b2d77cc0f7f6ce3bd0'
p22
(dp23
g4
I2
sg5
I1
ssS'431146ef28542a8b204614682feecbaca3718142'
p24
(dp25
g4
I21
sg5
I20
ssS'13050f57110dfaca5da203555e95e3fdd54a1bfb'
p26
(dp27
g4
I64
sg5
I13
ssS'fd3493f5d1ef04857b5ca6b2ff784a4b6a95eed9'
p28
(dp29
g4
I51
sg5
I1
ssS'9a3fcfb871a8c05707644b9cdbc1a4506ae289db'
p30
(dp31
g4
I3
sg5
I3
ssS'54cf2e7beaf0d4061df19ad11036eb0854e94ad5'
p32
(dp33
g4
I0
sg5
I0
ssS'7ede12f87b71868769398cec693870430b1cbc15'
p34
(dp35
g4
I2
sg5
I0
ssS'30668bee7e974a90743801894bf953014dc48bcb'
p36
(dp37
g4
I39
sg5
I0
ssS'20d5928adb583f08cc44ef428b8fd91100bb7ab8'
p38
(dp39
g4
I1
sg5
I1
ssS'9ee34c2e925426879ae2d35e4d038d67a4362e07'
p40
(dp41
g4
I361
sg5
I10
ssS'e853c466cf9cae1decceff8831b0ab2cfdd1106c'
p42
(dp43
g4
I0
sg5
I29
ssS'bc44c9ab853283c4ce936faa3eac1055f1a75649'
p44
(dp45
g4
I0
sg5
I0
ssS'a56534c6a31411e1d44f7cbd13fa909e6ede3755'
p46
(dp47
g4
I22
sg5
I1
ssS'4453a3baa997eeab08e78cd130bb02b62447eda8'
p48
(dp49
g4
I22
sg5
I0
ssS'352e5635b6ab5544cd8691828ea16222eb3a0c59'
p50
(dp51
g4
I0
sg5
I0
ssS'ebc1de3b9bf1f5fc731a5bae1c199c558e50b04c'
p52
(dp53
g4
I0
sg5
I0
ssS'5ded6c0ddcb02cf674275ce0be85841e93cfcaf2'
p54
(dp55
g4
I52
sg5
I0
ssS'8cb85cce8637251e01933c0877dd62bc7caa43af'
p56
(dp57
g4
I2
sg5
I2
ssS'5cc153f72cd0aa94e6425338fda8a4bdaa12edbb'
p58
(dp59
g4
I4
sg5
I2
ssS'32a59c91512c8440c5829a876baf80b3c28048a5'
p60
(dp61
g4
I81
sg5
I13
ssS'5a22a433866278d8156935cbb2ab8c66104dc3af'
p62
(dp63
g4
I0
sg5
I0
ssS'702559e9769c924d023b4771ad514389648d5393'
p64
(dp65
g4
I49
sg5
I8
ssS'0cf66d6e1238ac19fc79167633a73544757bfd7a'
p66
(dp67
g4
I217
sg5
I32
ssS'28fdacdbddaac3d9eee2e1b28e2317fa6a863ecc'
p68
(dp69
g4
I33
sg5
I5
ssS'018eedaf1990183a405d79af152875d851b4021e'
p70
(dp71
g4
I23
sg5
I0
ssS'bce88ad3b5e2be95e3623a633af1701c81649f92'
p72
(dp73
g4
I48
sg5
I57
ssS'd5b316f0f084c1b04fa8619d50536aed7ce06a7c'
p74
(dp75
g4
I32
sg5
I0
ssS'9144bc0075f93ec7cf4f45abbbdfd0008d6dd6f6'
p76
(dp77
g4
I5
sg5
I8
ssS'1143cd791a714e21c0959f33c61f5d737e120e89'
p78
(dp79
g4
I0
sg5
I0
ssS'3dc3b7d1cc32c0b7533f2c7cabe6092f90bf0605'
p80
(dp81
g4
I4
sg5
I4
ssS'bb2a66eea682343732bfd9ae939b7b77a9202420'
p82
(dp83
g4
I0
sg5
I0
ssS'f4a7a969fbfe56588ee0d6a88f7df2401c3018dc'
p84
(dp85
g4
I19
sg5
I19
ssS'667f24e3ab1aa458a2d80b46861b5f0c3e7ee096'
p86
(dp87
g4
I1
sg5
I1
ssS'ca38bd6a0efb652c0b335c6408c2f50cd80bc71c'
p88
(dp89
g4
I40
sg5
I19
ssS'6d3c8a3125c6b1700a508999bd3bb0aa6fe5114d'
p90
(dp91
g4
I0
sg5
I6
ssS'7eed8f576bb95f34882e2d7131d817b2db33beb4'
p92
(dp93
g4
I3
sg5
I3
ssS'bef019563463b8b7442f3520134b905251118127'
p94
(dp95
g4
I211
sg5
I7
ssS'a6e1c7692ee8b812395f7dee203504f4668a0ed2'
p96
(dp97
g4
I589
sg5
I789
ssS'cf228f8db5d82a9839ad026f0236e281d146fa0f'
p98
(dp99
g4
I0
sg5
I0
ssS'5545b78c021097b10fcbb239a5e70478847b27c4'
p100
(dp101
g4
I11
sg5
I32
ssS'31daff14d65e82c3a95cd8e17bd7b8ff62b7ae53'
p102
(dp103
g4
I67
sg5
I142
ssS'19141c1ae1564d00982e107e30ca35f8e1cfb5a5'
p104
(dp105
g4
I25
sg5
I29
ssS'dec407c3312aa85fae9893138ac7501dd0a923bf'
p106
(dp107
g4
I211
sg5
I3
ssS'86f4bb79b77c1085fa8754ce36287d662eeccb58'
p108
(dp109
g4
I4
sg5
I2
ssS'ec6f71aac817108b37818f42724fdca85cc7eb2d'
p110
(dp111
g4
I4
sg5
I0
ssS'11a08ac1aea2bdf983600d8187ec49bae6da4f36'
p112
(dp113
g4
I5
sg5
I0
ssS'9248b4b383a1cc51ee24b2e05d9e7a3b77bbe624'
p114
(dp115
g4
I2
sg5
I1
ssS'c4637edfc2a7d0a8d4d71fb3aa29418d33929f5a'
p116
(dp117
g4
I1
sg5
I1
ssS'e9f2ea34d7e4fd830f5554998360f7a2b6b98a09'
p118
(dp119
g4
I9
sg5
I9
ssS'201f7f83522c286431d20ecfc6e8e00066762b88'
p120
(dp121
g4
I36
sg5
I8
ssS'ff7cd850cd3d448a37316fee05d42d00453b65e9'
p122
(dp123
g4
I8
sg5
I2
ssS'215569030ddb87e597ca4555a350338f7b9f1360'
p124
(dp125
g4
I0
sg5
I0
ssS'8b6c9aed05e86edd3d390fbf39060a0e157474c7'
p126
(dp127
g4
I1
sg5
I1
ssS'39d864c655d7506b5f92ae182762d0c554e70c7f'
p128
(dp129
g4
I0
sg5
I1
ssS'5564a60d0d309efefd4836e1a8707c9e0383f06a'
p130
(dp131
g4
I56
sg5
I2
ssS'9c950fd60d109cf8e3d127e2f4e0e3e8c70b5319'
p132
(dp133
g4
I21
sg5
I3
ssS'4bbd8e38d072e13b561911f2cde837b0fb72bc53'
p134
(dp135
g4
I3
sg5
I1
ssS'011b0d587a345de3fba33b38f3bb1122b8e49562'
p136
(dp137
g4
I0
sg5
I0
ssS'a3fddd0097e38fe570910c1b8ec2fb71f8b78965'
p138
(dp139
g4
I29
sg5
I18
ssS'479ca5219d59b67d87d1a35edf7a521b78874de8'
p140
(dp141
g4
I0
sg5
I0
ssS'a50d78dc96e48ee4577effc4967aa97065d0ee2f'
p142
(dp143
g4
I406
sg5
I380
ssS'c4698961dbb115e3b2cb09d77e4e3635a135cb34'
p144
(dp145
g4
I226
sg5
I25
ssS'd034de5a92d1a75eefc20ab8cd66f5b2035f7597'
p146
(dp147
g4
I0
sg5
I0
ssS'2813778cad39acbe29373b30dbbf75f715bc17bd'
p148
(dp149
g4
I2
sg5
I0
ssS'4298a9c1e28bddf56f9e77fde0a25febdb0e5335'
p150
(dp151
g4
I1
sg5
I0
ssS'60a5090439c57785bb7c8e4af2aa20a74a6c9e0d'
p152
(dp153
g4
I80
sg5
I20
ssS'dc4fde2dd0d06436b4835e4e9bfb9f5a62d2e63b'
p154
(dp155
g4
I13
sg5
I7
ssS'd5baa8c4a40b09dfd677b04ebf561c38259c4cb8'
p156
(dp157
g4
I17
sg5
I13
ssS'2f1a5fce2112a715ecde0e72ac66ba1982d3ee15'
p158
(dp159
g4
I2
sg5
I2
ssS'6413fb447b98d94598dbc86898f650209bbcab75'
p160
(dp161
g4
I52
sg5
I5
ssS'2f57b4b1f61174bb61896fd7b21ab947f5d960fd'
p162
(dp163
g4
I54
sg5
I37
ssS'9cad997a5d70f8c3e4c73cf17f779d9792781569'
p164
(dp165
g4
I3
sg5
I1
ssS'22b4930eb3bcf5952c75d1ad2e1e85eb2eb1193f'
p166
(dp167
g4
I0
sg5
I0
ssS'bdb22e085b909f54b091e31a100ebe3ca8eaf4d5'
p168
(dp169
g4
I122
sg5
I105
ssS'8ee8b671c8186647f2a79c66bd7cb44d56515a0f'
p170
(dp171
g4
I11
sg5
I3
ssS'23f4013588c348eb2b9b640dbc741248e33e7d36'
p172
(dp173
g4
I24
sg5
I10
ssS'd3152c3b26efbdabe659d4d112eeab35df5269c8'
p174
(dp175
g4
I7
sg5
I15
ssS'266d1afe5681f18316d83370d14c6d191bcd60f2'
p176
(dp177
g4
I23
sg5
I0
ssS'e919cbb556715a1f7ff43d142be5cc0c22931892'
p178
(dp179
g4
I6
sg5
I17
ssS'1a7d100fc30582e94d7bfc56d5b662575c6c7bbe'
p180
(dp181
g4
I1
sg5
I1
ssS'59c5860f87225fecbfe2860c206042783df0871a'
p182
(dp183
g4
I1
sg5
I1
ssS'e4915d0174a73e85ee72343806a099c168ea90bb'
p184
(dp185
g4
I64
sg5
I18
ssS'62a64e58ad5b6f3554574c1e4c5c2d17c37c4867'
p186
(dp187
g4
I0
sg5
I0
ssS'e1c47332e7e24ae8ec1f98e3f1a602dc0ee8c1f9'
p188
(dp189
g4
I10
sg5
I3
ssS'515187105f682a322f219aef3ca00a6a7351fc98'
p190
(dp191
g4
I229
sg5
I186
ssS'0d63bf3ef2904b8baa415cf2429aba439cc3895b'
p192
(dp193
g4
I37
sg5
I6
ssS'4acffd6faae9bbac0d856d4bea369ae8789d878a'
p194
(dp195
g4
I0
sg5
I0
ssS'e472b86ccb0895fa8a2b71c98c44dca9a304e493'
p196
(dp197
g4
I25
sg5
I1
ssS'ffd6187d6db4c44b9da44e097d9b162abe60f7a9'
p198
(dp199
g4
I127
sg5
I62
ssS'a264fbad856e69c5bdb240d7a9561a61fddd669b'
p200
(dp201
g4
I1
sg5
I1
ssS'84e6433857775d8c1d6e3d4b144e6a339be2717e'
p202
(dp203
g4
I0
sg5
I0
ssS'c6349aad22bbb91531a7d2438c7724088fc69619'
p204
(dp205
g4
I1
sg5
I1
ssS'493c5fd887314cf4e7560d9a93493e0722b77596'
p206
(dp207
g4
I4
sg5
I3
ssS'dade0b7e44666b5c10df631f0196bf01d37b3667'
p208
(dp209
g4
I2
sg5
I0
ssS'cd8fee7638973a27fb254653ef34176c07e9b833'
p210
(dp211
g4
I15
sg5
I0
ssS'72182dc60132374a4e52fc09837ee078265d7f05'
p212
(dp213
g4
I6
sg5
I0
ssS'8e1ff4ea79f96350f64e826b0e0df7aeef31987a'
p214
(dp215
g4
I2
sg5
I1
ssS'15e1a37de47352e3aac5eb7a3d0af96e1aa025bb'
p216
(dp217
g4
I3
sg5
I0
ssS'78a7df0c05bdf0ec751e12a05870fd59c42ae6ad'
p218
(dp219
g4
I29
sg5
I6
ssS'e02f938581f91c0c7e72e584cadb16b4368ea75b'
p220
(dp221
g4
I85
sg5
I63
ssS'ea71ae18af892f9901e4b4374b9d5462c99c692b'
p222
(dp223
g4
I1
sg5
I0
ssS'8bfe9e419d4e4379ecae517cb99a14ccddee17b9'
p224
(dp225
g4
I0
sg5
I0
ssS'4741731fe55d98c29d15e8e06ec02de62ac9cb1e'
p226
(dp227
g4
I6
sg5
I0
ssS'510f99caca46e31e29b28579577abe0ab2b4bdda'
p228
(dp229
g4
I14
sg5
I0
ssS'fbe1ec5bfcf0546114deb22658fc9455513ef753'
p230
(dp231
g4
I0
sg5
I0
ssS'110eb06d2c9ef284700b3933a5852efd06d265ac'
p232
(dp233
g4
I5
sg5
I1
ssS'887310da2ed3d9d60c5eeba789211e259706824e'
p234
(dp235
g4
I19
sg5
I3
ssS'a97d98a4647bc0a88bde14e8835ed8a04d83a44a'
p236
(dp237
g4
I0
sg5
I0
ssS'632edb593e94523e494a1494498dcb2e76d5038c'
p238
(dp239
g4
I4
sg5
I0
ssS'aad284883c9d8d73230e2b3d9decaf7193e578f0'
p240
(dp241
g4
I2
sg5
I1
ssS'240182b3a1aef54e039130ece2ff922aee565d36'
p242
(dp243
g4
I0
sg5
I0
ssS'5361a15fff6b99710c1858ee28e2e75c4cfa65e8'
p244
(dp245
g4
I4
sg5
I14
ssS'52ab67af3c1d3d79b8b333915df580576f3b1c72'
p246
(dp247
g4
I1
sg5
I1
ssS'28b9d02d0878a5847a88eef7bf865d588b48cc48'
p248
(dp249
g4
I1
sg5
I2
ssS'0df92abc40738ac257e55153ce872996cb6c4c34'
p250
(dp251
g4
I1
sg5
I1
ssS'dabfff80575148dac3b4bd08ac56127762453e2a'
p252
(dp253
g4
I67
sg5
I0
ssS'63f2de99ec1a55d4914ca3b607fb40edea011b35'
p254
(dp255
g4
I87
sg5
I7
ssS'eae463a14c57c51cb21f8df4ca59041e95074507'
p256
(dp257
g4
I1
sg5
I1
ssS'caa202907ded6b591c81c52feb1f8d81fa6921d6'
p258
(dp259
g4
I88
sg5
I1
ssS'01e6f4b2fa141881a1017e12ab64bfc56159928b'
p260
(dp261
g4
I119
sg5
I78
ssS'87bf75903323d4fa6d06308d868990f4f368cb75'
p262
(dp263
g4
I62
sg5
I7
ssS'cc55126f5ac938611a04fe4c5e3f8d6611850d11'
p264
(dp265
g4
I9
sg5
I2
ssS'6ec8d55cd77627b1d196629039974ad33fc95484'
p266
(dp267
g4
I54
sg5
I10
ssS'1ab46a6c90ba791bec3de634420f1a6f737cf7aa'
p268
(dp269
g4
I0
sg5
I184
ssS'c4b69e1818db3f1bf8fba0a72718913733c310a1'
p270
(dp271
g4
I9
sg5
I0
ssS'53fdb15b3a8dd572e2b94f92dfa3c12291b739c5'
p272
(dp273
g4
I0
sg5
I0
ssS'49665b42990bd567f5c97d41d68edc7f4ec7d3cd'
p274
(dp275
g4
I91
sg5
I23
ssS'4fa6d3df84e6befb34ae5cef990cca266f5d385c'
p276
(dp277
g4
I1
sg5
I0
ssS'8dbbf993f0c5800a67be548247c3777167deb83e'
p278
(dp279
g4
I33
sg5
I15
ssS'026da51e01bc0dbf9a60e818c27e414bd253d19e'
p280
(dp281
g4
I23
sg5
I16
ssS'ac54630ac3393358ec62d55ba799302b5a8f9e61'
p282
(dp283
g4
I392
sg5
I326
ssS'4fc6ebc833527c75a606fd0cce5bd0fb1f859249'
p284
(dp285
g4
I19
sg5
I12
ssS'2716f9ad65ed2d653aea571de72df10637af94b7'
p286
(dp287
g4
I262
sg5
I1
ssS'b03c8018e023fabeea9956d19a0a5231d8711319'
p288
(dp289
g4
I2
sg5
I2
ssS'74aa0f8894323331847eed425d2f28ab4ab6dc3c'
p290
(dp291
g4
I0
sg5
I6
ssS'027c8e92db33039b1f0eaabd0057d8c596dc19d5'
p292
(dp293
g4
I0
sg5
I0
ssS'211cd6e07cde222d793ec852bf4f0f44ed6e8e07'
p294
(dp295
g4
I6
sg5
I0
ssS'4fc0a0e26667c560bc4ac4af3afa003df4f8fb68'
p296
(dp297
g4
I1
sg5
I1
ssS'439e6d205f25c52ce9d9c5dda21d17171924aca1'
p298
(dp299
g4
I2
sg5
I0
ssS'3e20fb075aaeae3d51e640ba8fa4043b6cf61b02'
p300
(dp301
g4
I3
sg5
I2
ssS'eae02c3a4477f8c9e2710fcd10c779ed5ae3ca5d'
p302
(dp303
g4
I46
sg5
I7
ssS'b19047f7fc6b8b04771823ecd3b49e8e770c2fd3'
p304
(dp305
g4
I0
sg5
I0
ssS'076fbef5657acdf063a8318fb2f1cf1ee1125ce7'
p306
(dp307
g4
I3
sg5
I1
ssS'bed058e53925f95154951039e1a0972ac5c660f8'
p308
(dp309
g4
I49
sg5
I7
ssS'42f697bc8e6f414f7843ead67f4e1ab7f06d0ee1'
p310
(dp311
g4
I2
sg5
I2
ssS'd828c4711a47e02b7e11596961bd9a1696da4016'
p312
(dp313
g4
I24
sg5
I11
ssS'79bc22c8b995c3dad3dbc4249dfe0687e206671c'
p314
(dp315
g4
I4
sg5
I4
ssS'0924b817cd33f9e731f994df1225e530c868240a'
p316
(dp317
g4
I0
sg5
I0
ssS'422aeddf6f2cec5064212ce6989fc576bda3da68'
p318
(dp319
g4
I108
sg5
I8
ssS'6ff0e4add12785a1dc7e79b00a7c7682a9f7a98e'
p320
(dp321
g4
I18
sg5
I18
ssS'9e3b26cffc55003f24a273efbfd63ff2eef5902a'
p322
(dp323
g4
I1
sg5
I1
ssS'88d6160dee01a6ab137032c195d36821c8f46e2d'
p324
(dp325
g4
I0
sg5
I0
ssS'5ee930fdc1d0d574cd47a851d402a1392981b2a9'
p326
(dp327
g4
I160
sg5
I0
ssS'5ef37632f2aea9406f98d5b44817044c2c29e8eb'
p328
(dp329
g4
I3
sg5
I3
ssS'914f3eb2fe0a0bc2044517e96edc2bbfa1438a85'
p330
(dp331
g4
I37
sg5
I38
ssS'c099be5c5408795ed68ae47577f4a22b62f62d2d'
p332
(dp333
g4
I11
sg5
I4
ssS'ad8b9119acd54004336eafbaf5e89c824770f232'
p334
(dp335
g4
I12
sg5
I1
ssS'242c21a245034c9e18098320583ddc8c2d1ad380'
p336
(dp337
g4
I47
sg5
I6
ssS'c81f3f4629bad04f3b522857bd447264d43e5ca8'
p338
(dp339
g4
I2
sg5
I2
ssS'b6e5021cb63d3fb3844d13e779a3c140f5bcc1d9'
p340
(dp341
g4
I124
sg5
I2
ssS'afd4d6c7428b3ce6f6973b0e506ae9b590982082'
p342
(dp343
g4
I6
sg5
I1
ssS'c9e08b78afdd987f79fde789363bb54fa75c2e5a'
p344
(dp345
g4
I28
sg5
I14
ssS'2869be803e7dd35efc1ab0b05f4eec72f1f74630'
p346
(dp347
g4
I4
sg5
I4
ssS'12e780981a99f0653ef02c4d5e4925d0a59c090c'
p348
(dp349
g4
I6
sg5
I6
ssS'beafdb3fec8466d766d17753ce0fcb35739ccc00'
p350
(dp351
g4
I7
sg5
I0
ssS'12109c655b8a02d3bec4e3b32dcb6407287a0f6d'
p352
(dp353
g4
I0
sg5
I0
ssS'05090db9f92c558e353213ddfabeb81666ff7328'
p354
(dp355
g4
I50
sg5
I6
ssS'49b3e85c9e4a78ff919a7a73a6e1e127d34df283'
p356
(dp357
g4
I0
sg5
I0
ssS'ba6ea7737cc7886d88b9bc3d47c38ddb1b76931d'
p358
(dp359
g4
I149
sg5
I8
ssS'a5a82627c2ecff67f44f872c49a6bd36e3453dd9'
p360
(dp361
g4
I49
sg5
I10
ssS'b9c9a7c3925c9b93418a64a6787563263833eef7'
p362
(dp363
g4
I1
sg5
I1
ssS'bc275f4011444ae97ea35743097fe9296b4f6d5d'
p364
(dp365
g4
I112
sg5
I123
ssS'2e4edb55e4905c4f1d8ca30511ca5f613ff7990a'
p366
(dp367
g4
I32
sg5
I3
ssS'19ac66b4a491714163411d5cf9d691c6298022f4'
p368
(dp369
g4
I712
sg5
I297
ssS'b382f177b6c07b43c102f70ef9d625ca5db623e7'
p370
(dp371
g4
I0
sg5
I0
ssS'c46c606e67f53d167e006608074668a1c30a6aa6'
p372
(dp373
g4
I15
sg5
I0
ssS'4570626ce60d1410827a063a970c66e69f98ba03'
p374
(dp375
g4
I0
sg5
I0
ssS'3d97b83019b122288d7d2f561993ca6f907c6a47'
p376
(dp377
g4
I0
sg5
I0
ssS'5b93dea220d6d6acc01f789e41b321bfec8f8e44'
p378
(dp379
g4
I508
sg5
I3
ssS'bc98cad275fbdf3d98f2c634fdd493dab9187452'
p380
(dp381
g4
I0
sg5
I0
ssS'5be3efd35afda1fed7ed922e4ee17c7535676343'
p382
(dp383
g4
I1
sg5
I2
ssS'67d63d553473c2c736396e7ece9c565cfc0d1fe6'
p384
(dp385
g4
I16
sg5
I1
ssS'5b03da82cf081069534df0b00eaf19b0f57dc80f'
p386
(dp387
g4
I21
sg5
I6
ssS'2dad7407b60513512102bc144273f0ab12dd5417'
p388
(dp389
g4
I151
sg5
I5
ssS'10756dfa46d46f796a4cb5b03d2b3ad0356903a6'
p390
(dp391
g4
I1
sg5
I7
ssS'8726c2e41d3d93dee95a835c00fa77eacf5b95b0'
p392
(dp393
g4
I2
sg5
I1
ssS'82c96abd61f299c41e0fba28a6fb47d8f3a27684'
p394
(dp395
g4
I4
sg5
I0
ssS'2f8abd55ef8ea3d941c42acb901080d5761f0ef9'
p396
(dp397
g4
I107
sg5
I1
ssS'ea537f0d2cc16fd39929c0682352d21366f24130'
p398
(dp399
g4
I3
sg5
I3
ssS'1845c29b33a9fb0c40e754a1b6cc243c9adaa6a9'
p400
(dp401
g4
I7
sg5
I2
ssS'db421afae9e521e197af4633fa6025e6ef55d729'
p402
(dp403
g4
I5
sg5
I5
ssS'5cd18e1dd9804e5b60b45154f65fe687aa3f800a'
p404
(dp405
g4
I43
sg5
I9
ssS'25d35eaf46c6fa96cce1c675a80615b6068e2fa4'
p406
(dp407
g4
I3
sg5
I1
ssS'46c262cd0f62e64c2057e7aa9441c41331cccdce'
p408
(dp409
g4
I92
sg5
I2
ssS'0c6491260550320b0a36d892355c7d7a6a3db467'
p410
(dp411
g4
I4
sg5
I3
ssS'2c9a9233bb03e6b98f15d2bd5f93d99f73a388e1'
p412
(dp413
g4
I18
sg5
I12
ssS'42ba12d754cefcf643f2a53c936a005429a6b9aa'
p414
(dp415
g4
I60
sg5
I24
ssS'3ab6f1543e5fc9c27a93b32cf1ffb7848904f764'
p416
(dp417
g4
I14
sg5
I17
ssS'11a5d760ee23f3b5dc1ac75431d35352a777bac7'
p418
(dp419
g4
I166
sg5
I21
ssS'c2b6ac9e90414e1abcb392a9f857ef5670286d6f'
p420
(dp421
g4
I45
sg5
I0
ssS'db5154031bec00b25e0771d4e17c5e57fbdd1d03'
p422
(dp423
g4
I0
sg5
I0
ssS'fb007c23db01e48d1a5ab9d8cca02f221e0ae523'
p424
(dp425
g4
I30
sg5
I6
ssS'227573c2235025347c7cedfe06116f17b72ca315'
p426
(dp427
g4
I4
sg5
I1
ssS'059d24c27f0c668122743e72274d2a073156051d'
p428
(dp429
g4
I10
sg5
I1
ssS'c7cdd7944e679a712eb27f5d79fa531502b55603'
p430
(dp431
g4
I82
sg5
I5
ssS'e412690ec4fba03de77e06f41f22e6639ec404c9'
p432
(dp433
g4
I1
sg5
I3
ssS'd7f8d01cbf6aa003caeedcac69c511edc58153a9'
p434
(dp435
g4
I37
sg5
I13
ssS'0718314e465f50c51f863cfcbae5c3925e0319c3'
p436
(dp437
g4
I1
sg5
I0
ssS'daa1783f819084aac3885105252432c073ba3115'
p438
(dp439
g4
I0
sg5
I0
ssS'e9548da46382394b2dd858cca69ff4d977211534'
p440
(dp441
g4
I17
sg5
I17
ssS'30c3d6ea669bf1c45b7efb46d54b851ef111ed42'
p442
(dp443
g4
I217
sg5
I28
ssS'4197fdf18265fbdcb83399626ef08dd0a247ee9b'
p444
(dp445
g4
I203
sg5
I11
ssS'dd92e7612308ee68a6b4882ecd2bc979fe68da98'
p446
(dp447
g4
I0
sg5
I0
ssS'f940ea13bc6287024a9851d2401360b2dc55dc7e'
p448
(dp449
g4
I200
sg5
I0
ssS'4b351d1b912125ff8900a88d26076133b5d64dbe'
p450
(dp451
g4
I5
sg5
I0
ssS'e5ba5c4864b99faeacf2b1c25cd7f4085884b1b1'
p452
(dp453
g4
I36
sg5
I11
ssS'5a46a4f47bf52902d9c984c32216a64688ca52e1'
p454
(dp455
g4
I163
sg5
I14
ssS'd3734fa85860661c78223699ee15ffade52b416c'
p456
(dp457
g4
I21
sg5
I2
ssS'01b35d19074bf8e591717e98755b137bfb0afdbf'
p458
(dp459
g4
I270
sg5
I97
ssS'835dc612cfd3fc8a7446a00e7fa2e2498dae8c12'
p460
(dp461
g4
I0
sg5
I0
ssS'f9aa8b18d4f87c4871697622f775fe1fa98e9923'
p462
(dp463
g4
I43
sg5
I5
ssS'7aa233c2040e32a6e8e99bbb78dd7993089a2ec6'
p464
(dp465
g4
I2
sg5
I1
ssS'6932fc21ae5fd9a5ef8278561c5ffa027459f566'
p466
(dp467
g4
I41
sg5
I40
ssS'09a60e1970bf854f5dc1d9a346e396d522f25111'
p468
(dp469
g4
I3
sg5
I1
ssS'6941ceef391ae523a374f9232d048364d0225d03'
p470
(dp471
g4
I1
sg5
I1
ssS'1544286fb62ce1e63e8e378781dab52adb2ccb92'
p472
(dp473
g4
I5
sg5
I2
ssS'594dfc22fbaf548bee59a14360faed454e042996'
p474
(dp475
g4
I25
sg5
I9
ssS'd595b250ae34abcbbb54135b4d522befcae6e8a2'
p476
(dp477
g4
I80
sg5
I4
ssS'4144e0f9fdd2cfbe3c5a01ae745d88ccfe8d998c'
p478
(dp479
g4
I4
sg5
I1
ssS'761f0c1c4dabd8dd66000b9acf4775c659b3bb4a'
p480
(dp481
g4
I54
sg5
I2
ssS'c06550882b74af9a3157d7f4d40d439353f965c4'
p482
(dp483
g4
I7
sg5
I3
ssS'516cec07622d0611f9db5f94e60586cac627e5b8'
p484
(dp485
g4
I0
sg5
I0
ssS'c4c987412ec9d9370a722c4d92d10273904bb862'
p486
(dp487
g4
I0
sg5
I0
ssS'659bb06e733c14d8fa56c7ee54890a761da7f0f9'
p488
(dp489
g4
I7
sg5
I7
ssS'de7389a05624deef17b16320d34a580141bddbab'
p490
(dp491
g4
I0
sg5
I0
ssS'7d7642542a3caf0c95c2b7c1b4a2aeaa768674d7'
p492
(dp493
g4
I4
sg5
I4
ssS'1218ee0baea6391626d67e337c6dc194fea6ac79'
p494
(dp495
g4
I64
sg5
I2
ssS'2653a2d53c3e67b185ffff8ec8c1238ba4426802'
p496
(dp497
g4
I0
sg5
I0
ssS'a5b75d41f665bcf952d84630f53508ed879574a0'
p498
(dp499
g4
I0
sg5
I0
ssS'35480b355445923460bbb4bc0731d84bd51e947c'
p500
(dp501
g4
I0
sg5
I0
ssS'e582de11d0a037e9b4d09cb5898fd10db1725179'
p502
(dp503
g4
I3
sg5
I6
ssS'6295e4b60911ade9b07858e0ff5a0e4899000994'
p504
(dp505
g4
I62
sg5
I92
ssS'9e4c3e591d60fc9a4e20bcb752b77b8596305644'
p506
(dp507
g4
I14
sg5
I2
ssS'bcdb99eb182ce7269baae0bb3a9c9bca099f9411'
p508
(dp509
g4
I66
sg5
I77
ssS'4e04a8cf702c2ecf4b86dc5db106a93a383a4e30'
p510
(dp511
g4
I0
sg5
I0
ssS'6c1611b7c3fb50aaaa403a3c7a8163d1dc59ecca'
p512
(dp513
g4
I86
sg5
I37
ssS'15ea5b20c8b5859c27ae57499ea5946805d7867a'
p514
(dp515
g4
I30
sg5
I0
ssS'09ed3026ebcdca4759d39574b9cf3b52c8b3dd07'
p516
(dp517
g4
I1
sg5
I0
ssS'8f64fef90fb0c51d95264f4693ad16f3c463a1b3'
p518
(dp519
g4
I174
sg5
I19
ssS'584127f4cf8fd08e0da8b7424c455857b906bf43'
p520
(dp521
g4
I12
sg5
I7
ssS'6dfa4ea719620c08274f7cfd3e6d9c61f870e9ae'
p522
(dp523
g4
I4
sg5
I2
ssS'7fe2e3d4634cec360d2df52cce1530c711282811'
p524
(dp525
g4
I3
sg5
I1
ssS'8b0efa2640e904546745276b936d2ee4b39e316e'
p526
(dp527
g4
I0
sg5
I0
ssS'e85853cee174c773a4ae394e2d09ecd77a290a6f'
p528
(dp529
g4
I8
sg5
I6
ssS'89bcce55414cfdbc89809a819073ec3b61164c04'
p530
(dp531
g4
I199
sg5
I33
ssS'9c8200a3d7fd2defae28a2cdd511bc77e013406c'
p532
(dp533
g4
I2
sg5
I4
ssS'413dc393e44be74882d4e819cf0df8d28f1a8ff2'
p534
(dp535
g4
I25
sg5
I7
ssS'4a394169f7f0d172c22d0a7d4a40293bc4f56bfb'
p536
(dp537
g4
I4
sg5
I2
ssS'd4d387c610908f94e8fb8c12f2476311fa140103'
p538
(dp539
g4
I72
sg5
I12
ssS'b94ce6ce9a0a0cfcf8fb3a2ad10af3f9c8e65ef0'
p540
(dp541
g4
I0
sg5
I0
ssS'8494593ccc77ee2f7e25adba0e76162e39220124'
p542
(dp543
g4
I233
sg5
I2
ssS'20f95dfd7f5b656404745d1b22693d90f42ee845'
p544
(dp545
g4
I14
sg5
I1
ssS'140a09c8be76ae12d09471fdef8b65e504ad04e0'
p546
(dp547
g4
I12
sg5
I4
ssS'6fbbfb168aceaca87a5fe7aa5e20fef6025b32c6'
p548
(dp549
g4
I0
sg5
I0
ssS'ca1d220d6b48123ead78ae8ca28d52f267e950d0'
p550
(dp551
g4
I2
sg5
I7
ssS'1ab1dfc0afb1c7a6ef805554b920db695f738dbd'
p552
(dp553
g4
I18
sg5
I0
ssS'3194f0e9705718a416a285f475f1e493b52afd16'
p554
(dp555
g4
I89
sg5
I4
ssS'f6a152cb4bc326b636545d9b796fbc5a1aac3389'
p556
(dp557
g4
I557
sg5
I1
ssS'44cc985da92fa36fdb6f397883a9134b689d937e'
p558
(dp559
g4
I32
sg5
I15
ssS'44b568dd2aa40bed63db51157e9a3cfd6a2d5cea'
p560
(dp561
g4
I0
sg5
I0
ssS'fd7dbc096596a7418f2f0a2d1fe8630403481d7a'
p562
(dp563
g4
I3
sg5
I3
ssS'74cfe7b4afb1274b1433d0c0efbab1418728c2a0'
p564
(dp565
g4
I0
sg5
I0
ssS'5d07b32409bd1a12f9a39c198d7305ad679def32'
p566
(dp567
g4
I27
sg5
I0
ssS'b529adf3d9fb385178e11f962e016b85c0be47fc'
p568
(dp569
g4
I16
sg5
I3
ssS'ce23c6c65b664a97f5a1b8dc3878a6dbaecf145e'
p570
(dp571
g4
I110
sg5
I0
ssS'74603a7d554de6f9e08fbdd4c64caeaba66a70eb'
p572
(dp573
g4
I26
sg5
I0
ssS'cd5f260dee7fec8f07d1026ec768d6773af7c803'
p574
(dp575
g4
I7
sg5
I1
ssS'12eb7c8aac9692c445fc86486e0868b72bd1c152'
p576
(dp577
g4
I8
sg5
I1
ssS'ec321089f3e418ad5780c2c6082b84010de5a85a'
p578
(dp579
g4
I2
sg5
I1
ssS'c948f656af5d4771f093ad9c4922606dabd4c0ca'
p580
(dp581
g4
I27
sg5
I10
ssS'7ce3b3a1d37c553b3ac1b74d9fdd03f59e43db3f'
p582
(dp583
g4
I71
sg5
I59
ssS'1d463b573a8858a4c4bfed16157df6b01aed86df'
p584
(dp585
g4
I0
sg5
I0
ssS'fad5f165d96aa76e2329e29c6a58fbeef6143783'
p586
(dp587
g4
I22
sg5
I13
ssS'476d708f89b196a0f445255b01cbb2fd941efa45'
p588
(dp589
g4
I58
sg5
I1
ssS'2f8680799c8de7d72e94e2c3e4d91bcd05c5a181'
p590
(dp591
g4
I33
sg5
I86
ssS'97cccae915fe65723a44cf706b628ed697ceeb73'
p592
(dp593
g4
I2
sg5
I1
ssS'786d83766383a0b73e272a2d4c38f44be7d3f61d'
p594
(dp595
g4
I11
sg5
I14
ssS'5653c6782063736442aa945ea3896fd97101ea2c'
p596
(dp597
g4
I2
sg5
I2
ssS'a7a4d6c5167a4ee749417b48f41e898f3618d57e'
p598
(dp599
g4
I52
sg5
I21
ssS'1490830bac003e4ff0f11fd00956d3d956dba982'
p600
(dp601
g4
I8
sg5
I1
ssS'0b24337f776f778078704601eb30a6c9b525c71f'
p602
(dp603
g4
I7
sg5
I0
ssS'2ae6e6f0cabaa5947596b31fa1d09ce11561ec95'
p604
(dp605
g4
I0
sg5
I9
ssS'bec3de20405ec6529197c614001b545d5b29ea8a'
p606
(dp607
g4
I4
sg5
I0
ssS'0e6ecf256a54430be5b8038ff10bdc0585d5b543'
p608
(dp609
g4
I17
sg5
I3
ssS'66787a9cb875e77a5a0d6f119e0d5819f97ccced'
p610
(dp611
g4
I8
sg5
I23
ssS'd76018f27820fd1f343aeebf57d5eaccbbd82ee9'
p612
(dp613
g4
I31
sg5
I0
ssS'467879f9d358c8d0aff9e5d78c71ab3187ac30f0'
p614
(dp615
g4
I5
sg5
I5
ssS'31739239706d3a57118b1f2a322ddd64783b482e'
p616
(dp617
g4
I1
sg5
I1
ssS'951b5dc8ecd62b566a10beaf9628b48c5496eedc'
p618
(dp619
g4
I23
sg5
I0
ssS'c43ad05e4d21d48f7ee6559c2af97e03f4e4ac89'
p620
(dp621
g4
I72
sg5
I22
ssS'44f782f039e38f0f89de41ddd71182d893bc1b21'
p622
(dp623
g4
I89
sg5
I9
ssS'6e6eac5bc311851162ae69ffd5d05fa274010cce'
p624
(dp625
g4
I5
sg5
I1
ssS'161a3ad10e1d392a6d755dea267fc12031dce11b'
p626
(dp627
g4
I5
sg5
I0
ssS'57aac93087a4a7076525390cbecf5caf9c286eb0'
p628
(dp629
g4
I11
sg5
I8
ssS'2159078703e488fdbe9cb998229ea2af37b2383a'
p630
(dp631
g4
I2
sg5
I2
ssS'bf6acf79aea708018783ecc26407fa8aee74eea7'
p632
(dp633
g4
I24
sg5
I29
ssS'c3f673bf952ce4a63ff368c0855a6493cfba156c'
p634
(dp635
g4
I42
sg5
I42
ssS'78473c8f97d6646c3ab62433044bf6e1ac00442d'
p636
(dp637
g4
I130
sg5
I6
ssS'bf4b40239b676ac01b0b3d4d952b3527da9b1721'
p638
(dp639
g4
I2
sg5
I2
ssS'31f64206eb97ea34fc51d6609a09a51431ba020b'
p640
(dp641
g4
I4
sg5
I1
ssS'4e63fd363d581108c8de1165d1188ff1235b8106'
p642
(dp643
g4
I0
sg5
I0
ssS'ca45f6f83c914ef5a40d8a24dd22e3c90e8ed12e'
p644
(dp645
g4
I1
sg5
I31
ssS'845b8c352bf7c1c0b88e808677decd7d0106499a'
p646
(dp647
g4
I155
sg5
I21
ssS'930f9fae17055a09db0339a04fad10987b91de69'
p648
(dp649
g4
I14
sg5
I6
ssS'c77bfb0e0b3bd3e2c0a0bf5c104b484fd1e2b828'
p650
(dp651
g4
I113
sg5
I15
ssS'f36c26bcf5378a33b645f56f7861704c0f8d0603'
p652
(dp653
g4
I11
sg5
I4
ssS'601614af29cf8cd548fe5b1d4655a4afe2c4123b'
p654
(dp655
g4
I65
sg5
I15
ssS'14170c2dfface26ddcbc18ac352e92ee160bc0d2'
p656
(dp657
g4
I15
sg5
I11
ssS'2b8f0e07b6c101d113e17f1b900239e6c33404bd'
p658
(dp659
g4
I22
sg5
I22
ssS'e11ff8b25155fe49ad2aab89a257118d628a9ecd'
p660
(dp661
g4
I67
sg5
I1
ssS'866f38cc7c3c819a4632a7f7d7499c6a80a6905c'
p662
(dp663
g4
I8
sg5
I1
ssS'fe8679ba5d662b8d28ff1110d3f4c88f0bd15058'
p664
(dp665
g4
I282
sg5
I11
ssS'4c0e9405a937b916727423d81b96a595b9916cb1'
p666
(dp667
g4
I5
sg5
I4
ssS'e3226a1c23f693bd71f127dce4278d4697933351'
p668
(dp669
g4
I1
sg5
I1
ssS'e4f6038ba14284ecf5d84e567dee35ca346ec3a4'
p670
(dp671
g4
I79
sg5
I0
ssS'f504886930b938576779795916ce7c88b302d195'
p672
(dp673
g4
I37
sg5
I1
ssS'b0268e9a269a199ebf573c33b87660e8e25a8647'
p674
(dp675
g4
I9
sg5
I75
ssS'f76fc022a49090126162dcb9a5822cd20a14d434'
p676
(dp677
g4
I35
sg5
I7
ssS'c2cf8eb9faae2eda527c414fdc7e2986954755c4'
p678
(dp679
g4
I16
sg5
I2
ssS'b0efb85c4901a78ccbdd6bdeac9f9d72bccbd56b'
p680
(dp681
g4
I26
sg5
I22
ssS'6488fad416658bd5a92d43e634c009a387dccef1'
p682
(dp683
g4
I1
sg5
I5
ssS'c0717f07dbc98a22fc3c0ec7e2189e92f96a2e16'
p684
(dp685
g4
I31
sg5
I0
ssS'f2a89593160c7f48137ffa0ee61684bc38c68e41'
p686
(dp687
g4
I6
sg5
I4
ssS'7bf028eaafaa29f2bd9c25dd1e3f9c26ecf1b463'
p688
(dp689
g4
I33
sg5
I32
ssS'83ece4fe3aa83d0adf671fc6cc9115649075b300'
p690
(dp691
g4
I1
sg5
I1
ssS'6cda3d262eea6e9d064344d16776f7500e9e58a9'
p692
(dp693
g4
I42
sg5
I0
ssS'c02b3a0dfe57ae419a0a0fcc701cc58de778825d'
p694
(dp695
g4
I160
sg5
I17
ssS'b26ede4df4d16e272b7279c0cf2ba017efe95f8a'
p696
(dp697
g4
I6
sg5
I2
ssS'd4f248d420d60b454d1cfaac0ac4945900857185'
p698
(dp699
g4
I33
sg5
I0
ssS'32699f338a83eb33064473412ea5c1be83bd1930'
p700
(dp701
g4
I10
sg5
I7
ssS'e8e0b1fb306aafa280f42441b75609f38588370e'
p702
(dp703
g4
I9
sg5
I6
ssS'ce73c59056f318add28b8ee6409add4d44a29147'
p704
(dp705
g4
I23
sg5
I1
ssS'6d4560cffe87cdd2fc5d0515d99a9009c4f70870'
p706
(dp707
g4
I2
sg5
I2
ssS'e48d57161ca443a608efd4406c13d2bd56c7db38'
p708
(dp709
g4
I5555
sg5
I5281
ssS'9184125e5e80a3509780db317c182c1125a553d1'
p710
(dp711
g4
I0
sg5
I0
ssS'7f34a623a2d115daa04584a2200e28c872c6dc7e'
p712
(dp713
g4
I38
sg5
I21
ssS'3bceb2ad5b43d9920cce84373e0a6d6b3a2fab90'
p714
(dp715
g4
I104
sg5
I98
ssS'bae49c5bfbb1635cc7b56fe6e66a3a46392a7d11'
p716
(dp717
g4
I125
sg5
I1
ssS'51065c8529dfc3c955ffeece00c3cb3ac61da46f'
p718
(dp719
g4
I14
sg5
I1
ssS'f30553931c916c46b295184e8e31906d31e4774b'
p720
(dp721
g4
I51
sg5
I0
ssS'7c708297162c9608ac082ff491e9f6c62b494615'
p722
(dp723
g4
I79
sg5
I26
ssS'ae681b7f86c71063cc5aaa2eba38f216fc3ac21b'
p724
(dp725
g4
I1
sg5
I1
ssS'83446628d90518f14afd48bf435751db4283a8f7'
p726
(dp727
g4
I1
sg5
I0
ssS'42323a80123a803f5eba58f46fb63c5a82a3f51d'
p728
(dp729
g4
I7
sg5
I1
ssS'e2cc37b9fea59f75a9b90c5bef1e33514f57f5f3'
p730
(dp731
g4
I10
sg5
I10
ssS'ea7a556173782b3912932159cac75efcd0020930'
p732
(dp733
g4
I0
sg5
I0
ssS'e470f1f511d6c6f79ffd6617f45d48e762659486'
p734
(dp735
g4
I3
sg5
I3
ssS'73610ace597e73d04d7ad41eb8167a3757bfdb1a'
p736
(dp737
g4
I508
sg5
I4
ssS'dc5312db1b4840d96704773b894f9efff8ff0ac2'
p738
(dp739
g4
I65
sg5
I77
ssS'492bb8be6e3ae22c39ff0d21b63c139bb737c770'
p740
(dp741
g4
I1
sg5
I1
ssS'505e9af85b18f4dd75c2d0799055fd6737c3af03'
p742
(dp743
g4
I49
sg5
I54
ssS'14bf7e04a7b9e93f8935aa23423a61b96a5f45fd'
p744
(dp745
g4
I0
sg5
I0
ssS'1b34c0116d23bbf2699601eeb4674868f48aea7e'
p746
(dp747
g4
I40
sg5
I24
ssS'f1f598072ba4eaff46feb55b28cf8f72d7b72736'
p748
(dp749
g4
I1
sg5
I1
ssS'99c57f8f8dc483576b0ef024f28467b85fe188a3'
p750
(dp751
g4
I1
sg5
I1
ssS'6feff239d07c2db4f3a3e0b7ea2c676c28a7abc8'
p752
(dp753
g4
I0
sg5
I282
ssS'd24072d2f1bf0fc6e49e5357ae59ca4a778bf3aa'
p754
(dp755
g4
I7
sg5
I4
ssS'aa7fe0f954f891d7c6d9cf27c7db2b2d186b9a0e'
p756
(dp757
g4
I1
sg5
I1
ssS'67510a2af82d11958bfeeabf85b8d2516a17762c'
p758
(dp759
g4
I6
sg5
I7
ssS'f6c43e214b615712805ae9db7c241be9f4b93a36'
p760
(dp761
g4
I8
sg5
I6
ssS'1bf9c0fe5f355258172f3090f57c7d8c5500734b'
p762
(dp763
g4
I1
sg5
I1
ssS'a64bfc5dfbc0f030dae2a209cead7c8ce0d0ea16'
p764
(dp765
g4
I6
sg5
I0
ssS'387c1d82384e30dd1945d6039d5276c54714fa2c'
p766
(dp767
g4
I0
sg5
I3
ssS'04201f6c38afab5393eb17c20314c3f3cd010f6d'
p768
(dp769
g4
I2
sg5
I2
ssS'2462ebea96dd0bcfcdb73ddf1c3339856c8a8f2b'
p770
(dp771
g4
I10
sg5
I10
ssS'ec60400dc00632d7c8ff779ccf6ec2e346bc7bcb'
p772
(dp773
g4
I215
sg5
I3
ssS'd0603a702ee9d174805b67e223e281b5a6ff177e'
p774
(dp775
g4
I4
sg5
I4
ssS'90701fef8819b5cfc7240ba3203ba2493b56cee2'
p776
(dp777
g4
I0
sg5
I0
ssS'8abf61ccca7f289e8b9e22672de11ea917f80e97'
p778
(dp779
g4
I94
sg5
I48
ssS'64fc5c9e574e5851d9a57245d82f9b6d85c60d9e'
p780
(dp781
g4
I4
sg5
I4
ssS'e9c18f7e12e01fd2a2f58fa412b563d9f802b877'
p782
(dp783
g4
I1
sg5
I1
ssS'e987d47d5ddd2d6732567aa9fadf9955ed9994d9'
p784
(dp785
g4
I3
sg5
I5
ssS'06c38419a2c432e1500638eac35ca1fe72f19b31'
p786
(dp787
g4
I0
sg5
I0
ssS'25adff8c8a325bac6dd946f61538b20c1805ec7e'
p788
(dp789
g4
I18
sg5
I4
ssS'5a2cde57a29774ad89271b7ad32c310184e7c183'
p790
(dp791
g4
I7
sg5
I0
ssS'c6b5fe9870836ef5bc738ad54214b2b70bad6dba'
p792
(dp793
g4
I279
sg5
I295
ssS'2083f650091d702e5f816b2d5953103f7d5ff7b3'
p794
(dp795
g4
I43
sg5
I0
ssS'e2cb8740686a3435a1da88cf6287944109c80502'
p796
(dp797
g4
I8
sg5
I5
ssS'32e9c96419851f6aa48f320a2e42e11b0d0add1c'
p798
(dp799
g4
I13
sg5
I7
ssS'c53520b5ac529f1579e0014c26988b7f48cf6fb1'
p800
(dp801
g4
I2
sg5
I1
ssS'6194752f7cc51f82e5e58cfa1afa7de290d06505'
p802
(dp803
g4
I0
sg5
I0
ssS'391d012df9b920444d316462ca961b2356c65c7c'
p804
(dp805
g4
I10
sg5
I9
ssS'aa9aa7e3a7aef7bd767c95d71756287dde0f5516'
p806
(dp807
g4
I1
sg5
I1
ssS'8cdcaf015a6920c22d925edb3f4c373a4fe03caa'
p808
(dp809
g4
I135
sg5
I2
ssS'496b34f2f7090894e82b92b763f15a38e0ea8b7a'
p810
(dp811
g4
I72
sg5
I0
ssS'7f320d71cd98f2416bbc9b39bc122d8b0a4a5f23'
p812
(dp813
g4
I50
sg5
I9
ssS'2a9391fc5442d11b25fa2745a859e45cb4057639'
p814
(dp815
g4
I1340
sg5
I660
ssS'c15137bbba1b3f4355f697a7294821b0155e7b56'
p816
(dp817
g4
I66
sg5
I1
ssS'614b7930bf5623dd4bd41cd0daae5c4f8ad82a62'
p818
(dp819
g4
I111
sg5
I0
ssS'c4f616014075f7576e9482d265d60bde8222e30d'
p820
(dp821
g4
I12
sg5
I6
ssS'99f189e7afeea179d35bda86530cb5a1c8dc4140'
p822
(dp823
g4
I1
sg5
I1
ssS'fbfa2c0cca44048a0ece7e8300536a4a4c7e53b7'
p824
(dp825
g4
I2
sg5
I1
ssS'a510b142b1a9e17addb2f6bd45452dc25bcc02a3'
p826
(dp827
g4
I8
sg5
I10
ssS'069ca2e289adb3d32dea6b8f9a4f1b98ede7e5f3'
p828
(dp829
g4
I10
sg5
I26
ssS'e11dffb4490d91e20549a057d17893a8cc19598b'
p830
(dp831
g4
I1
sg5
I1
ssS'a5aaef687b0579d8e224f866f0150246ad6f3197'
p832
(dp833
g4
I167
sg5
I96
ssS'1dc46af4afe2bf2343a70d8aa1b18584edc99758'
p834
(dp835
g4
I13
sg5
I5
ssS'f4be605e17ae1d9f0ab673b280cd3fa13b4748ca'
p836
(dp837
g4
I15
sg5
I5
ssS'359b2fcdb5b621b725bc9d452ac5373b3683b57b'
p838
(dp839
g4
I0
sg5
I0
ssS'b8cee2d0255cdb8d4aced858f8b57f575c0c1d79'
p840
(dp841
g4
I7
sg5
I7
ssS'ee222cf7147a85e21e68cc77568730bc29df0ead'
p842
(dp843
g4
I45
sg5
I3
ssS'e6f8178fe644bac378cb3d5918c4181aab3d4d25'
p844
(dp845
g4
I1
sg5
I1
ssS'b0966d20085bb4532a88df872ab06bd04c1840c7'
p846
(dp847
g4
I3
sg5
I0
ssS'd8dff56b87ae4855c4d1da9b795239ac4ca1dff9'
p848
(dp849
g4
I3
sg5
I7
ssS'778a45e682e71fea28b85382c0eb202a10c29201'
p850
(dp851
g4
I31
sg5
I0
ssS'aafe0be0a477489c858dbea4af85aaedbe93300a'
p852
(dp853
g4
I1
sg5
I1
ssS'6eecc0334490bfd835b65954c39dea30b903268e'
p854
(dp855
g4
I3
sg5
I3
ssS'4f7de019b12ec0a886f4da393f944fe1ede12d1e'
p856
(dp857
g4
I23
sg5
I0
ssS'14967816abb34df045cd4562086a902b14e70176'
p858
(dp859
g4
I67
sg5
I20
ssS'38cc0ce146f815c1cd10e2a1e1b8a01d5a833344'
p860
(dp861
g4
I23
sg5
I25
ssS'6f5e9cf08b4b4223232261d1bac9bde3641e8ee4'
p862
(dp863
g4
I2
sg5
I0
ssS'dab009f7422fd595ce3fd50852b031970bd22831'
p864
(dp865
g4
I49
sg5
I3
ssS'9b47e97eb3b2863c5562d418e125a2958659bc82'
p866
(dp867
g4
I0
sg5
I0
ssS'dd30614efa321db64ce325ee92d4bf12233b3199'
p868
(dp869
g4
I3
sg5
I3
ssS'f4645d6427e919f1efd3304b2f3b07381941907e'
p870
(dp871
g4
I1
sg5
I1
ssS'170f02538fcafd6616e702a9aa73ff7b689cbb59'
p872
(dp873
g4
I3
sg5
I3
ssS'979694376c4b871676455728367c5d32d85a67c6'
p874
(dp875
g4
I3
sg5
I3
ssS'42d5b618ca61d8af486bbb17984e7ec92eba3972'
p876
(dp877
g4
I1
sg5
I1
ssS'9b138b9788c9f1d2875da5ed5318061b3faa49fe'
p878
(dp879
g4
I1
sg5
I1
ssS'6c39834866a0b530e016a6b747e12f6357884922'
p880
(dp881
g4
I1
sg5
I1
ssS'3a69dc876338207c4605439319703427c2614738'
p882
(dp883
g4
I1
sg5
I0
ssS'e97242bc617bdc24586e3e889c33d4f34f0aab48'
p884
(dp885
g4
I28
sg5
I11
ssS'0ec3d637638f0cf2fc32c0c48f5dd8265d96c4ab'
p886
(dp887
g4
I3
sg5
I3
ssS'ee3662f3b84af336352466a59d63688f8bf7a480'
p888
(dp889
g4
I21
sg5
I6
ssS'cd3c0eb2b50c99ecf66dd94150d339cf161f9854'
p890
(dp891
g4
I59
sg5
I0
ssS'3982a26740638efc4f895d8710222ef5c62aab1c'
p892
(dp893
g4
I1
sg5
I1
ssS'fb416c323b83ae7f1f9eec436e822d156d38c656'
p894
(dp895
g4
I18
sg5
I30
ssS'21a26cb10aa7001569933fe285fcf3b026f14179'
p896
(dp897
g4
I64
sg5
I12
ssS'303b9519b703364f134ff078aeec8e35b3d8cd8f'
p898
(dp899
g4
I42
sg5
I5
ssS'bd1a58f4b1dc255ed799aa066bf16ce6cc50f2ef'
p900
(dp901
g4
I1
sg5
I1
ssS'844f97c6bd334384c6cba25af15eaefb32f5494f'
p902
(dp903
g4
I464
sg5
I430
ssS'fe0540df15c72fc375a22dc3cca5d2d798a58c17'
p904
(dp905
g4
I9
sg5
I1
ssS'244e0706eb74b7ee67ea822a6717014feab4945d'
p906
(dp907
g4
I63
sg5
I38
ssS'f773371608bd583b758fbec44f2b82edfd062333'
p908
(dp909
g4
I2
sg5
I2
ssS'd4efad6dc2b1bfa6604e38ef75d75a18a42431a2'
p910
(dp911
g4
I5
sg5
I0
ssS'492c88c03534ab9f711e3415839511e0c22cde98'
p912
(dp913
g4
I6
sg5
I3
ssS'f227fb7b372c9bdc05011bc0b5f1d27da01330ed'
p914
(dp915
g4
I25
sg5
I12
ssS'908fcd059b5909ea43bd441d2e8f640f2dc532ca'
p916
(dp917
g4
I68
sg5
I34
ssS'e7dd601153cc1b9d0ab234ddebde38c482b6816f'
p918
(dp919
g4
I1
sg5
I0
ssS'0e1e7ebca60f85f6f7b8a275ef449fbcbfd6c084'
p920
(dp921
g4
I1
sg5
I0
ssS'4714347dd3482fc37508cee664c25058056a6d0d'
p922
(dp923
g4
I10
sg5
I4
ssS'ff3b07614543b9948f9769296120e3237f17ce5d'
p924
(dp925
g4
I72
sg5
I22
ssS'93547f92288e24327be47b3f0600dbe2e44a61e3'
p926
(dp927
g4
I64
sg5
I0
ssS'3d3639fe390f0d024dfc4a9d55f9422183d29bd2'
p928
(dp929
g4
I1
sg5
I2
ssS'15754f7fb619f74aa558d38a908d5a8fea41f4a4'
p930
(dp931
g4
I1
sg5
I0
ssS'99ee93a4160294931c754dec371680f70261a869'
p932
(dp933
g4
I1
sg5
I1
ssS'd2746ddce27ba67f1869aafb342e1f4d2f96da63'
p934
(dp935
g4
I11
sg5
I8
ssS'be6980bc405c8af1a8ec4e4ac8c08b6f83906f94'
p936
(dp937
g4
I6
sg5
I3
ssS'2a12a1696b9667c1d7c85049bcdd98ec7699d9fe'
p938
(dp939
g4
I63
sg5
I6
ssS'c2b6b5647546722bca381bdc726ace18895bfc3a'
p940
(dp941
g4
I2
sg5
I0
ssS'31e31c00ad23a3e16c443dd6662827ffa9dd9f16'
p942
(dp943
g4
I11
sg5
I7
ssS'e6ada5f7a88e591ae36b6b5e04c4b25f7ace01ff'
p944
(dp945
g4
I71
sg5
I3
ssS'f240d649b70f5ee1aefc1ae1d7ef72b86bdced76'
p946
(dp947
g4
I0
sg5
I0
ssS'5883314d948230ffa8c8f066215b889492ea8f21'
p948
(dp949
g4
I21
sg5
I2
ssS'9e4a734b59049eb712deecd2f787ef7b1093fdfc'
p950
(dp951
g4
I0
sg5
I0
ssS'a72fc71dcbabedf8e9a490b93e4b248fbac30391'
p952
(dp953
g4
I0
sg5
I0
ssS'3f34965cad458edc1cce748e8f5b78044dde9845'
p954
(dp955
g4
I0
sg5
I7
ssS'74d5d26c5201f486b968e898e42b1ae2104221e6'
p956
(dp957
g4
I169
sg5
I159
ssS'2712ba700b255a5dbf3f2e8d448c16d05969e117'
p958
(dp959
g4
I31
sg5
I3
ssS'f9aa81c30078d2f62e430284a1fbc84992c57513'
p960
(dp961
g4
I2
sg5
I1
ssS'90e59affb0429246e06a84aaa8136b253914e5a0'
p962
(dp963
g4
I379
sg5
I84
ssS'727176fe2b83a7370a0e9b326c2acfc5128ab233'
p964
(dp965
g4
I3
sg5
I0
ssS'a5a5761459402d4266ffd320822c3919bc5f5ad5'
p966
(dp967
g4
I8
sg5
I4
ssS'85ea865de03855c1ca030a89390192c6e64723af'
p968
(dp969
g4
I69
sg5
I13
ssS'35432be98288fd8de49f12e9053b715708577d58'
p970
(dp971
g4
I50
sg5
I0
ssS'7e931b7c85215b3546d29ded9ae4df6692540822'
p972
(dp973
g4
I9
sg5
I0
ssS'53ccce72b8ac050703b20218b7df280cfb627f79'
p974
(dp975
g4
I10
sg5
I5
ssS'eb3627bc99306d74aeab181859743b6dc6fe3633'
p976
(dp977
g4
I77
sg5
I0
ssS'484ce6e8cb53d277aa3ff355acb494aa4104cebc'
p978
(dp979
g4
I0
sg5
I0
ssS'6876e9ce7d4a07a43b3e0afe27bc8ee3006f130f'
p980
(dp981
g4
I8
sg5
I8
ssS'2e5f6a32ac65d74cc83427f95013adccefc1b573'
p982
(dp983
g4
I19
sg5
I16
ssS'ee8495635b3d0361a704952afa9bb05ca6c8d8b4'
p984
(dp985
g4
I6
sg5
I7
ssS'17dd0490ab27903a21707845d8c8ceb12213e2f7'
p986
(dp987
g4
I6
sg5
I0
ssS'bf2ea7434938e39ec4b9341925f4ebf65d573317'
p988
(dp989
g4
I182
sg5
I143
ssS'349874805a9b3f31b2559f6697e0e8f7b8d905e5'
p990
(dp991
g4
I18
sg5
I21
ssS'336f1e1aba920e42553f29f97f6315d397296e23'
p992
(dp993
g4
I48
sg5
I24
ssS'4619b95ce370fd1f209a40cb5b2f6bda2da84d42'
p994
(dp995
g4
I25
sg5
I29
ssS'f7e655e4260e7b9407f26a69429049155784251f'
p996
(dp997
g4
I16
sg5
I6
ssS'ce550a4a22f644768dbc4559764a637daab12bfc'
p998
(dp999
g4
I2
sg5
I1
ssS'792b1b6158e429882c6462f0e5114dffe20d8839'
p1000
(dp1001
g4
I29
sg5
I0
ssS'0a8c3190ecfedd5cfc8a42a47b0e3eac9e1ac2a7'
p1002
(dp1003
g4
I2
sg5
I1
ssS'36d1ed773987d5026da09bb0f8d227a014c314c3'
p1004
(dp1005
g4
I18
sg5
I50
ssS'4c6dc775168a1c30201ef40e78d3bcab6bd64ed0'
p1006
(dp1007
g4
I52
sg5
I5
ssS'cfe041fa5114a097895d76fe7cf8fe707364bfe6'
p1008
(dp1009
g4
I2
sg5
I2
ssS'a5e57147ce048f7a34e8f3f4d04a956e80092f7e'
p1010
(dp1011
g4
I0
sg5
I0
ssS'3043eb1386a3e3e0115e9c11c0b3b951c6ad0240'
p1012
(dp1013
g4
I10
sg5
I18
ssS'14f6ec304236c92227e7e658be9fe1a67aadc45d'
p1014
(dp1015
g4
I17
sg5
I7
ssS'433fe0e2284cf2209cfbe1e96db94dcac4f04df1'
p1016
(dp1017
g4
I96
sg5
I648
ssS'940e54b12a6ee92bb4f70ce936b4a485ee1d22c4'
p1018
(dp1019
g4
I0
sg5
I0
ssS'ac350c5299a8442147e4ba18f158a648840524ce'
p1020
(dp1021
g4
I1
sg5
I1
ssS'a387083be34b2019f323a60c6afa735480f20ce7'
p1022
(dp1023
g4
I1
sg5
I1
ssS'66518744eb0d9d37ead54a7d3a979282992e5f68'
p1024
(dp1025
g4
I73
sg5
I3
ssS'ef8fce70137aa6a429bb5119ffa91b93cdb8f473'
p1026
(dp1027
g4
I433
sg5
I1
ssS'b0a7e7a1f887d3a4643c4b4954962c99f4892ca6'
p1028
(dp1029
g4
I1
sg5
I1
ssS'd586720f7c90594fc683b14e28c8e75bedc14fd6'
p1030
(dp1031
g4
I662
sg5
I3
ssS'bea56cf5b60a396eddc03247c75928a165ddf3ff'
p1032
(dp1033
g4
I3
sg5
I3
ssS'85a25d2d81e347d0c647a62def2c12a2177bdaeb'
p1034
(dp1035
g4
I0
sg5
I0
ssS'f7d5e8edbf313149289ead801855a7db9a3bdad3'
p1036
(dp1037
g4
I22
sg5
I5
ssS'23b66c214248479daf201853a1c81867dd680ce8'
p1038
(dp1039
g4
I14
sg5
I3
ssS'c463248e0276f9bd5a811a26dde7b9de066b8ffd'
p1040
(dp1041
g4
I18
sg5
I19
ssS'9874baf4744c516b9815c8441b8b4f3862ae7fc4'
p1042
(dp1043
g4
I0
sg5
I0
ssS'97d1760cedc399f5e788c9396fc3b1c686682a9f'
p1044
(dp1045
g4
I2
sg5
I0
ssS'6192f9dd48c2619dd7d6909f6f3f84a6572fbe03'
p1046
(dp1047
g4
I13
sg5
I0
ssS'58e616d318cc1f6c5afdf2daeac55d0ee6a4a535'
p1048
(dp1049
g4
I1
sg5
I1
ssS'dea1cac0058875da377a0a6062d18576c5545229'
p1050
(dp1051
g4
I2
sg5
I2
ssS'ebce97d7c5b643ba9d881bba3412bf971527a224'
p1052
(dp1053
g4
I222
sg5
I385
ssS'3726bad04be0d89c5515144e6df85d3f042c82f6'
p1054
(dp1055
g4
I37
sg5
I14
ssS'eb1c10219ea3b2078a43aa7abac6cfb2d55b9501'
p1056
(dp1057
g4
I151
sg5
I1
ssS'04de8c079ca0dc244ea34c792e2fe34c1e96aa81'
p1058
(dp1059
g4
I25
sg5
I0
ssS'be26dc84294e7c7c81fd1faa86f62bc992d69c7c'
p1060
(dp1061
g4
I1
sg5
I1
ssS'bea02406852272b4b74c6e585949e8f2bc102bc4'
p1062
(dp1063
g4
I6
sg5
I7
ssS'3eddeeccb3e4b6bdc30a8ac400db71d5d66a20a5'
p1064
(dp1065
g4
I0
sg5
I0
ssS'4108587eb09980b22cdf676f4f17b7a9a66e9913'
p1066
(dp1067
g4
I72
sg5
I39
ssS'c6e34b40ad352e99e9403ed5bfcbb3d09ca3f968'
p1068
(dp1069
g4
I2
sg5
I0
ssS'ab8d5aa1953e8908dbf60a8287d0038e49b01ef7'
p1070
(dp1071
g4
I77
sg5
I8
ssS'4ee7a484c395aa81d4d80265b584915a98630058'
p1072
(dp1073
g4
I72
sg5
I10
ssS'5570be6312fb97dae387db7e160379e2e7fb8037'
p1074
(dp1075
g4
I377
sg5
I0
ssS'505892f30f57da07abf74b1bfee65b6f9d21f8f7'
p1076
(dp1077
g4
I31
sg5
I14
ssS'8ea4f6de6a049b63d056276af6d2785b7e3d81c8'
p1078
(dp1079
g4
I0
sg5
I0
ssS'121f187efd2112fe7de5016b096a8ba30afd14b6'
p1080
(dp1081
g4
I3
sg5
I48
ssS'43e0d3f63108dda14014a4a28eef67f31a716cec'
p1082
(dp1083
g4
I28
sg5
I0
ssS'961670ef5d79886c58d6f54e14331f674c6c0f45'
p1084
(dp1085
g4
I23
sg5
I18
ssS'501609ae6c9542a53110316e3e694eb677bfc5e5'
p1086
(dp1087
g4
I12
sg5
I3
ssS'd0d25dbc727c03c0c5e3561304170a5109fc160e'
p1088
(dp1089
g4
I89
sg5
I35
ssS'bb33d2b7cbdfcc4e9724ac0baccdca3ba0265430'
p1090
(dp1091
g4
I83
sg5
I19
ssS'666b40e4985d4311775a739dc38fef90403741ae'
p1092
(dp1093
g4
I24
sg5
I0
ssS'6a289201ff17e1572a65a0d8329823d06aadf187'
p1094
(dp1095
g4
I35
sg5
I2
ssS'b1649129148bcfa3992cb1a87231e385160b2fd8'
p1096
(dp1097
g4
I27
sg5
I1
ssS'a276468a177ffc710a7ba962eb48d92fe8a5d058'
p1098
(dp1099
g4
I10
sg5
I1
ssS'f7a9d237fb68994de53cc551ee1c7504b63b7464'
p1100
(dp1101
g4
I1
sg5
I1
ssS'636c2131bca0178603f1563823c4bf880eacd5da'
p1102
(dp1103
g4
I1
sg5
I1
ssS'4600c393dfafd7391a12135e0fef72faea436dd1'
p1104
(dp1105
g4
I0
sg5
I0
ssS'5844644ef85dbd930b9238974c63bff28a64ae6f'
p1106
(dp1107
g4
I47
sg5
I1
ssS'3dc4ca288a5ad7eed5ae6c2da9e6864af0b20bf9'
p1108
(dp1109
g4
I12
sg5
I2
ssS'5b9b909cde58574913d371a077154961f12a01bd'
p1110
(dp1111
g4
I214
sg5
I88
ssS'c830e92a6068ef31b07ab969cd6dc145ec859ee7'
p1112
(dp1113
g4
I29
sg5
I0
ssS'5f2a711d2e4e80a9e9215508d1adb282dc0558f7'
p1114
(dp1115
g4
I3
sg5
I4
ssS'085c35bbd7ca1a60f486394b6fb729738574f205'
p1116
(dp1117
g4
I7
sg5
I2
ssS'ecaf9ef9589ba7a04a4c8d144869f9aa602a464b'
p1118
(dp1119
g4
I1
sg5
I0
ssS'fb41411251fe8af9b59ffaf0a8a679e1c5e7479e'
p1120
(dp1121
g4
I32
sg5
I3
ssS'e15b1e96eb4937fae46424224c5d93b7f20e1a11'
p1122
(dp1123
g4
I53
sg5
I2
ssS'a74a7bacca1d8e836293537700e2e4a83d16078c'
p1124
(dp1125
g4
I9
sg5
I1
ssS'1793cbe25c112e5457f2035796a4793106ccb5b4'
p1126
(dp1127
g4
I0
sg5
I0
ssS'bdfa230d074f623d5c2b3475f95042645e13e88f'
p1128
(dp1129
g4
I1
sg5
I0
ssS'deb3ff17acb9887f8414bb26d5acb2dde114f625'
p1130
(dp1131
g4
I168
sg5
I11
ssS'9a08253f8447ba5aec568e30f611ab71a411b312'
p1132
(dp1133
g4
I2
sg5
I2
ssS'2c09c4bfb64f80d041ae0e35d08b450675133189'
p1134
(dp1135
g4
I77
sg5
I60
ssS'a6af62d90593706ed88f2afe96c19eb1b558e5d5'
p1136
(dp1137
g4
I3
sg5
I5
ssS'73803a36a43afada276ef64409eb38e263e6bb0d'
p1138
(dp1139
g4
I23
sg5
I12
ssS'11da2445738dbfb0343ec826b4a95387f56fa87c'
p1140
(dp1141
g4
I5
sg5
I4
ssS'14acd451e8be37eea8bb29678856d085ee13c718'
p1142
(dp1143
g4
I0
sg5
I0
ssS'90118c88bb8a8d7e356490339deb988ad2aa6e49'
p1144
(dp1145
g4
I19
sg5
I3
ssS'75964b7d21dbd89de79db1d51cc00c49466f3e57'
p1146
(dp1147
g4
I109
sg5
I46
ssS'91afd402b05571bcc0dc28bf7ceac6a1c78e282d'
p1148
(dp1149
g4
I185
sg5
I115
ssS'b321659766ba9e51c86dd334d98695581f7a90d4'
p1150
(dp1151
g4
I0
sg5
I0
ssS'0da4f3cca09ce827db325f3dba4a6083e771645f'
p1152
(dp1153
g4
I19
sg5
I1
ssS'1d5cbefb8eeaf5d57180e18bc9f196cfe36073d8'
p1154
(dp1155
g4
I22
sg5
I26
ssS'19b67e79d53c484e4dd43b591124b21df0095650'
p1156
(dp1157
g4
I56
sg5
I5
ssS'30b68b8909c3c6aeae2142bd8be7c69fd91e1821'
p1158
(dp1159
g4
I52
sg5
I3
ssS'806b6eb703e4f4484dfd8355351995dfe02fead8'
p1160
(dp1161
g4
I115
sg5
I80
ssS'53e763ef049248bbda5c37b476ec4d90e5489875'
p1162
(dp1163
g4
I1
sg5
I1
ssS'd2b592218e92bb940af88b35664ee5a9f2d98895'
p1164
(dp1165
g4
I83
sg5
I8
ssS'b4f54fcdd5ac87054e4db81ae6df650b779b24ef'
p1166
(dp1167
g4
I4
sg5
I4
ssS'cdf6c89634791443048ca86640b3bce487fb3741'
p1168
(dp1169
g4
I85
sg5
I3
ssS'dd6cbaff7ff008e588db5e6cf59be8048d63c102'
p1170
(dp1171
g4
I6
sg5
I8
ssS'12db34d2b44ae2c36d131539f0c14d8b1856ec6b'
p1172
(dp1173
g4
I0
sg5
I0
ssS'46b10e1e17d919c80626398789516e2cfb122682'
p1174
(dp1175
g4
I12
sg5
I3
ssS'2800905d8ec94b32cfe6b5f4943212c9a4e13cee'
p1176
(dp1177
g4
I17
sg5
I15
ssS'718e635965bbab72abca96c26cf5b275cf70b737'
p1178
(dp1179
g4
I3
sg5
I2
ssS'0ab070f75b0318f002d77aadd62e61e77e2cf546'
p1180
(dp1181
g4
I50
sg5
I19
ssS'8059e1b440511ae09fdd3c29bac6dda86b896a0f'
p1182
(dp1183
g4
I175
sg5
I22
ssS'5e1c52be6f054451a9060554298636d914d277d3'
p1184
(dp1185
g4
I136
sg5
I2
ssS'eb02ea278cdd9cb7415c888f490940146283e20c'
p1186
(dp1187
g4
I29
sg5
I1
ssS'23dda48b34868ad1c6b4f4b8bf9b00584286236c'
p1188
(dp1189
g4
I2
sg5
I1
ssS'ee9c4f39a3f7a6d94a858f378afb70477c5addfd'
p1190
(dp1191
g4
I10
sg5
I8
ssS'a67dd92a622bb71ca416e5609aab646aa8112cd2'
p1192
(dp1193
g4
I0
sg5
I0
ssS'e946e215233c1a2bf8515294b056133886a10556'
p1194
(dp1195
g4
I0
sg5
I0
ssS'21241f30cc784c3746da029a5605f11c60d95428'
p1196
(dp1197
g4
I3
sg5
I3
ssS'4813a9ca22f96323dd9484a50eaf82af7a2ac873'
p1198
(dp1199
g4
I26
sg5
I38
ssS'3693fe35bd3946a93cb44d988f97e86f3c7fe9bb'
p1200
(dp1201
g4
I1
sg5
I0
ssS'8bf2eaa17c08a20da47c46d72e2cb47fe6b1a4ec'
p1202
(dp1203
g4
I6
sg5
I6
ssS'd482ce53b92f7eaa73c000fdd77fe1657f6b6f35'
p1204
(dp1205
g4
I8
sg5
I9
ssS'df8027f8e827cde6bf08c31136a487429a178c71'
p1206
(dp1207
g4
I3
sg5
I1
ssS'c3345b8e077baac8e9aa60e4fa24974cad9e8c8f'
p1208
(dp1209
g4
I0
sg5
I0
ssS'5bce20e0202f7b521ec0161101143932c2ff4757'
p1210
(dp1211
g4
I48
sg5
I1
ssS'9c114fda094cc48518433ff1a01612661ba44abb'
p1212
(dp1213
g4
I6
sg5
I0
ssS'2d23dcac06029085f22fb63aa633ffc915a8f9ca'
p1214
(dp1215
g4
I0
sg5
I0
ssS'd6fbb1aea7404abcfd4f18f31b48bd45d0ce09b1'
p1216
(dp1217
g4
I37
sg5
I7
ssS'979aab4b39d7fc78d2e3314503e98db7e5f00a87'
p1218
(dp1219
g4
I1
sg5
I1
ssS'229afe7c90d81f495a3dca80b4d21eb270969e4f'
p1220
(dp1221
g4
I144
sg5
I9
ssS'9fe3570f3c36f06d3542518c8e86fa17db958726'
p1222
(dp1223
g4
I59
sg5
I59
ssS'7c012b1aed37727db1f2ea9489aac59f7d79a989'
p1224
(dp1225
g4
I6
sg5
I6
ssS'2f20abae517636ba2a0583adb15b5dccbb51f82f'
p1226
(dp1227
g4
I0
sg5
I0
ssS'622eca92b56d37cd70044d314898d1458d1176f8'
p1228
(dp1229
g4
I2
sg5
I2
ssS'dace448447e968fb8e26417751592c84c2bd3870'
p1230
(dp1231
g4
I4
sg5
I5
ssS'2904530e318de1e7f316c30c5c332e842c6f047e'
p1232
(dp1233
g4
I17
sg5
I10
ssS'ef7b657338b10022155006566e852251e4364915'
p1234
(dp1235
g4
I106
sg5
I0
ssS'34b446072d15670bf1fb61149810633137062478'
p1236
(dp1237
g4
I8
sg5
I5
ssS'aa43fb76249aa04258a0f35308ce90e429086bd5'
p1238
(dp1239
g4
I0
sg5
I0
ssS'8f9bd3f11c5cef9637aba30b8380609b466bf276'
p1240
(dp1241
g4
I14
sg5
I15
ssS'e7a2c0bc10fa24586f54ba4f0f825400dfe60c5c'
p1242
(dp1243
g4
I1
sg5
I1
ssS'1c8d267e5280b72f4b29b319f11cd71282fd5b3d'
p1244
(dp1245
g4
I27
sg5
I16
ssS'4e65c088e8d476f21c3c1066109afdb15b1db62f'
p1246
(dp1247
g4
I4
sg5
I3
ssS'950588c71124a8239589192f1899f681c7c817fa'
p1248
(dp1249
g4
I10
sg5
I15
ssS'c0231e1603d3a6b70d25f9ae760ec1f63e207941'
p1250
(dp1251
g4
I1
sg5
I1
ssS'a3394a8fdf8ee7ca87444e86257bf1d760ed9dc1'
p1252
(dp1253
g4
I117
sg5
I57
ssS'b0f94f7b422e9d96826ed599815a79a2fb6ce11b'
p1254
(dp1255
g4
I1
sg5
I1
ssS'a9f77d740ce92470d2f1f7a25b3bd5e7305dad6d'
p1256
(dp1257
g4
I12
sg5
I4
ssS'f6bed83227dd8bbeb3d37f098c167cc2b38425cb'
p1258
(dp1259
g4
I2
sg5
I1
ssS'5ce472cd6c93a95849625c01a8b3f2d611505db1'
p1260
(dp1261
g4
I13
sg5
I2
ssS'12f8c84e80342aaf5b0db56dd84c06e3a154767d'
p1262
(dp1263
g4
I10
sg5
I0
ssS'2c49e6a811de5ba6ebd9adb6ca67f9f968029e19'
p1264
(dp1265
g4
I79
sg5
I3
ssS'0e991f9f2b4d5176f394913feb6a0b528f0c8a40'
p1266
(dp1267
g4
I1
sg5
I0
ssS'ff1f2a0e7ced885718083de9d1a04d172fff93ef'
p1268
(dp1269
g4
I3
sg5
I3
ssS'dfe605d55e40c263953e17cb63267c43896c3f1f'
p1270
(dp1271
g4
I27
sg5
I1
ssS'a6cd9826f1b4e4e59d92634a325f97c032404117'
p1272
(dp1273
g4
I72
sg5
I4
ssS'77d1399a334de32478e04953008f335a6ec3d01d'
p1274
(dp1275
g4
I3
sg5
I3
ssS'b7cb863eac17d01be297255d8196ce56318a05e1'
p1276
(dp1277
g4
I2
sg5
I2
ssS'fd7f0a54148ef85165bf1b337a37cb9bb442b9f1'
p1278
(dp1279
g4
I2
sg5
I0
ssS'b86c87802269e433d63a87d37c8bc38505fdc48c'
p1280
(dp1281
g4
I35
sg5
I5
ssS'620427886ec6aabbdcc7d323751f065ee1dbaca9'
p1282
(dp1283
g4
I34
sg5
I8
ssS'09193a0963373794e516a8a4b4dd28da82024ad9'
p1284
(dp1285
g4
I9
sg5
I24
ssS'80428bacec8b51cbd5201f26265f4596e1f9e408'
p1286
(dp1287
g4
I4
sg5
I0
ss.