(dp1
S'ea8c85a7fe8485da205043ee6f42b63be196cb93'
p2
(dp3
S'insert'
p4
I909
sS'delete'
p5
I175
ssS'af491ea1991eeb545d562113c5dfa82beea63083'
p6
(dp7
g4
I120
sg5
I63
ssS'783d4f69188d1c084433bc2035b49185d6f6b3af'
p8
(dp9
g4
I1
sg5
I1
ssS'7e2e1c047473deaa58174155c0671724f917083f'
p10
(dp11
g4
I1
sg5
I0
ssS'e5b10c690b407ce8968a0fb3b8bd70519ae1b9f0'
p12
(dp13
g4
I0
sg5
I5
ssS'c74edaeb4c7590dad3fc38a91ba460dd7e50f1db'
p14
(dp15
g4
I1
sg5
I1
ssS'25a7c678d5ef51aa51f3f695b1c08b57076a422f'
p16
(dp17
g4
I2
sg5
I2
ssS'da0aa80ffc89b9fb908cec7be076211eabee317a'
p18
(dp19
g4
I1
sg5
I1
ssS'c4a0543a93d073856db6a86647c47335a5c78e1b'
p20
(dp21
g4
I1
sg5
I1
ssS'bd427216c2eeb14712cf00231617016e1e315ec8'
p22
(dp23
g4
I6
sg5
I3
ssS'4aa2a0b2d2e74415427610b634577b07150be6e5'
p24
(dp25
g4
I84
sg5
I4
ssS'0d62ebc11fee505ca500ac36c9e341171626989e'
p26
(dp27
g4
I29
sg5
I0
ssS'60ca95fa73f7a46985e5bb7afac98c7201ca15d9'
p28
(dp29
g4
I0
sg5
I0
ssS'bf6cdc2b85582497a0a3dc75b6e9d1730416695c'
p30
(dp31
g4
I0
sg5
I0
ssS'62e4f1e7cb22f43bcc86433b74f4a4521e2ce2a5'
p32
(dp33
g4
I8
sg5
I9
ssS'dd9cf7c3c5975547a3696a3987fd246027184293'
p34
(dp35
g4
I1
sg5
I1
ssS'3f09a944c8c8e6a96b233c9c307c1b31d1bf5945'
p36
(dp37
g4
I18
sg5
I1
ssS'5f34467cfd33e27106d326054eb9a4cfa932adc7'
p38
(dp39
g4
I3
sg5
I2
ssS'798cc1679263819c50de8d81fc6ccb47f88d35a1'
p40
(dp41
g4
I25
sg5
I12
ssS'd8d62102dd15eaf1ebc9da858c10d7d890740fa7'
p42
(dp43
g4
I0
sg5
I0
ssS'4bb3e9999fdc99280707a036a5f431abc4d200e9'
p44
(dp45
g4
I34
sg5
I26
ssS'37416393f9f2d3ba3e8aedd6d3fb90e1fd9576d2'
p46
(dp47
g4
I15
sg5
I2
ssS'47af15ba8c822eac88c0a2c40e3d13098dc505f2'
p48
(dp49
g4
I43
sg5
I34
ssS'8f26a5932bcf8a0cb73d7527f3572e9b03e8c14d'
p50
(dp51
g4
I3
sg5
I1
ssS'ce786ccd26a380cfcabcb335a34e9107c4fc3fd9'
p52
(dp53
g4
I18
sg5
I14
ssS'a95c9e49e31166a31206f0b039807a5b82417251'
p54
(dp55
g4
I19
sg5
I19
ssS'101f5629391421c236fc4ab4fc23f6344b062d24'
p56
(dp57
g4
I163
sg5
I155
ssS'66edd17771b701c91d4de62c3d6aedacb3bde032'
p58
(dp59
g4
I33
sg5
I6
ssS'1b0ae822f1279370f234afbdcb00f3eba9e7a58e'
p60
(dp61
g4
I12
sg5
I11
ssS'5e3e0e586cebeadeba86f6cbcac300ef54627a03'
p62
(dp63
g4
I8
sg5
I2
ssS'c8b389eb3af4d371aa93c308cd2e8346109fb766'
p64
(dp65
g4
I4
sg5
I2
ssS'e8977ae2428cd437d2b21a127649c6944b62e798'
p66
(dp67
g4
I0
sg5
I0
ssS'ec1cc6ba8d7f33346e294e738159b7d65a6ab92e'
p68
(dp69
g4
I1
sg5
I0
ssS'29f2bf984643b81f8ac90c62d985cda216c26124'
p70
(dp71
g4
I0
sg5
I0
ssS'e1ef45a1deb7f4a961540de2ee39136bb9638139'
p72
(dp73
g4
I13
sg5
I38
ssS'bbeddf60b6795e3dd239aeae61b93f7bcc2b6a72'
p74
(dp75
g4
I27
sg5
I22
ssS'55e258d396ad2bc37ae1aa12a299c41dad3585d6'
p76
(dp77
g4
I0
sg5
I0
ssS'16fb777063f3f29322346824886a2fb05f304da0'
p78
(dp79
g4
I0
sg5
I0
ssS'959324a6a22b83b1c0b71238c89923900992e50b'
p80
(dp81
g4
I59
sg5
I0
ssS'74ebe1f0bf8f05add1590ebe58e60e27b620461d'
p82
(dp83
g4
I3
sg5
I3
ssS'5925317edb4b19b69c12f2bf61d70e4fa0c9de13'
p84
(dp85
g4
I3
sg5
I0
ssS'd2abbc02a91ab26d8bbfdcbf8798f994b885052e'
p86
(dp87
g4
I6
sg5
I7
ssS'd5aebe8a0ab4c8e7e993dc46eb6ece1cf272f9f7'
p88
(dp89
g4
I10
sg5
I16
ssS'06950da76a8b8446e92cdee313c3317e238af02f'
p90
(dp91
g4
I0
sg5
I0
ssS'69a0db619c5567c2ebc6d88a82219fa02295817d'
p92
(dp93
g4
I0
sg5
I1
ssS'2709818abb75681fa03b9e8739b16b619e963143'
p94
(dp95
g4
I43
sg5
I2
ssS'888557fdc2e1557802bc8a06c8fe7ea4d00347c5'
p96
(dp97
g4
I2
sg5
I8
ssS'f94e80b097e0cff3fcc1fa7a571218263308e827'
p98
(dp99
g4
I1
sg5
I1
ssS'a10fd6573f8b4aab7a9bb27c2c12c8bc4d35bcc8'
p100
(dp101
g4
I20
sg5
I30
ssS'9a9737687b1df2542bfa457fe7f00e1d0813ce42'
p102
(dp103
g4
I20
sg5
I14
ssS'56f161410d6ca8a54088f76d8e02baf086a3c36a'
p104
(dp105
g4
I199
sg5
I248
ssS'1e0d63c0d84b18890c9d2146bd5ebea28952b74f'
p106
(dp107
g4
I3
sg5
I1
ssS'1ced08d0d7c805de4253b85a91386b20ddb4c125'
p108
(dp109
g4
I3
sg5
I2
ssS'fdb61ff708195662190590f4c6ee79162d4f9a58'
p110
(dp111
g4
I4
sg5
I4
ssS'c616a7f6028d14234d51b9fe9244f66bb2cfe7bf'
p112
(dp113
g4
I3
sg5
I2
ssS'b2c7a50084080d20a02f5ac95399b19bdeeb1115'
p114
(dp115
g4
I44
sg5
I46
ssS'e11a5110f75880bb53c6911cb3bb147185e29c75'
p116
(dp117
g4
I0
sg5
I0
ssS'4d6ccafedd4375f6ca6749e4603bc3a4f1d127ad'
p118
(dp119
g4
I0
sg5
I0
ssS'9b5729ad50fdc2d2aa00e50547bb371c4cbd61c6'
p120
(dp121
g4
I6
sg5
I2
ssS'29a1b48e6093fee818cab3df26f643b8d06dc906'
p122
(dp123
g4
I0
sg5
I3
ssS'a35077509d0c85855a5a1f9abc3b0b2a06859f6f'
p124
(dp125
g4
I17
sg5
I3
ssS'463e12d5e07b90c642c5f888d1c2b15680189221'
p126
(dp127
g4
I6
sg5
I7
ssS'28f86a05b18ef8f0adce881c5e93a01bac7a13b7'
p128
(dp129
g4
I2
sg5
I1
ssS'6b6900083c25fabb5d1463bb7012e282db599fef'
p130
(dp131
g4
I3
sg5
I2
ssS'2938a488e62843f2496b85d5e54fbb6d3ad5a7b9'
p132
(dp133
g4
I3
sg5
I2
ssS'7a90261136279273c2257b8daed282ff130945aa'
p134
(dp135
g4
I0
sg5
I0
ssS'8db90eff6c6c9ca6e826efd1956cd6416948de0f'
p136
(dp137
g4
I0
sg5
I0
ssS'eb456c89ce39b7c9d6c3c4b5f909bc2c6e68faf1'
p138
(dp139
g4
I13
sg5
I23
ssS'2c0d2c4e2d5e1dbe45819cd5d20c5a8e88bcad7d'
p140
(dp141
g4
I0
sg5
I0
ssS'df78c018ac84f6fa9c863c03606d8d096f07bfbb'
p142
(dp143
g4
I166
sg5
I42
ssS'be3cf314dba27f5c8bbad2523f060019342e1ff6'
p144
(dp145
g4
I0
sg5
I0
ssS'5c2216075c8066dee4a25273ed77642542f919a6'
p146
(dp147
g4
I14
sg5
I13
ssS'f02774f8ff8c9e5ae7d2e498053fe224d9ba0f74'
p148
(dp149
g4
I0
sg5
I0
ssS'925898aa90ba1d680ccc0e017c5976f23176ab27'
p150
(dp151
g4
I0
sg5
I0
ssS'a3023e83a371e6751dd3361bac71fdd567395e3b'
p152
(dp153
g4
I2
sg5
I1
ssS'5766382f0244c8290e727683d507f2d2e2815662'
p154
(dp155
g4
I0
sg5
I0
ssS'6f8f6510f2b5fcab0deb148abc1280abed79892b'
p156
(dp157
g4
I1
sg5
I1
ssS'2e0549c08b1c48a948ab65c4f4ad26b4f3e495dd'
p158
(dp159
g4
I5
sg5
I1
ssS'8b7ee936cf5ce451663b2ea7cc1658ff5f294df6'
p160
(dp161
g4
I0
sg5
I0
ssS'81c5f0aa558f414bbec294b3eb432aa2bf4e2df1'
p162
(dp163
g4
I1
sg5
I1
ssS'0ce5888a111c9c5c32a5e162243ffda5eaf2df7e'
p164
(dp165
g4
I15
sg5
I7
ssS'b0fe2caf199d90299db820e28cec19e750c47847'
p166
(dp167
g4
I2
sg5
I2
ssS'041d36d79817eb7612bdc9bd7ed0c7ab0e9edf39'
p168
(dp169
g4
I0
sg5
I0
ssS'7deec0b6464bbda18ce2f700980edba2d6c51e10'
p170
(dp171
g4
I2
sg5
I1
ssS'94576fdf395c03f4a2ceb2e3f91f97e81367b267'
p172
(dp173
g4
I1
sg5
I6
ssS'6f949ed07a19d96592fcd13181cedf63d077e073'
p174
(dp175
g4
I0
sg5
I1
ssS'571892c6096709b53ef2c0b4ab2b595ee47a3013'
p176
(dp177
g4
I5
sg5
I4
ssS'deb238d1b40f9652fe419fca9432bc0626b6cb42'
p178
(dp179
g4
I1
sg5
I1
ssS'246e60af1d4794defd3bf84ed7498a8a1041edf8'
p180
(dp181
g4
I0
sg5
I0
ssS'46dffe8f2f3b02e71021136c1729fd2227d71014'
p182
(dp183
g4
I1
sg5
I0
ssS'c7de572151873be5cf2a34300e1f826550698d41'
p184
(dp185
g4
I34
sg5
I0
ssS'03146baaf04fdb4aa688398fa45709807f77e423'
p186
(dp187
g4
I2
sg5
I2
ssS'b5c57c2a90a28f5c6f9f87ac06737a1cbc0eeac3'
p188
(dp189
g4
I2
sg5
I1
ssS'b82378d4c2afa80d20bf5182a436c02a0e648b07'
p190
(dp191
g4
I0
sg5
I0
ssS'd1c6d3a18ba76f9c286443af1cdb9c2e8e66e1dc'
p192
(dp193
g4
I0
sg5
I0
ssS'6556fb3ba312d9b2e39228d98d7385d4505b08e5'
p194
(dp195
g4
I0
sg5
I0
ssS'aaa5d39fa05f2dd7db440885a7f53d0e9bacfb00'
p196
(dp197
g4
I5
sg5
I7
ssS'aca992231e520995a2a031637d4dff8965c010ec'
p198
(dp199
g4
I0
sg5
I0
ssS'dbe6b399871ef55dfc62dfaeff2a8c443a70eb7e'
p200
(dp201
g4
I0
sg5
I0
ssS'43a8668987165f82d95c95ed57adf7c59f94a92c'
p202
(dp203
g4
I1
sg5
I1
ssS'c57ed8ea81d5658b88f5e4dbe35938bb8be1da53'
p204
(dp205
g4
I8
sg5
I2
ssS'4a0049c1307f5ed193951a4df182ee4716532c61'
p206
(dp207
g4
I0
sg5
I0
ssS'f9295b67205b36836ca9fb1fad4f3677ae7a7210'
p208
(dp209
g4
I26
sg5
I4
ssS'c7d05b90aadf02dfb66dc61991338fa198bee569'
p210
(dp211
g4
I0
sg5
I0
ssS'adcb9b5b503e839cc9d6aa0d01e8ad343a4343ba'
p212
(dp213
g4
I2
sg5
I2
ssS'0013168a366fca1a5e82a6f579b32ba060029c8d'
p214
(dp215
g4
I46
sg5
I35
ssS'6b6b7a35e01406de5dc7aadf6366c746189c55ca'
p216
(dp217
g4
I5
sg5
I5
ssS'3b4e2483fa3a36984027b00790ddf4b84b2687bd'
p218
(dp219
g4
I6
sg5
I3
ssS'a6607c20b70b706dd2b6a0d0772013084e1881e3'
p220
(dp221
g4
I1
sg5
I0
ssS'9adfa1eb8920ac25266be5a2d017df62d1607c16'
p222
(dp223
g4
I0
sg5
I0
ssS'10d0e0b16187f8473866707ff7041f00c92e8e42'
p224
(dp225
g4
I6
sg5
I0
ssS'92c29b85aa6824b1aaa732dcb64fe1246d20d546'
p226
(dp227
g4
I1
sg5
I1
ssS'ea452beeff26f701b91126ffaf4860731d0b4302'
p228
(dp229
g4
I3
sg5
I1
ssS'd091ef34dc1ab8f0b83bedb39ec9257bcab01ba0'
p230
(dp231
g4
I2
sg5
I1
ssS'28a0d901178709c76d7d5286a77abede6f295392'
p232
(dp233
g4
I14
sg5
I18
ssS'd79d5ee4b8ae9872df9a1620a64565c93c09c0c4'
p234
(dp235
g4
I1
sg5
I1
ssS'aae325604f231bc4c97ee41cafcbdd69d593a363'
p236
(dp237
g4
I7
sg5
I7
ssS'c307b106ca919dd03f1e8d84f369d4cb00d130fd'
p238
(dp239
g4
I24
sg5
I7
ssS'382a77a4264d512cebd07a4cada7b9d40fb68e92'
p240
(dp241
g4
I0
sg5
I0
ssS'a97030079fd47d274f1f439dc932d0f2c7ac2e72'
p242
(dp243
g4
I155
sg5
I0
ssS'd32c65ca790ff5a9a5479bdf3025849f2f26d0d0'
p244
(dp245
g4
I1
sg5
I1
ssS'c363d36cb2aff5165ff4ba3b1d29f55479380106'
p246
(dp247
g4
I124
sg5
I71
ssS'07b90a4e082b46d868c3297188e7ad664fbc6e1e'
p248
(dp249
g4
I5
sg5
I1
ssS'b8134903f7e178769b1716323bdc2a1410488b31'
p250
(dp251
g4
I1
sg5
I1
ssS'2448b252d3090a0d7f630cd39d7a561bd692eb6c'
p252
(dp253
g4
I3
sg5
I3
ssS'09122deb4731a0c2ac57425b4e41e83b2d6b5e4b'
p254
(dp255
g4
I0
sg5
I0
ss.