(dp1
S'91edc406df37d305af49e207e8003bb55d9a76ed'
p2
(dp3
S'insert'
p4
I0
sS'delete'
p5
I0
ssS'8402073613602a1f599602043176b00e097a1aa5'
p6
(dp7
g4
I142
sg5
I50
ssS'11580381ce36a7e1a601e3881562da5c59eb9633'
p8
(dp9
g4
I0
sg5
I0
ssS'd78f585a6beab69c31ddebb86048d1a357f4bdd8'
p10
(dp11
g4
I1
sg5
I1
ssS'56a5c730609b9d8ac4ec4303448ae79c7443216e'
p12
(dp13
g4
I8
sg5
I6
ssS'725b5f5fb8d398d388b76eed13c9e0c3519d5139'
p14
(dp15
g4
I12
sg5
I2
ssS'70262c730450b28e07d3543c1a6d48c13cd7ea1e'
p16
(dp17
g4
I0
sg5
I0
ssS'7ba8c59124984d71123a5dda8cce3ed18cf4c96f'
p18
(dp19
g4
I0
sg5
I0
ssS'36990a68ed513f9798f89444952df17425ebf1da'
p20
(dp21
g4
I0
sg5
I0
ssS'5d0fc1182f6d9826764cc43ade99bc5e5a81c711'
p22
(dp23
g4
I45
sg5
I43
ssS'136ac665894e4d00ecb7481b8cfc704074a303d4'
p24
(dp25
g4
I7
sg5
I0
ssS'29e9ff2188c0047d4ea1ac1c08b69fe2a6afabfc'
p26
(dp27
g4
I0
sg5
I0
ssS'45d7967ff0630de1c88e2de12fd59fde40eb0dec'
p28
(dp29
g4
I0
sg5
I0
ssS'6c0c7914f3a57823834b1be492b307992f943629'
p30
(dp31
g4
I35
sg5
I0
ssS'311b57cc25a56d337be785af8f993b1ea4021fa5'
p32
(dp33
g4
I0
sg5
I0
ssS'f8505ef5201f1c3133e4947109d156defabebee6'
p34
(dp35
g4
I96
sg5
I1
ssS'48f895420b67e0e260deca8b17bc3a4c0bf688c3'
p36
(dp37
g4
I8
sg5
I0
ssS'ae21c1f92aed9f6d0e589cafe3dcdc86fe692d6b'
p38
(dp39
g4
I1
sg5
I1
ssS'8cfd533955b17ced400739018d375dacb4e1b9e3'
p40
(dp41
g4
I4
sg5
I3
ssS'f0bbc526065ff88eaa431163d8d7c1f72694221b'
p42
(dp43
g4
I0
sg5
I0
ssS'e3b93c2d71cca7926ebe93071ef91d03109ee07c'
p44
(dp45
g4
I0
sg5
I1
ssS'abf6bd5e9c413ad7f538f86604c0d1c29494882e'
p46
(dp47
g4
I22
sg5
I0
ssS'14061935013ae20f58995dd2918c009166010bbc'
p48
(dp49
g4
I2
sg5
I2
ssS'43124ab671f73e33a6a5f608dcb4afd997619a8f'
p50
(dp51
g4
I252
sg5
I74
ssS'809553ccb71f5c046454e5ce2ac90ab0757729f0'
p52
(dp53
g4
I199
sg5
I66
ssS'76bc671637e65a87a81b7f95f256adec2e4fdfc4'
p54
(dp55
g4
I1
sg5
I0
ssS'077b4a0516e6975d0ef732262fb8f313f7371094'
p56
(dp57
g4
I63
sg5
I10
ssS'd73e7d7830c7f74628fe764c3e9688584631705e'
p58
(dp59
g4
I23
sg5
I3
ssS'c7fef5c569b3337eb4936b540048e7720dafb5d8'
p60
(dp61
g4
I31
sg5
I4
ssS'6817f4fb527bd423b16ce16d91ad4af30538f6b5'
p62
(dp63
g4
I29
sg5
I8
ssS'1c900c97d6f713244430856404b7ca7163f9c682'
p64
(dp65
g4
I751
sg5
I0
ssS'372b686b8a24aae94101e56a9c042813ef23971e'
p66
(dp67
g4
I1
sg5
I1
ssS'9c690b3904e68111bb39cf3e89e6914b09d5e6d2'
p68
(dp69
g4
I0
sg5
I0
ssS'2162c44e489bcfb19503e9e50fe334f16ca4b0c0'
p70
(dp71
g4
I0
sg5
I0
ssS'4149010e856fcd03ae7833d66953c130898122cc'
p72
(dp73
g4
I18
sg5
I16
ssS'87c9a49ec3ad4793c9ef89a5216f363bf56752e0'
p74
(dp75
g4
I1
sg5
I0
ssS'd17fa0ef84b769bf48faab57cb00456e4e1a7e53'
p76
(dp77
g4
I29
sg5
I16
ssS'bf0241bc62f46badd4a0e55f820c0b95cad29ad3'
p78
(dp79
g4
I7
sg5
I7
ssS'd11ebfb8fc6290feb799fb2798f2d541fa95e67e'
p80
(dp81
g4
I9
sg5
I9
ssS'd42e8154b1a970ea921d0368bd4711d79ec44759'
p82
(dp83
g4
I5
sg5
I0
ssS'7f6b324167c0a3f9b9c81b8a0ab73611fe1cbcde'
p84
(dp85
g4
I0
sg5
I0
ssS'04631866c058defb480462db1ec13cb7f88780a9'
p86
(dp87
g4
I1
sg5
I1
ssS'b464ebd8c2bdbefdff26c516f86f2659dfd4319c'
p88
(dp89
g4
I13
sg5
I3
ssS'8e4d757e9c041173686d1e55120ba77957f3e5f2'
p90
(dp91
g4
I0
sg5
I0
ssS'd06f0174e275723b8b68b26d98140cb997daf2c9'
p92
(dp93
g4
I1
sg5
I0
ssS'4ed94f7fac84c69b799f475444729320aa7888be'
p94
(dp95
g4
I5
sg5
I3
ssS'f30123a4705730e686bc9ae9284f3cb22d63ff84'
p96
(dp97
g4
I17
sg5
I4
ssS'c00a194e2986e75da4acf05ec413ab21cb6d46da'
p98
(dp99
g4
I0
sg5
I0
ssS'4cc868b45ef7291dba89162551754c0be8a2baf9'
p100
(dp101
g4
I4
sg5
I3
ssS'b85f89ac3379ff720acaeca2a79ea5ae6ebba5e9'
p102
(dp103
g4
I27
sg5
I13
ssS'8d217d0b1f3ec3772e20c8847050278eccaa10b1'
p104
(dp105
g4
I6
sg5
I1
ssS'e569fc16ed65a2bfe50061a58f21579025eff3c3'
p106
(dp107
g4
I9
sg5
I5
ssS'e4412ff713a393c7c1cea71b2c0158b366498fdd'
p108
(dp109
g4
I13
sg5
I1
ssS'db080371893e0b5d94c01983340e1fc12bfc9e38'
p110
(dp111
g4
I5
sg5
I6
ssS'792efda9e8f9372c1db4981f7d3ec29b1fd9f602'
p112
(dp113
g4
I7
sg5
I0
ssS'2bcb8754980d7eb54ba12a34ead1694baa12340b'
p114
(dp115
g4
I1
sg5
I1
ssS'9c2a6dadcf54142c378677ae38d6833e397ae21b'
p116
(dp117
g4
I1
sg5
I1
ssS'16566e35a535edf99b1d2dd5fcf4386b85c4a414'
p118
(dp119
g4
I11
sg5
I0
ssS'e720baf5b38fe722dfa19b76d0ebbb4d5fbb20ec'
p120
(dp121
g4
I16
sg5
I5
ssS'f2d2eadc6ff07fd9d8fc83d144ccc1e82b5480c2'
p122
(dp123
g4
I5
sg5
I2
ssS'06c0bd8e2deb7c9c2e4c5d7874bc94c90e334d4d'
p124
(dp125
g4
I3
sg5
I3
ssS'52d26568d1221baab3a4d759819d43f3cd10f9b1'
p126
(dp127
g4
I8
sg5
I7
ssS'281e2773b18051b0091a62780c0387a98c99660a'
p128
(dp129
g4
I18
sg5
I0
ssS'28cf20b3ad64b568bff8507ea68a231651bd132e'
p130
(dp131
g4
I51
sg5
I123
ssS'4ea5db5724bf71d84d27f4c68f177129bac1c637'
p132
(dp133
g4
I2
sg5
I2
ssS'4e2bbbdd5127e6980290739dc0e6f3f2b6459196'
p134
(dp135
g4
I1
sg5
I3
ssS'949c3c9ed6caabd69909400a16c6a93647fcc1eb'
p136
(dp137
g4
I1
sg5
I1
ssS'7fe3e1952363ae6771338eaa841edac166620a45'
p138
(dp139
g4
I22
sg5
I4
ssS'f4e0df9bf7e080d9cce750cab73a3254abd4b7ea'
p140
(dp141
g4
I0
sg5
I0
ssS'5f76b1485649278d690c1ab35a5237ad33b128c2'
p142
(dp143
g4
I1
sg5
I0
ssS'056e7ce13de4de913af8617891dc92e0ea43c669'
p144
(dp145
g4
I22
sg5
I1
ssS'b7933f3572efaf5c4e4f50ff4cdaa14a931e4398'
p146
(dp147
g4
I0
sg5
I0
ssS'3eb6fe934c8c8d6c34e22b4e4fc1bd01d0266df6'
p148
(dp149
g4
I5
sg5
I1
ssS'ff712701d78a1b19db786ad02cd5da06c592e033'
p150
(dp151
g4
I0
sg5
I0
ssS'0144e370874e8525b955eb007a90c205e5df7559'
p152
(dp153
g4
I185
sg5
I0
ssS'200055490ad0dae5f5618df0f090cbaa08d844c9'
p154
(dp155
g4
I1
sg5
I1
ssS'0b0662708d4b27df01e78d076f7f7a482c3c5289'
p156
(dp157
g4
I14
sg5
I14
ssS'dc59824a012b4ad594d732d4e97c33df83db92a4'
p158
(dp159
g4
I0
sg5
I1
ssS'26aaa5ebb316e5941bead47eebe26349d894df13'
p160
(dp161
g4
I14
sg5
I2
ssS'd63df53bdf861088a06b7fbad1a2c65d107af843'
p162
(dp163
g4
I0
sg5
I100
ssS'd95ac2781af9b0c3f5348898093fd4a81c20b88b'
p164
(dp165
g4
I5
sg5
I4
ssS'd1e2b1df73eaeebafaab0b03262e3e1375f81749'
p166
(dp167
g4
I10
sg5
I10
ssS'bf7e0d21af2199eae5f445fa13a1d30d1a0bc494'
p168
(dp169
g4
I7
sg5
I0
ssS'dc2204572a29762ff1cce7e565406be6c4843200'
p170
(dp171
g4
I18
sg5
I18
ssS'3ac2b61395f4e9489aa4ee8cc46ef68ef9ac9082'
p172
(dp173
g4
I5
sg5
I4
ssS'88e8b1ae28cbaeb69bc76830a2f2ba3c9562c5c5'
p174
(dp175
g4
I47
sg5
I4
ssS'd9cc719f0f652535a38f9fdd2cc09fcace4a6412'
p176
(dp177
g4
I0
sg5
I0
ssS'fbd7d0b24086d99484375ea02a56a8181dbf436d'
p178
(dp179
g4
I0
sg5
I0
ssS'3afd5cd84ee21312b0081850f7f4895c95bb121d'
p180
(dp181
g4
I17
sg5
I2
ssS'2361afa930088ada30197d1817e0d14a8b8d05fc'
p182
(dp183
g4
I16
sg5
I6
ssS'c78f698f6bf4f025a33ed9bb4f27b8d76bf41ebf'
p184
(dp185
g4
I144
sg5
I0
ssS'3c5c90d5a1773fd3ebe6520d18284d7635227f1d'
p186
(dp187
g4
I2
sg5
I0
ssS'b79af6537675a897026ed9fec06e6f2dc8203ddb'
p188
(dp189
g4
I0
sg5
I0
ssS'0a21ddfcdd0bfc108d7225d3074d58141259f519'
p190
(dp191
g4
I13
sg5
I2
ssS'815bc0c1c4e68553386f81b109db95d28c94f991'
p192
(dp193
g4
I28
sg5
I0
ssS'373c3eed55bf4125d2442c791265c967820511a5'
p194
(dp195
g4
I0
sg5
I4
ssS'69ec1ab5698e1f8530615f7900f74ddf21aee183'
p196
(dp197
g4
I60
sg5
I72
ssS'22a5747998c3e359ac5186426045a1696e228f8c'
p198
(dp199
g4
I1
sg5
I1
ssS'f02e5dffcab398b0f525d71e61ec4d90f9d80b81'
p200
(dp201
g4
I52
sg5
I12
ssS'13215507f611abc3409d57e3910787bcf3b297c2'
p202
(dp203
g4
I10
sg5
I13
ssS'40952892042c85d08107c009f77790b823fcad3c'
p204
(dp205
g4
I1
sg5
I1
ssS'a81ca125536354a1007394c7525ec267392d9361'
p206
(dp207
g4
I28
sg5
I1
ssS'008ebbdebd4c3a0f584ea45007e2581ac71606c2'
p208
(dp209
g4
I0
sg5
I0
ssS'b9ef07ca18ec56ef8dfe24344c81ef1ba3a59e34'
p210
(dp211
g4
I4
sg5
I2
ssS'2cfecffef0e597bae2aaf8ca5deff95def75ddd5'
p212
(dp213
g4
I1
sg5
I0
ssS'3865fa8ec208fb927615530854348d414a3cc1a4'
p214
(dp215
g4
I1
sg5
I0
ssS'0f740d0989ab16c182e8303a711d9eb488331673'
p216
(dp217
g4
I51
sg5
I3
ssS'36b2094cfad9e3e11e12b78b5d2252d419082ad4'
p218
(dp219
g4
I1
sg5
I1
ssS'fa1553381e23ff518c9c14029b31a04a040e7f49'
p220
(dp221
g4
I0
sg5
I0
ssS'92fbec1c1fee53bfd409e95c6294acb2a0938445'
p222
(dp223
g4
I2
sg5
I0
ssS'5b8aa2d3762d5f800a1db3d07f15702cb007c7e9'
p224
(dp225
g4
I0
sg5
I0
ssS'8470e680262a0ed84b7858d2184d310c7b958e46'
p226
(dp227
g4
I5
sg5
I3
ssS'5e429e8e4af20872fd5dd559856fa0ee082c16c1'
p228
(dp229
g4
I3
sg5
I1
ssS'79722b2aa0b191db4a345ce29095b70d92ded140'
p230
(dp231
g4
I6
sg5
I1
ssS'c49028af26b89ebdc08a72d3cebbf553fa0ddef6'
p232
(dp233
g4
I9
sg5
I0
ssS'e0087a0297c152829a7b651e1174382349bb9866'
p234
(dp235
g4
I16
sg5
I0
ssS'9b264d1efde3800bcc0258f805ab7affd081ffcb'
p236
(dp237
g4
I7
sg5
I0
ssS'5c05aa0fe0d9277acf557eb243c8164c8695a391'
p238
(dp239
g4
I33
sg5
I24
ssS'f4d0d00559a50f84fdd55d7a32a223e956957d53'
p240
(dp241
g4
I7
sg5
I2
ssS'cd12e007d14786899af299505a6d86037d50a53c'
p242
(dp243
g4
I0
sg5
I0
ssS'59e4b5f0ded7733ac36d3be81e859c324e4df781'
p244
(dp245
g4
I88
sg5
I55
ssS'1edaaf2f5e92744e4fd06c908e507a47279b3db9'
p246
(dp247
g4
I104
sg5
I210
ssS'8d35dc007fea413b37ec96e90a6380746ec39773'
p248
(dp249
g4
I12
sg5
I2
ssS'6eca23db3492411f139ba405195d8b19e5052418'
p250
(dp251
g4
I1
sg5
I1
ssS'8b0c466084e4f901f37ae310f3f19c4034a4c29b'
p252
(dp253
g4
I15
sg5
I2
ssS'a950f0880fa77fd80020769a5ff3f7e52b7a8b89'
p254
(dp255
g4
I8
sg5
I6
ssS'33c16251ec6bbd45c962263f7f4fbc7548e47704'
p256
(dp257
g4
I9
sg5
I11
ssS'c5bcd193140a1a1493277383794742ccec3d2c60'
p258
(dp259
g4
I0
sg5
I0
ssS'f46f5063567a8152a6fbb851a0f809f83157ba19'
p260
(dp261
g4
I0
sg5
I2
ssS'308dfd1ec9988feeb2f3af94e8a2e4d8480324f6'
p262
(dp263
g4
I1
sg5
I1
ssS'bdce5a2eb548a208e100318afbee951a17942fa8'
p264
(dp265
g4
I0
sg5
I0
ssS'8f055a33055e6902c1ec004386a740ac6bea6885'
p266
(dp267
g4
I3
sg5
I3
ssS'a5799fd8671e5a1c2922dcc434c886fc370b46c1'
p268
(dp269
g4
I1
sg5
I1
ssS'd98d067bd807cbe5a1d3067f57397909e387618b'
p270
(dp271
g4
I5
sg5
I5
ssS'441433c01319e4992de6d32067f5e68363512229'
p272
(dp273
g4
I9
sg5
I1
ssS'c4a6c31ba9748947462e8e31e106215cca1d3cc9'
p274
(dp275
g4
I53
sg5
I62
ssS'82fca5b2cb8fe647b565bbbe9dc5f36fb69f127d'
p276
(dp277
g4
I45
sg5
I8
ssS'cd14e3db53a1c04e7b61f175845bd1bbe40c79b6'
p278
(dp279
g4
I0
sg5
I0
ssS'816de0a43da21f1eef0376e769cbb86572aa743f'
p280
(dp281
g4
I5
sg5
I2
ssS'8949286bf9ba266830d20de913019fa158491617'
p282
(dp283
g4
I0
sg5
I0
ssS'0e7040ac579d9a657571bebc2ca8ebd5eec20ca6'
p284
(dp285
g4
I31
sg5
I0
ssS'c8111dd716a22f43fa05a103459a66aad7e8782d'
p286
(dp287
g4
I0
sg5
I0
ssS'012fbbebcdafa28340ecaf5addb5c1b9da30057b'
p288
(dp289
g4
I123
sg5
I1
ssS'4d74b697df3c54bce315e1d404b3f7ad4123be99'
p290
(dp291
g4
I3
sg5
I3
ssS'1a972155fe1e678f44e08e7a355e87160d789160'
p292
(dp293
g4
I188
sg5
I0
ssS'1851681fe31e06381f7d311864676c2e8585eaf8'
p294
(dp295
g4
I27
sg5
I0
ssS'bad28ca4dbfdc8eb0b7e1615e91a0381755a7e3e'
p296
(dp297
g4
I0
sg5
I0
ssS'02ff18492bd147aaaea6b57b7c698536433561fd'
p298
(dp299
g4
I27
sg5
I41
ssS'222b9ffc922c957608b27bb5081ea88cfc3d0be7'
p300
(dp301
g4
I16
sg5
I4
ssS'f90a3bdb79bef5a39322c4d04c1055683ddcc15d'
p302
(dp303
g4
I1
sg5
I1
ssS'6c0c76c98e740b62b9dd55cf14a263a35b9f1909'
p304
(dp305
g4
I12
sg5
I4
ssS'fc2cd9a64580d00d49d309296f8691ed0c817ace'
p306
(dp307
g4
I2
sg5
I1
ssS'3c5045cad694ceb767fd2fee2e2bee0144ffa078'
p308
(dp309
g4
I2
sg5
I2
ssS'233cb685c6ae4820ad7c63c9611753139c50fa19'
p310
(dp311
g4
I0
sg5
I0
ssS'f8eaaaad57e8e3430cb45304f1e749f3ae6f8620'
p312
(dp313
g4
I0
sg5
I0
ssS'e2db7dd548dc286001e1fc9f43caef1501d2c926'
p314
(dp315
g4
I84
sg5
I50
ssS'c287c87a102b95d4636b5ea3ebac2d1332513dfd'
p316
(dp317
g4
I6
sg5
I3
ssS'652560b2a4dff97607d04a204d119af17ecd50e9'
p318
(dp319
g4
I66
sg5
I31
ssS'96dc15143ef3baff66231711d33f4d5c6eb94f7b'
p320
(dp321
g4
I0
sg5
I0
ssS'9ffb9eb998ad3e90f5ddbe522eecbe8ec78ab2ec'
p322
(dp323
g4
I13
sg5
I0
ssS'41576dbcd659dc09a042191d41f460f138b96102'
p324
(dp325
g4
I6
sg5
I4
ssS'4d26eb92e9a1f568bd7667fc857b83d47a372708'
p326
(dp327
g4
I0
sg5
I0
ssS'ff4c9399172d19434c6cdd46932f4195a71742fb'
p328
(dp329
g4
I4
sg5
I3
ssS'cc8eae16cf91c800a512dda595313f0570b85643'
p330
(dp331
g4
I0
sg5
I6
ssS'eb21a83e624ff32195ec81cedec9e45b9b9d00e1'
p332
(dp333
g4
I5
sg5
I4
ssS'ca848a242257507074d272cb72c77a4b078cbc0b'
p334
(dp335
g4
I1
sg5
I1
ssS'4335dedcd393318421b51f523308cd162fd7595a'
p336
(dp337
g4
I1
sg5
I5
ssS'8c8e8b9ea1363302b2f41a7b6dcd76536d0a593b'
p338
(dp339
g4
I5
sg5
I2
ssS'5806535de38a552fd0bb68af928cd19a9e8727bd'
p340
(dp341
g4
I0
sg5
I0
ssS'29406ee09b7d1f9d4c4967492dbce9cb22bcc1cf'
p342
(dp343
g4
I4
sg5
I3
ssS'c8cb12879f600b1af3eefeece95e91d5bddc62c0'
p344
(dp345
g4
I1
sg5
I1
ssS'20e71a41edc1a632d9437ca927ea0d3b0535c7f9'
p346
(dp347
g4
I3
sg5
I1
ssS'28f5b265f782d07e6052f2e2be49d4b0e7208188'
p348
(dp349
g4
I7
sg5
I4
ssS'e84bd3e859bbc34bcad6591da9faf1cfb16a954f'
p350
(dp351
g4
I8
sg5
I8
ssS'ac4e62ef9b4a045c4dcea72f80be32090726db66'
p352
(dp353
g4
I129
sg5
I6
ssS'8a5c7d2745dccf465e843b0330fcecfd1a23fec1'
p354
(dp355
g4
I13
sg5
I2
ssS'f60d82a170beb1682f96a2df51be5de9e7db05c0'
p356
(dp357
g4
I31
sg5
I7
ssS'6c14274ca7260c4eb849495d87a4c9f0d61daf53'
p358
(dp359
g4
I243
sg5
I73
ssS'483c0ec464476cc2f7dc888211c3c7f077e25728'
p360
(dp361
g4
I0
sg5
I0
ssS'e590d27c2d48a02afe90688aab783d2fe587f62e'
p362
(dp363
g4
I15
sg5
I15
ssS'f9a20798d035ab60083e99c4f2540cb2d4ef9a34'
p364
(dp365
g4
I0
sg5
I0
ssS'70dd283be31ae02284bcf16fcd29385bbf917bee'
p366
(dp367
g4
I0
sg5
I0
ssS'3c8278c779f7e46b7fa85137d6831a39898ca24c'
p368
(dp369
g4
I0
sg5
I0
ssS'ea46de4a09b07ba9d2a53b66bcfea614c821edde'
p370
(dp371
g4
I20
sg5
I20
ssS'10952e0226666bd6d408346a2295667f72f6eb56'
p372
(dp373
g4
I158
sg5
I8
ssS'b3def8903cbc303fa8fd7b8ac495c890e80f75b3'
p374
(dp375
g4
I0
sg5
I0
ssS'd0a59bd8a4fbb44f2ad0218becfbccf49d91cb4d'
p376
(dp377
g4
I57
sg5
I68
ssS'6302b1f66378ff54b9899803fefa598e3c19570a'
p378
(dp379
g4
I17
sg5
I11
ssS'5935e5de29d1162ed83b7cab7aa1de5e4258d203'
p380
(dp381
g4
I155
sg5
I0
ssS'cb69a9b3e2ce944fa17f14b232a5d285fcac42d5'
p382
(dp383
g4
I1
sg5
I13
ssS'c9393ce3fb370af303afe741ce61ee1f73a17833'
p384
(dp385
g4
I1
sg5
I1
ssS'8f6f6c3fcd734119caba4539da70a9ba798f3cf7'
p386
(dp387
g4
I1
sg5
I1
ssS'dc8aa1f60b93c120d9594c00b250cb0d95edc7b2'
p388
(dp389
g4
I1
sg5
I1
ssS'21cbb8f711cb7ba71ef0c5706ff37c595d2d7cbd'
p390
(dp391
g4
I273
sg5
I0
ssS'b3d9c8a1e5c618a0f16e8c1e485df4f19b085c9b'
p392
(dp393
g4
I0
sg5
I0
ssS'ea106971af90556e5c682e0a367314111f7f0162'
p394
(dp395
g4
I111
sg5
I23
ssS'989606369bd8716c97aad7c94543344f4072e7d5'
p396
(dp397
g4
I57
sg5
I31
ssS'91e964cb74ff2c6b10e77430a21b4b4b906aee62'
p398
(dp399
g4
I10
sg5
I10
ssS'fad6f859f3f4df691df7bea308d4aba50a78ffec'
p400
(dp401
g4
I60
sg5
I52
ssS'a7cc9b7fdc40984d60ad523ab7c315230cbcdac4'
p402
(dp403
g4
I1
sg5
I4
ssS'40243cadced83b6e9efe6db5d3b5766f2175105a'
p404
(dp405
g4
I1
sg5
I1
ssS'3d73326d4956fdf0bb8342df87c66fd13e217836'
p406
(dp407
g4
I0
sg5
I0
ssS'ef2d1f4518e9d701ab0dfcce1221c701e145af3d'
p408
(dp409
g4
I2
sg5
I0
ssS'4ca52e6c64a31bb245ab7c476ef84a01e5563f79'
p410
(dp411
g4
I0
sg5
I0
ssS'361d306d11efedaa63b281d2e87b25f54ef91b38'
p412
(dp413
g4
I21
sg5
I5
ssS'f2b165cead46060cf1f60e89dc0e893136a5e2af'
p414
(dp415
g4
I1
sg5
I4
ssS'15800cce3f5f4174f0c33e2cc6383e6bea15d0cb'
p416
(dp417
g4
I98
sg5
I98
ssS'55679cadef0c784317bc571b3a2d593ad6a3687a'
p418
(dp419
g4
I2
sg5
I1
ssS'8fcceae9ef2d6e3c0cdf38b12ac71bc538dd6432'
p420
(dp421
g4
I0
sg5
I0
ssS'77a4bf2fb595e79bb24d8173c69b8886e852fe33'
p422
(dp423
g4
I1
sg5
I1
ssS'bbc9b046899099f2935fd4f1a978e32cdc537ea0'
p424
(dp425
g4
I0
sg5
I0
ssS'201f9f00ff176c6105142d63b33c85127983b011'
p426
(dp427
g4
I0
sg5
I0
ssS'08970a85b516fc98d8a67518d33698528deb2512'
p428
(dp429
g4
I0
sg5
I0
ssS'68896d81b70ed09d47d31c96bf0afa074af587db'
p430
(dp431
g4
I5
sg5
I5
ssS'cb74fd7fd2b2d4c899b5c001539912cf1c852858'
p432
(dp433
g4
I2
sg5
I2
ssS'9a8f73d2dd088d5ea01313de2a1fe5a877994a79'
p434
(dp435
g4
I150
sg5
I18
ssS'15d98b0122db2c552d428eacbd38124a2b7e8675'
p436
(dp437
g4
I6
sg5
I2
ssS'9c66fc2a13ab0cb442ef1b340295e05c85b6b78a'
p438
(dp439
g4
I1
sg5
I1
ssS'cb1598ba6ff147a55ab8a0e7ff7eaf90c7885a35'
p440
(dp441
g4
I9
sg5
I9
ssS'cc3b3abfcd3a2509031b9f8bf92e8bfe6367a9aa'
p442
(dp443
g4
I0
sg5
I0
ssS'1e36ed9a9d18c8f97df61975fb4f91fb2affa276'
p444
(dp445
g4
I2
sg5
I2
ssS'16cd3b255b2c86ec7da412357cad899c72d8dbf7'
p446
(dp447
g4
I0
sg5
I0
ssS'f6304e22ae3f8e4a3f9431a6e4455c90b4e2de0a'
p448
(dp449
g4
I1
sg5
I1
ssS'fa0b63cfaced831d8b916c5a125128f582acf044'
p450
(dp451
g4
I1
sg5
I1
ssS'3fa3c3d901fbc23aa1413e2488ccc66fa5a05f46'
p452
(dp453
g4
I0
sg5
I0
ssS'e4690650b63c5e1fb3e5dfb63319b51498bcc119'
p454
(dp455
g4
I1
sg5
I0
ssS'6ffcc4f2ae6b66e42c1f58b6de634fe969b473a0'
p456
(dp457
g4
I0
sg5
I0
ssS'2c903c4fc0f11a11c92262719612fce165f91c11'
p458
(dp459
g4
I6
sg5
I5
ssS'939b05f185958723f833dcbc707a066bf3359c7e'
p460
(dp461
g4
I1
sg5
I1
ssS'28fe4c9567f7386afc2662e78e4060c6900fd5ae'
p462
(dp463
g4
I0
sg5
I0
ssS'd99ee9a8bcb8abf95a74c2fc39f78e072f43dd48'
p464
(dp465
g4
I61
sg5
I56
ssS'c2820c4e0883f4639ea5974d7447acebb7874a7a'
p466
(dp467
g4
I2
sg5
I1
ssS'4f3c81a194a725b7b9eea4ea6d9f663cf6b9c036'
p468
(dp469
g4
I1
sg5
I2
ssS'869356eb396409799ae34ff6243023aafc0150b3'
p470
(dp471
g4
I8
sg5
I2
ssS'a144769a9a44c85eb17774e7a513ffc5a92a354d'
p472
(dp473
g4
I0
sg5
I0
ssS'e94439bf0f327d2b434ae479a296323e38bc2435'
p474
(dp475
g4
I54
sg5
I74
ssS'6450527b935bb9167d550a220b9c9839302bca74'
p476
(dp477
g4
I0
sg5
I0
ssS'be58b2b415342461bbdc026bca89a39a3a5effbc'
p478
(dp479
g4
I0
sg5
I0
ssS'7987f6de95614fe48090a8030bd63bbf28a7a521'
p480
(dp481
g4
I3
sg5
I1
ssS'456d85faf277b130a8710a5744e04b13caa72747'
p482
(dp483
g4
I0
sg5
I0
ssS'b63590317fc353da5e39ec9eef9a1494eddb925e'
p484
(dp485
g4
I36
sg5
I0
ssS'79ee3f7e6a8dd74c9745c0bc39c619488fa9f7d0'
p486
(dp487
g4
I0
sg5
I0
ssS'a12625ad9aa6d6a177d3d788f7014385f7a6d83d'
p488
(dp489
g4
I0
sg5
I0
ssS'1bf095711b4eff0ebec22855f586027fd5479372'
p490
(dp491
g4
I35
sg5
I1
ssS'3cf2da98d1f50d23e2e5e7c27d4d94441f9b3c5c'
p492
(dp493
g4
I0
sg5
I0
ssS'229b2f78b545b8fb8fb3d879c278d8cecc91c7a4'
p494
(dp495
g4
I0
sg5
I0
ssS'b23769421219a6af46113572965ddda63c373679'
p496
(dp497
g4
I3
sg5
I2
ssS'd47df02105a9454c0b603d1865fa82b22d001286'
p498
(dp499
g4
I0
sg5
I0
ssS'd19bfa61d11afb32654dca471991eccf0a24f78d'
p500
(dp501
g4
I0
sg5
I126
ssS'208ed69acb602d23e59e0c759fb6479bd7d0e53b'
p502
(dp503
g4
I172
sg5
I167
ssS'14215244249f2d8df73ec47dbab5db1efd0fc2f4'
p504
(dp505
g4
I3
sg5
I0
ssS'79824fd90dbb0e9a68d4d602263f8950f308ad15'
p506
(dp507
g4
I1
sg5
I1
ssS'6cc32aaae5c97e36e32c04232e1135e1e82a0177'
p508
(dp509
g4
I0
sg5
I0
ssS'0bd355c057d99e2df57483519e49198c086c38c1'
p510
(dp511
g4
I48
sg5
I61
ssS'79214fe20e9c37b7ef64e6bea7354a9bd0ab2fd0'
p512
(dp513
g4
I0
sg5
I0
ssS'1cebe76d272e289b8922a427d99418948c7a478d'
p514
(dp515
g4
I0
sg5
I0
ssS'8f57459fbbab1f317d5475f31f90b1a75016a2a8'
p516
(dp517
g4
I1
sg5
I1
ssS'4e1248bbc3af81cdb70433d5d6aaca085769a8bf'
p518
(dp519
g4
I0
sg5
I21
ssS'43887add3a7bdccfdc5af9bde43559101cd3ed02'
p520
(dp521
g4
I5
sg5
I1
ssS'd46e37f1de5b716a2f12c23635cd60b383ac20ac'
p522
(dp523
g4
I3
sg5
I2
ssS'6290435070bd7b27c3e7c52c0cb22fb454ad452f'
p524
(dp525
g4
I54
sg5
I0
ssS'7a775552f546eae024027a3521aadaa01783f973'
p526
(dp527
g4
I11
sg5
I1
ssS'a4b6dfc1693879bfcc8f8d841327a89ad499197a'
p528
(dp529
g4
I1
sg5
I1
ssS'9da6a06fd586dded554923493ded1340f2cdd22a'
p530
(dp531
g4
I3
sg5
I3
ssS'42a00c8996cb9770c175e01929720d0bc1a611cf'
p532
(dp533
g4
I0
sg5
I0
ssS'28f1d3bb1a406b3f45f6cf2f1ccce96e2b31c489'
p534
(dp535
g4
I0
sg5
I0
ssS'51675237c410b413a11091926436420493c52866'
p536
(dp537
g4
I12
sg5
I1
ssS'0d2a7755a7ce0b1c981bd79de20e6aec0018856b'
p538
(dp539
g4
I1
sg5
I1
ssS'dae2c64b66c530e50c0a15bdd6cab072c733af85'
p540
(dp541
g4
I6
sg5
I14
ssS'66260fab4a9bd81ba9e74323147bad3f25ddcd56'
p542
(dp543
g4
I4
sg5
I4
ssS'0c38a6a17405166a15d886b4f1a04600e704d71a'
p544
(dp545
g4
I30
sg5
I3
ssS'f6671c5850fb491b20c244369a16538d8b4f3676'
p546
(dp547
g4
I0
sg5
I0
ssS'03cb39d506d2698f2c3179eddc5a1a60d2b0589f'
p548
(dp549
g4
I0
sg5
I0
ssS'785fe3cd04560d81331c6a7cbac6b6a95e85118f'
p550
(dp551
g4
I4
sg5
I2
ssS'3c85c60eaaaf731f7b0d0e2e8cd6e580da6c3afa'
p552
(dp553
g4
I15
sg5
I1
ssS'539558a02edbadb8d6ef690fb0beb2510a5eeb17'
p554
(dp555
g4
I18
sg5
I1
ssS'd38502160d0f455575bec354a2e303221086bfac'
p556
(dp557
g4
I11
sg5
I0
ssS'3bac2e23d0fed1a0f0ffa9b0d9f5fb9e174e6e51'
p558
(dp559
g4
I0
sg5
I0
ssS'3983c7ef39503a14ffa029fa48a0a4301ba7d89c'
p560
(dp561
g4
I20
sg5
I0
ssS'29c30f822eed4a84752a6a2dfa39bf981ed9c8e8'
p562
(dp563
g4
I0
sg5
I0
ssS'967b6c425a7b9572753bf451e1e4b5fe535c2566'
p564
(dp565
g4
I8
sg5
I8
ssS'e7b1816a253bf1a59b08a3d60ea36514ad2199dd'
p566
(dp567
g4
I52
sg5
I49
ssS'4297a7e3db43b5bf293537964e0f51332dcb181f'
p568
(dp569
g4
I1
sg5
I1
ssS'dab8f8b409959135721d6f0d9b94459bbd472290'
p570
(dp571
g4
I0
sg5
I0
ssS'a14ed9f0ba3b6d602cbe5c4bba17bfd240cfbbf0'
p572
(dp573
g4
I1
sg5
I1
ssS'bd3dcb88fb957bfa3e43409af8b59245e88d2163'
p574
(dp575
g4
I2
sg5
I4
ssS'f538ea8f87947d7c1543a8c0fcea5b0242a12ab6'
p576
(dp577
g4
I179
sg5
I146
ssS'f7166ce83d85fd6f34eaa8856c5cacb8cb6db464'
p578
(dp579
g4
I0
sg5
I0
ssS'ac17bd97ce8eb418cfd1e28af7286bb04e14be13'
p580
(dp581
g4
I0
sg5
I0
ssS'615b8136f3488319222a43ca55d40854d6cd8fd1'
p582
(dp583
g4
I15
sg5
I7
ssS'1cc0df53c217107341fc9b9234311c919c2d9246'
p584
(dp585
g4
I0
sg5
I0
ssS'028720698e17a61b975acced53fad31e569fe41c'
p586
(dp587
g4
I1
sg5
I1
ssS'cd8d0ab8b43cb12f4de96767eae694842e6fbceb'
p588
(dp589
g4
I1
sg5
I4
ssS'146cccff5131dc3a6f7de95faa286c4cb4ef2385'
p590
(dp591
g4
I3
sg5
I3
ssS'a428b2e64af8c2b48e6ad413b1f0c60a1e0708c9'
p592
(dp593
g4
I22
sg5
I12
ssS'824987fcf6421eca7f0d7fb1c44005e995a2267f'
p594
(dp595
g4
I0
sg5
I0
ssS'def8c87c7e41b9d83acf672387feb31cb37285e6'
p596
(dp597
g4
I21
sg5
I20
ssS'3f1008106e3dd7b3874e567a992093ed94e95428'
p598
(dp599
g4
I0
sg5
I0
ssS'3185028db1711b7c0bc1be1ab3ab9a0a9249469f'
p600
(dp601
g4
I0
sg5
I0
ssS'59ba874311931639c8161474c86a09da83296b7b'
p602
(dp603
g4
I1
sg5
I1
ssS'0b0705bf18b6451e8d1db3804c42f6ace1c3150c'
p604
(dp605
g4
I1
sg5
I1
ssS'e1eee129c074d0de411122d6e1f34a3533952615'
p606
(dp607
g4
I0
sg5
I0
ssS'e1191fa3a61b6c347e10dd35b166f2412a17e709'
p608
(dp609
g4
I0
sg5
I0
ssS'62435fcb0cbfb5a9b1578244da555f1c2fcdcbb7'
p610
(dp611
g4
I96
sg5
I62
ssS'457212b12a441d9b117d7ac8543869caeb5fd186'
p612
(dp613
g4
I5
sg5
I5
ssS'3ed13c7e3ce2b9d8e5e66776ceb6487c88303f7a'
p614
(dp615
g4
I2
sg5
I1
ssS'035d46c73ab7feb4719e4642dafc9bb21aa8bd2c'
p616
(dp617
g4
I51
sg5
I20
ssS'e89e18c784758988c858a87f5c19fb2bb6bbd771'
p618
(dp619
g4
I14
sg5
I5
ssS'00790328f3c6e28f49d193411d344703ad376ce7'
p620
(dp621
g4
I1
sg5
I0
ssS'cb1997081a873e59cf4f2e55d19246cb244a2a60'
p622
(dp623
g4
I1
sg5
I1
ssS'79edcf572ea1c7f038adb4085124c958541e7cd1'
p624
(dp625
g4
I0
sg5
I0
ssS'67369baee81dfbfb6d89dd8404da8c91f14ba209'
p626
(dp627
g4
I55
sg5
I0
ssS'7ecafcade8eaebc745f5b8aeec592b700cea04b2'
p628
(dp629
g4
I1
sg5
I1
ssS'c9b5b1ec3bb217caf24bb1bdf882a33541ac660f'
p630
(dp631
g4
I0
sg5
I0
ssS'd5315c19ccc3fdd4ba70b1c94a727e8573f3ad78'
p632
(dp633
g4
I0
sg5
I0
ssS'8faeb116ea0e3fe41675b9c9de9a175b53490948'
p634
(dp635
g4
I0
sg5
I0
ssS'a0b35de920fa6501b27fa877ed08a6f9473fb146'
p636
(dp637
g4
I229
sg5
I0
ssS'ec2e33f982ea0a8a73ba8b6a27093acad9b60f78'
p638
(dp639
g4
I2
sg5
I2
ssS'761ff80b48006250e285aae15347f49bf2cf8978'
p640
(dp641
g4
I0
sg5
I0
ssS'63d24136625d430a91778c521d5d5a90ba612fed'
p642
(dp643
g4
I1
sg5
I0
ssS'69ccf40329fdbae9353cae781df131886dfd1b45'
p644
(dp645
g4
I3
sg5
I1
ssS'908e51b6becf25e719a41eff1291ca39504411bf'
p646
(dp647
g4
I4
sg5
I4
ssS'90c70eefd39cdde705c1b741cdb5acdf35cf9d5a'
p648
(dp649
g4
I0
sg5
I0
ssS'5cdd8f7e4c8d8ac2adbc1639cbd1a83c3071f738'
p650
(dp651
g4
I0
sg5
I0
ssS'389a1b63686b50bfec7a732a2b38cf2d11caa9c4'
p652
(dp653
g4
I3
sg5
I3
ssS'e1af87fd6f520576f3547ce69224779a40ebd85a'
p654
(dp655
g4
I14
sg5
I5
ssS'90ca7103ccb49131367cfe87c9161a1641affb63'
p656
(dp657
g4
I10
sg5
I0
ssS'a66fe9800c7c7732491a213e1cacf7b82f2b1282'
p658
(dp659
g4
I0
sg5
I0
ssS'4902549a2a60973e1c8195f8ed7993ceedd9098d'
p660
(dp661
g4
I0
sg5
I0
ssS'6bb22001c85ea1b155d5dfcc680e210ac72dcf13'
p662
(dp663
g4
I0
sg5
I0
ssS'7d81b39d5df0206597a2baa107c4ce89e0a21a1b'
p664
(dp665
g4
I0
sg5
I0
ssS'2235b9732929acc2212ae55b9ac7eaeed161941c'
p666
(dp667
g4
I2
sg5
I0
ssS'c03d208c42b2d18b19b9020e2aaff5b1ee9b0556'
p668
(dp669
g4
I0
sg5
I17
ssS'0361b5dda0707f9ce36b55315004ffb86b09ab23'
p670
(dp671
g4
I5
sg5
I1
ssS'5f18bb11be7d627cc31e197fd137200846e3b009'
p672
(dp673
g4
I2
sg5
I2
ssS'46230575731178b69956debfd40371d26bbd3bf3'
p674
(dp675
g4
I1
sg5
I1
ssS'bc0602cf30623729813d535083556ae0ed5a4517'
p676
(dp677
g4
I0
sg5
I0
ssS'f76ada5e8223999e6fdcaa1cdb5055e3fb6ce750'
p678
(dp679
g4
I185
sg5
I185
ssS'a33c82e7be21429b5c376f2912a6a553cf87018b'
p680
(dp681
g4
I19
sg5
I12
ssS'93548975c1f51ff4b346b6c7975dd9e57223a5e4'
p682
(dp683
g4
I0
sg5
I17
ssS'433e1a1337f2a2a206da14636ef8e33158cd6895'
p684
(dp685
g4
I1
sg5
I1
ssS'e41bee876c32d11070cb6f4686e41fd78b2c5168'
p686
(dp687
g4
I179
sg5
I4
ssS'4ffd675db432f8d1f25c9e8112195f62b51caa93'
p688
(dp689
g4
I0
sg5
I2
ssS'09b79fec5943a4ca0ff635b7525c00c07cae40af'
p690
(dp691
g4
I62
sg5
I0
ssS'1a359904f43b1537fcbb9d4c802f657262e5196b'
p692
(dp693
g4
I7
sg5
I3
ssS'd2937b275f23d7cb9c555c61ceb69fbebeace2ae'
p694
(dp695
g4
I11
sg5
I0
ssS'43fb7f5bfb5fb1086d2d8ef1e57b77e84db24b45'
p696
(dp697
g4
I1
sg5
I1
ssS'3a30df69d19f56d1eeedcba9c0742186e85aac85'
p698
(dp699
g4
I852
sg5
I341
ssS'70879b5c79b0469d1015b225a82aa5598c84d5cb'
p700
(dp701
g4
I0
sg5
I0
ssS'03fcc49e15e40412fe4951df0195e8b739fd24f0'
p702
(dp703
g4
I1
sg5
I2
ssS'02ca2ebc36000740e109c4d9c3e7dd01e03c1c7e'
p704
(dp705
g4
I3
sg5
I0
ssS'b20951fc127fdd4dc37c315104798a758f0c671b'
p706
(dp707
g4
I1
sg5
I0
ssS'8437a24625aca5623b385aeba5e873f051871306'
p708
(dp709
g4
I85
sg5
I73
ssS'07b2c2bca9b7c0deb24a801841b373198b8a99bf'
p710
(dp711
g4
I4316
sg5
I2812
ssS'37bea19049497c820891c2ccbcce9c4b9dc0d7b9'
p712
(dp713
g4
I17
sg5
I0
ssS'20eb31952ecf858cf7ee395fc7749419f919f3c2'
p714
(dp715
g4
I2
sg5
I2
ssS'ed49cc13299995203a4083efa970ef5165eee7eb'
p716
(dp717
g4
I2
sg5
I2
ssS'5a85227295dbd7e23138acd921cc058206bb062c'
p718
(dp719
g4
I6
sg5
I1
ssS'a0b46daa7ce182fa46321e3576a02b80087788cf'
p720
(dp721
g4
I1
sg5
I1
ssS'd30cbfa0a528d6b69de530cc259fa44b0ad653be'
p722
(dp723
g4
I7
sg5
I2
ssS'3f5339e4a4a7400e4f9cd86f0a167d05282db999'
p724
(dp725
g4
I15
sg5
I2
ssS'1b9474a212fac1a673d38c85d59400a5190182fd'
p726
(dp727
g4
I1056
sg5
I99
ssS'377872a65060e78886ed5266f7582f3e0be28bb7'
p728
(dp729
g4
I3
sg5
I1
ssS'ae8b58e9ca65376a32b63df0186ed16c4ce96843'
p730
(dp731
g4
I122
sg5
I6
ssS'2dbedb93b63147d3abec13007792127a54fcbec8'
p732
(dp733
g4
I13
sg5
I8
ssS'76e8bc7eff107000849f7428e469c70801680e3f'
p734
(dp735
g4
I5
sg5
I3
ssS'e6c6ddb8fd25032d51a07623d549f310ded68fc8'
p736
(dp737
g4
I0
sg5
I0
ssS'e72ba57db094acb4b1fa206b0c3a082a0dac8d80'
p738
(dp739
g4
I216
sg5
I6
ssS'9ab832ce8a2694e08a2399d3d161bc3bedfb7a50'
p740
(dp741
g4
I0
sg5
I0
ssS'05061d81d6348d9066c530ad8174925cef142a83'
p742
(dp743
g4
I45
sg5
I29
ssS'4463ab62e6861c016a92417811c54a957be025ce'
p744
(dp745
g4
I1
sg5
I0
ssS'bbe26bc46f6e2cf208050a476f6ad09f28bcc8e7'
p746
(dp747
g4
I0
sg5
I0
ssS'faa5dfddf1ed1e5a53e42710ab86ca0d94e46a5f'
p748
(dp749
g4
I14
sg5
I1
ssS'578434565ef52332f55d785da2bd39a45014328e'
p750
(dp751
g4
I0
sg5
I0
ssS'c806879ce39fe3be8e21a780689b28cd1407b161'
p752
(dp753
g4
I0
sg5
I0
ssS'826c2742753be126dffff701eb0eda966b5849cf'
p754
(dp755
g4
I210
sg5
I1
ssS'20d6640a7c8eadc4b5af15895c1358b868a02464'
p756
(dp757
g4
I0
sg5
I0
ssS'52beecea4597cc3b2c873a5e477d4d2e924c07d0'
p758
(dp759
g4
I14
sg5
I2
ssS'f88408da8b4d222195caca46d10264d90a2bd167'
p760
(dp761
g4
I1
sg5
I1
ssS'8f060a0c48f847b1c30e390f0d6f7f887ce87dd7'
p762
(dp763
g4
I1
sg5
I1
ssS'd2c61a4e80f8defc00ea5675236a83f9884d752d'
p764
(dp765
g4
I0
sg5
I0
ssS'39556cc20f663412b8ae653196a306414955ac7f'
p766
(dp767
g4
I94
sg5
I0
ssS'38c563dbcf38b663717336dac74c88077efd2e1e'
p768
(dp769
g4
I8
sg5
I4
ssS'e833e0cb5fa8bd789db8ef60e8cea199af9ea0e7'
p770
(dp771
g4
I2
sg5
I1
ssS'9a72842af28b6c46524937b61cd009ce920ea77f'
p772
(dp773
g4
I0
sg5
I0
ssS'03df2cab13dda1be737d40453056757f4bc2644a'
p774
(dp775
g4
I2
sg5
I1
ssS'7ce4e54f600651db6bb0bd088c90d8cf1717ee8d'
p776
(dp777
g4
I2
sg5
I2
ssS'96caa4991fed3ff376ee15214607d05385ff9d7d'
p778
(dp779
g4
I9
sg5
I5
ssS'4aa81a592e92c4b33add235db308b28adfa4b9fe'
p780
(dp781
g4
I2
sg5
I1
ssS'f0f3427e90dc5b3f539bb1aee25587d7ae1db6c6'
p782
(dp783
g4
I3
sg5
I5
ssS'2f01d5ba3a1d94904a1eea67db1276922f39c8ec'
p784
(dp785
g4
I13
sg5
I3
ssS'8671b4bf6bfb4c6e457d97a8d0b3ad7f638d75e1'
p786
(dp787
g4
I1
sg5
I1
ssS'ea0e1c121fbad0afd5812c820d042ecc8235441d'
p788
(dp789
g4
I20
sg5
I27
ssS'1da50150c508ae96c7f05cdf4ab987cb5611034c'
p790
(dp791
g4
I3
sg5
I1
ssS'a3ae77f63b46bed830c171d22137cb5eb4ee9c3e'
p792
(dp793
g4
I20
sg5
I43
ssS'f794cf31971274766378faf140d60e5ec3807286'
p794
(dp795
g4
I4
sg5
I2
ssS'6f8ad0fe85692629ba60532bbefaee1642c3dc75'
p796
(dp797
g4
I31
sg5
I6
ssS'69f11a195403ca6853086f553d07f3857f761e62'
p798
(dp799
g4
I0
sg5
I0
ssS'2d9a1cf4e72872dd5d574d6c712f9b8720bb4ffc'
p800
(dp801
g4
I7
sg5
I7
ssS'2d7dab66b589159712f96bd0086f45ae3c32216d'
p802
(dp803
g4
I390
sg5
I291
ssS'51ce5b7ac7b196bfbc4a44eb1376aa7acf23ac14'
p804
(dp805
g4
I66
sg5
I9
ssS'f1ba05b04482b1e1ed91b0a88a471ac753f67e55'
p806
(dp807
g4
I0
sg5
I0
ssS'adc5199fcb7bec8a76c7542c2fc555bc52544522'
p808
(dp809
g4
I0
sg5
I0
ssS'66701d5a0ecd802a5bcc1fc8373f03058722f7a8'
p810
(dp811
g4
I71
sg5
I4
ssS'b6a8701001d79454d4183c05eb4cbbcf4130d072'
p812
(dp813
g4
I7
sg5
I2
ssS'00843c732475c914c58d00716262a63666d74b4a'
p814
(dp815
g4
I161
sg5
I119
ssS'6a4351461304508203ca9eb522cfa055e8831020'
p816
(dp817
g4
I21
sg5
I2
ssS'c89bcc737ec27b1f7520168a57f502537ad6c555'
p818
(dp819
g4
I0
sg5
I0
ssS'ae2c5b98106720d4b78057780bdcbb167219a1a7'
p820
(dp821
g4
I44
sg5
I0
ssS'87621472879b48592106aaf5adef6771e1cc9da9'
p822
(dp823
g4
I0
sg5
I0
ssS'6a1c1654bfa34c01bb8d733cf2ed4b13eabc929d'
p824
(dp825
g4
I0
sg5
I0
ssS'50f37791e6f8aadd6f8f923047c0ad885023d21a'
p826
(dp827
g4
I0
sg5
I0
ssS'2327c50b5f73d2e769ddcb9d2f98d3657db013f8'
p828
(dp829
g4
I14
sg5
I0
ssS'ca45f108dbbefaede131edab055501076323d09c'
p830
(dp831
g4
I45
sg5
I25
ssS'72c34cd0da24374c25b83dbae560aed9968149b6'
p832
(dp833
g4
I4
sg5
I2
ssS'1ce0a4fe77413633c1b6d701aae0c94c220b4713'
p834
(dp835
g4
I17
sg5
I0
ssS'84805f1929e4e83f24de2e8d7c47f2d0645ca52f'
p836
(dp837
g4
I18
sg5
I0
ssS'cc0cc5c53e4693fe398056818be9a0c2dfa0c425'
p838
(dp839
g4
I21
sg5
I1
ssS'69645ff5d8b918aaefca0a8d0caaef23d5fe3662'
p840
(dp841
g4
I1
sg5
I0
ssS'514cad74bde4cd7781b496155058a79507245798'
p842
(dp843
g4
I0
sg5
I0
ssS'ea3b1a3dce7db20f56f9db055050f45f8051c3d1'
p844
(dp845
g4
I0
sg5
I0
ssS'eaf41442c6b91922bc26bcf4138842db1dd98781'
p846
(dp847
g4
I36
sg5
I0
ssS'b6763cc141815be92b883dedabb8c2ddd965b4d5'
p848
(dp849
g4
I0
sg5
I0
ssS'10308ccdf1d6fc92cfed8a3b25779e7cbb73f9b0'
p850
(dp851
g4
I10
sg5
I0
ssS'b1b829ccf26d78e95ac055bb76843e6b4e1cff75'
p852
(dp853
g4
I3
sg5
I1
ssS'e9cbd38ee8a3db8a3a5c55b54e70a3daa6727cc1'
p854
(dp855
g4
I4
sg5
I0
ssS'06a93d1e87ed950138c07ba036554d0d0ddfb87f'
p856
(dp857
g4
I11
sg5
I4
ssS'59986721afff63040966a8858c64950a0a485cd7'
p858
(dp859
g4
I1
sg5
I1
ssS'f53f8b2372b9941ba07fc917045a58f4d292415b'
p860
(dp861
g4
I2
sg5
I0
ssS'103a9519a288b5fe3142bbb2cc456e5560ba29f8'
p862
(dp863
g4
I0
sg5
I0
ssS'8182baa58649743e0469a8a4f11c204da7e1dbd1'
p864
(dp865
g4
I0
sg5
I0
ssS'3e7b6178e2db14043e1bfe0beba8ab971f42cfc5'
p866
(dp867
g4
I1
sg5
I1
ssS'196450140fcff0692eb9c31e85f79df017ff2316'
p868
(dp869
g4
I5
sg5
I5
ssS'f2402efa2a29631a3f67df9157fdf9d746861406'
p870
(dp871
g4
I3
sg5
I3
ssS'1a8e59f6889f79f4280d49284dabdac8bee003c4'
p872
(dp873
g4
I0
sg5
I0
ssS'86f31769adf3d4d5b896cf4dd561ab3737533d6c'
p874
(dp875
g4
I1
sg5
I1
ssS'800808684dd3681d86b792ed5ed735237bc3dcd6'
p876
(dp877
g4
I0
sg5
I0
ssS'7c5b0ba793d7d524fe3b1a84f905ab4d317ccf09'
p878
(dp879
g4
I1
sg5
I1
ssS'de586cd17cce1363ee611fea30a47aee908f861b'
p880
(dp881
g4
I31
sg5
I1
ssS'5c81414cbb242f921939500a1c27eec8256a015f'
p882
(dp883
g4
I2
sg5
I2
ssS'59483c6dfbd260a4f18815edebc0bd3e4f58152d'
p884
(dp885
g4
I3
sg5
I2
ssS'f66c1e33eedc71e2ff75ea924cd4cbdbf10d4086'
p886
(dp887
g4
I0
sg5
I0
ssS'73d82b3d0361d6a17bffc19a30142ec321465c63'
p888
(dp889
g4
I2
sg5
I2
ssS'531185bb90662824f054ee03f20aa0b11223edbb'
p890
(dp891
g4
I138
sg5
I0
ssS'f4f33c7a833b88a95ec8fe56132933f2db97a939'
p892
(dp893
g4
I141
sg5
I19
ssS'97f4715527228a9857ac98cfc9b25337fe08985b'
p894
(dp895
g4
I0
sg5
I0
ssS'dbba898287ac423d84e018842193d13791f7c62f'
p896
(dp897
g4
I9
sg5
I2
ssS'a5b85002f49c5029ce7a0d73fc8576003a39237b'
p898
(dp899
g4
I32
sg5
I2
ssS'1d9dd252a0761be7cfbce5ef0c0f749d963b35d4'
p900
(dp901
g4
I0
sg5
I0
ssS'fe58ce9ab43d56160c0447e7f48c87cd94e1ac3a'
p902
(dp903
g4
I3
sg5
I3
ssS'6d562597e5c1c23743331b9682a5eb9a1c36afbc'
p904
(dp905
g4
I24
sg5
I3
ssS'87a6602c7abc0557519d72c8758afff7069985da'
p906
(dp907
g4
I0
sg5
I0
ssS'ce756e750141b28ac55ea46219b7b3bacc73a2c1'
p908
(dp909
g4
I1
sg5
I0
ssS'c3a01e19c8ee34fdf1f2aebf367067b7dde0569c'
p910
(dp911
g4
I188
sg5
I63
ssS'b96a71203fa768fbff5074b4f03dbc444df05afd'
p912
(dp913
g4
I0
sg5
I0
ssS'729d18188918d055a4fde34fca94fb1b2c10e518'
p914
(dp915
g4
I0
sg5
I0
ssS'4aa165583874e57f13bb86139d092770670026ad'
p916
(dp917
g4
I11
sg5
I0
ssS'f001fa1c4b461e22558d15b65b0be54dbfc0ad64'
p918
(dp919
g4
I39
sg5
I78
ssS'7843972fa4334709149f0247cce643491784504a'
p920
(dp921
g4
I1
sg5
I1
ssS'bd9c3ca9a14e19b7aa81fc3031194d722e3f900e'
p922
(dp923
g4
I8
sg5
I1
ssS'1a7227df037ba7c36548997a7948b6f12ee7c591'
p924
(dp925
g4
I2
sg5
I0
ssS'a4a954c9fc0970c90ed4dbacdb2a6dd5200e2543'
p926
(dp927
g4
I0
sg5
I0
ssS'57aecb0648ada06d89ba790944ac01036ff21e16'
p928
(dp929
g4
I14
sg5
I14
ssS'fde41caa25203f456a4650ae1e5501725622cbb7'
p930
(dp931
g4
I23
sg5
I10
ssS'8cdece757125de206ecdb9006d45ae69daf7acea'
p932
(dp933
g4
I15
sg5
I2
ssS'0348a5731c6324641d0c56abd51107e343d1e94d'
p934
(dp935
g4
I66
sg5
I32
ssS'8c6275c846bee78a3c4c2998ea1e307b9665e3c2'
p936
(dp937
g4
I0
sg5
I0
ssS'0e9f5e504fad3ecfcdbcba301e72160844fcc18e'
p938
(dp939
g4
I3
sg5
I1
ssS'c1b24120bb627eb471dd99ea409c934fe942c836'
p940
(dp941
g4
I3
sg5
I2
ssS'9eb671f9d2ebb37fded5f3d77d274fb1c38038ca'
p942
(dp943
g4
I136
sg5
I4
ssS'83ed13701707b19420773f18a32aa8b688ae7a3c'
p944
(dp945
g4
I2
sg5
I0
ssS'f5936e48d1966ffbee51e8e277bf4eab050b71f9'
p946
(dp947
g4
I76
sg5
I34
ssS'e0bfede0cb91b36f78061043c72111a0dad40670'
p948
(dp949
g4
I11
sg5
I42
ssS'69dff9c34b007858a1a342537dd8580ecaa793d0'
p950
(dp951
g4
I0
sg5
I0
ssS'110d96bc529771ad200d190e1560531665c052fa'
p952
(dp953
g4
I0
sg5
I0
ssS'8a7b279e44efacccab7eee6bb60143120c45eca1'
p954
(dp955
g4
I0
sg5
I0
ssS'92a269aac7b5772e8b5860930f8edb3e0741b91c'
p956
(dp957
g4
I1
sg5
I1
ssS'040f08ab058ef350177582bca42605a18708907c'
p958
(dp959
g4
I0
sg5
I0
ssS'455b105b9f1b7bb8ea4b3d44e3dd00f6ca7cc8a1'
p960
(dp961
g4
I0
sg5
I0
ssS'5eb0b50b6397c59195f7f359b3d1b2cdf343ea2e'
p962
(dp963
g4
I41
sg5
I0
ssS'd7fcb99e79bec37b71e36646507175bf06c28653'
p964
(dp965
g4
I52
sg5
I30
ssS'ed7f436d3e7c091b79c8fc903b69450d33ddba4a'
p966
(dp967
g4
I0
sg5
I0
ssS'91cdbbd858e88b5008d1bc2ee2b4d7c8fedc3f9d'
p968
(dp969
g4
I1
sg5
I1
ssS'75c83e4d9aec4ed2699c5427e030202a4e8a9264'
p970
(dp971
g4
I2
sg5
I0
ssS'2a0a2884e8dbc4ac75ff6584b5fba87369c67f31'
p972
(dp973
g4
I1
sg5
I0
ssS'3d0ebb6ac6d482218f6f58ea76ec69bec925b109'
p974
(dp975
g4
I7
sg5
I0
ssS'deed5616ae93dcd8c0d57ce2ea1c5fca252a7fde'
p976
(dp977
g4
I51
sg5
I297
ssS'cd19a1af2a9639fef65d706c99b877b723ffbdb3'
p978
(dp979
g4
I0
sg5
I0
ssS'13d7f9c50ce387aeb6fcc395baf3e0101a2a0fca'
p980
(dp981
g4
I0
sg5
I0
ssS'd8d7de6ac0d8f6988f876229d773a4a3042f988e'
p982
(dp983
g4
I1
sg5
I1
ssS'8ab03a2fb7c5c1f081f38788b300d7fe72f45073'
p984
(dp985
g4
I1
sg5
I0
ssS'e8d469f20fa84994ed67f6628e97e8962a8044a9'
p986
(dp987
g4
I7
sg5
I0
ssS'dcbc85ea333d16b6a267f9c95b48d17029f6c01d'
p988
(dp989
g4
I5
sg5
I0
ssS'029c7f2ab19a5dc838dc783abcdf52c7fa2bb337'
p990
(dp991
g4
I0
sg5
I0
ssS'c8bf90d7027966e24ebfb40188b0856cd5d7deaf'
p992
(dp993
g4
I2
sg5
I1
ssS'c151c9cca13e1a9375a01fb1f6e7a0acdf8f115a'
p994
(dp995
g4
I4
sg5
I2
ssS'1ba63673e8085019b8761f8da5b8e21dcac022d7'
p996
(dp997
g4
I0
sg5
I0
ssS'a7483b73dac3ba00e90ef58a72bdefd0bec27ad9'
p998
(dp999
g4
I0
sg5
I0
ssS'89c685be55e5656385e36d670f2e6ab19ce09696'
p1000
(dp1001
g4
I0
sg5
I0
ssS'5eacf802ed21e12fdf983223fb9d1546a366f8e6'
p1002
(dp1003
g4
I1
sg5
I1
ssS'9940cd2a1403341e97bda42a88ae2c0213027c4f'
p1004
(dp1005
g4
I3
sg5
I3
ssS'cb93e78e14663cf78827512928c3ffccdf9d34ed'
p1006
(dp1007
g4
I0
sg5
I0
ssS'73a618068c70dc7698960f55c2ed5fc70074fde9'
p1008
(dp1009
g4
I212
sg5
I0
ssS'6efc8c04e46d5a731962e2fae9b9599097c5a2d4'
p1010
(dp1011
g4
I1
sg5
I1
ssS'c1926d1a92098b2477b7993a4397f44947884175'
p1012
(dp1013
g4
I20
sg5
I2
ssS'ebff03ddca6339d6e48d54917915d12075d3fd40'
p1014
(dp1015
g4
I3
sg5
I0
ssS'68eed85afb02492e89dc74f4e5b0b9f54d6b400d'
p1016
(dp1017
g4
I23
sg5
I1
ssS'9e4ac2ca22ecaf260b67ef6a93dd06b6eedb1da7'
p1018
(dp1019
g4
I1
sg5
I1
ssS'b76cabf6248df6d82b904a08d74842395498aa85'
p1020
(dp1021
g4
I0
sg5
I0
ssS'cb66da562cf877eba8d7ea553bcba4a63dd5dabe'
p1022
(dp1023
g4
I90
sg5
I1
ssS'f744f6ca1f81e6d48044f7416472f39dbd6e573c'
p1024
(dp1025
g4
I1
sg5
I1
ssS'005e0485cee33c167eb6a03c72b0aa0603b1cd0a'
p1026
(dp1027
g4
I0
sg5
I0
ssS'cb7587f7674db5d00df3a6134ad815fa03e2e7e6'
p1028
(dp1029
g4
I210
sg5
I0
ssS'fef1f7987cc6298e744b7d4290e3fc9a9701831b'
p1030
(dp1031
g4
I1
sg5
I2
ssS'3dd98efeb30b191d70a497c4e91c6632d393309a'
p1032
(dp1033
g4
I1
sg5
I4
ssS'e59f04bf577f0faa3e5fe2de177d65d094592b55'
p1034
(dp1035
g4
I2
sg5
I1
ssS'e658be77687ec7bb0b5a230f16c8595893c822ae'
p1036
(dp1037
g4
I1
sg5
I1
ssS'80691afb3e404d23f25644849ce0c64de5e32db6'
p1038
(dp1039
g4
I0
sg5
I0
ssS'ae0a71ae7e9e5b30cacea018f3331da9462a27b7'
p1040
(dp1041
g4
I0
sg5
I0
ssS'b67e178e6fe9e916192d4ce30d4fba757c768c56'
p1042
(dp1043
g4
I1
sg5
I1
ssS'83b353eafabcb8ad130278464128583028ebdbc9'
p1044
(dp1045
g4
I0
sg5
I0
ssS'95c24638a73e895fb42449b876266b8029b752bb'
p1046
(dp1047
g4
I791
sg5
I718
ssS'b765eb5ba4b8ce40fcbb6f76fbccb0285b0d87cd'
p1048
(dp1049
g4
I6
sg5
I3
ssS'8e00fa7bf6ddcceffd46859da7421e4c683591f1'
p1050
(dp1051
g4
I1
sg5
I1
ssS'c55625cd86abde4f25e6a2f49cf4bd62cf6a056c'
p1052
(dp1053
g4
I0
sg5
I0
ssS'15a5f0aa12338078157b719b67a5555f22080d5b'
p1054
(dp1055
g4
I0
sg5
I0
ssS'1181c96410108ac6f3ac93843c37c1e4e1735c49'
p1056
(dp1057
g4
I9
sg5
I1
ssS'8dadaf0fde2b502df359632853fda00963dce3f5'
p1058
(dp1059
g4
I145
sg5
I98
ssS'5c72ca703a76c37276c16253f3694e21cd4c5123'
p1060
(dp1061
g4
I1
sg5
I1
ssS'803736c30ed4a426d83daa21216c24163db5e7c6'
p1062
(dp1063
g4
I12
sg5
I5
ssS'55c51c87f4557aee58ec093735f318b5da094cc8'
p1064
(dp1065
g4
I32
sg5
I0
ssS'235a1909b990c1e7bc82846a6efccde67b638c53'
p1066
(dp1067
g4
I3
sg5
I2
ssS'73ed8f4dd3c496ce06bf691627f48988c2e62b3e'
p1068
(dp1069
g4
I27
sg5
I27
ssS'21f39752241c56ca4538d09e225f4653b9446d9e'
p1070
(dp1071
g4
I86
sg5
I22
ssS'45a57f79579c5310d28b3d1905c54414b9cd8e73'
p1072
(dp1073
g4
I0
sg5
I0
ssS'030ed82a25bbe735ab59ad4b55f6e31cb59c9fee'
p1074
(dp1075
g4
I1
sg5
I1
ssS'eda02121dbf4c4b3affdf355523df7b596484dff'
p1076
(dp1077
g4
I1
sg5
I0
ssS'd48c291a34263893b1d4f45036f7b9aaaa63bccd'
p1078
(dp1079
g4
I273
sg5
I0
ssS'aca6546d3fe73216df8db49ceafbc5c3126c1ab0'
p1080
(dp1081
g4
I1
sg5
I1
ssS'9838a002fc9b82c907d4ba495a34d0ce21386e44'
p1082
(dp1083
g4
I1
sg5
I1
ssS'680459a1b9e42fab645138a587a218a77a8234d7'
p1084
(dp1085
g4
I103
sg5
I13
ssS'1b40aa17f9ff3db1df05b97725a8d4043b0b261e'
p1086
(dp1087
g4
I2
sg5
I1
ssS'cb231322a106942b4bb7dd96e80f56ffc707e3b4'
p1088
(dp1089
g4
I6
sg5
I1
ssS'bc0fd83fa7693db7d80ce19825470b3e210753c5'
p1090
(dp1091
g4
I2
sg5
I3
ssS'7118970bb198b1bd34c43e0073da54df3d09d749'
p1092
(dp1093
g4
I1
sg5
I1
ssS'5a9d57dd5f179102ed95cbc75986f913bb6fb326'
p1094
(dp1095
g4
I0
sg5
I0
ssS'6c0d7cf441e6aba214162826f0dd59a2d7585273'
p1096
(dp1097
g4
I6
sg5
I1
ssS'5546a120153899d8d712a048f664dcb55bb4b791'
p1098
(dp1099
g4
I16
sg5
I1
ssS'e9f9d2a3142a6883474e238bc7b91815955e3e7e'
p1100
(dp1101
g4
I0
sg5
I0
ssS'fa0dbbb3b127eec9dbc86208d8fbde1d903f13ea'
p1102
(dp1103
g4
I1114
sg5
I1118
ssS'406f2806b2e51f94a43bc28d30940d306d1d18ce'
p1104
(dp1105
g4
I149
sg5
I0
ssS'd67989ac1068d31d808d4021eeecb12ae9451824'
p1106
(dp1107
g4
I2
sg5
I0
ssS'60b5a353d5d63de0430fe8b6fab253555510c1d3'
p1108
(dp1109
g4
I0
sg5
I0
ssS'aa4196a2e48cb320247f4fb6fc5e3c1574bb2ab8'
p1110
(dp1111
g4
I0
sg5
I0
ssS'3e62dd062b5ef03d268134bda7c49960e0d8ea25'
p1112
(dp1113
g4
I0
sg5
I0
ssS'ee45e51bf48347f102d51cf3256cd6a2f2db9525'
p1114
(dp1115
g4
I3
sg5
I1
ssS'183353d029f5f6dfad0bc3b3682ba811b3838de3'
p1116
(dp1117
g4
I0
sg5
I0
ssS'274b899af69082656c8ba5f755d25f264b88eb01'
p1118
(dp1119
g4
I5
sg5
I5
ssS'6f4fb95255b9242237edb3c22d7fcab791e77d8d'
p1120
(dp1121
g4
I0
sg5
I0
ssS'4d627ce3e0f1ebe346052b8dcae92d04a42af105'
p1122
(dp1123
g4
I570
sg5
I0
ssS'276c27c8a418c7c399e710cafa43b42efbb9d22e'
p1124
(dp1125
g4
I8
sg5
I3
ssS'07675eb845f7df88b3b5d19ec848f58401c54c8e'
p1126
(dp1127
g4
I37
sg5
I4
ssS'3c772052ec1db6cdb9b80b8870feaa1e1c17f8aa'
p1128
(dp1129
g4
I0
sg5
I3
ssS'1ebfebaaa68a45e878049d57a0cdc1db4c6c7c13'
p1130
(dp1131
g4
I73
sg5
I1
ssS'274528191d2e3a4945b440f5b4c151bc756e67c5'
p1132
(dp1133
g4
I67
sg5
I10
ssS'39e43961b98f79a55948db0710c8e2403408d12a'
p1134
(dp1135
g4
I4
sg5
I4
ssS'eee4b60db33d3965156c704f04e4a4316bb5a3c3'
p1136
(dp1137
g4
I251
sg5
I131
ssS'cf414259b2b03664cf51e12532035e2a4ef130f3'
p1138
(dp1139
g4
I47
sg5
I6
ssS'9963cd24f81c14b09474b20dcb3acabba5ed7036'
p1140
(dp1141
g4
I1
sg5
I1
ssS'393d09ad41d350d2b5cc8c5072cc5cf191ce8638'
p1142
(dp1143
g4
I0
sg5
I0
ssS'192f0f963cfaf90668aca983db04dce11d639b47'
p1144
(dp1145
g4
I1
sg5
I0
ssS'13d78662ee023b201d4c954c51b2e3071aa7026e'
p1146
(dp1147
g4
I2
sg5
I1
ssS'78c4eb3c1c3b96fbbc3e8477a30fb003d5cff49f'
p1148
(dp1149
g4
I0
sg5
I0
ssS'f4c5e8b00615bf51e94225f9a54936845dae2e19'
p1150
(dp1151
g4
I1
sg5
I0
ssS'd43a584e5cb15b66d070e2d5601cd9fa1157c08b'
p1152
(dp1153
g4
I6
sg5
I4
ssS'd7189ab6f47d9e3077151c6ec1aef3ee818ecdaf'
p1154
(dp1155
g4
I113
sg5
I141
ssS'6b991666e46490cdf15990753930bd2a8148f3e3'
p1156
(dp1157
g4
I12
sg5
I12
ssS'99681d2b80619ba0cd17cccd08a6c63b9024421f'
p1158
(dp1159
g4
I63
sg5
I0
ssS'a635e2afac970e3d5de0e4ce9c0ec24a7a5a1ae6'
p1160
(dp1161
g4
I227
sg5
I0
ssS'8ac67937a76f22b204ab0772173ee70dc9335d7d'
p1162
(dp1163
g4
I339
sg5
I37
ssS'48647eb093337f9db73c69d7027b6a657b20ff35'
p1164
(dp1165
g4
I1
sg5
I0
ssS'dff8e6d170f8028c9169bde1d208c1cccbea5aae'
p1166
(dp1167
g4
I29
sg5
I0
ssS'82c77e3f716e9a2fd484e2e73fd666d2f9532a28'
p1168
(dp1169
g4
I5
sg5
I1
ssS'029708cea64c6b2a19d28de49b0e0f4ba6cf59ac'
p1170
(dp1171
g4
I1
sg5
I1
ssS'9f44b81a7ff4456bc9698f6187d0f128051364b6'
p1172
(dp1173
g4
I1
sg5
I0
ssS'c598b6ca27da7eaf743717421325a72d8b7a8380'
p1174
(dp1175
g4
I1
sg5
I1
ssS'2cfcc6a6d687257e69b5904029373e0ba54850cb'
p1176
(dp1177
g4
I0
sg5
I0
ssS'4ec41c67e36355cd2aeca094d676b172fea4717a'
p1178
(dp1179
g4
I5
sg5
I1
ssS'1dcea0406affbcbf28e6e8f4a5307adf6bca46d1'
p1180
(dp1181
g4
I3
sg5
I1
ssS'513ec6afbb6ab663fd1c9578f4a64fc734d7cb68'
p1182
(dp1183
g4
I8
sg5
I2
ssS'c50ca676ef4d486bbb638106c4435333fabe34c6'
p1184
(dp1185
g4
I4
sg5
I2
ssS'c055f419781507190ecddca57eb6b4db9be652fc'
p1186
(dp1187
g4
I26
sg5
I28
ssS'f92bf31c025f5ce3e926f01b8489264b1a96ec1b'
p1188
(dp1189
g4
I607
sg5
I0
ssS'80ada0db6ddade8fe31c641c59a8dff929ef019c'
p1190
(dp1191
g4
I0
sg5
I0
ssS'cdf86d96eb6f6011f5743ea553e7c549deb0df73'
p1192
(dp1193
g4
I7
sg5
I3
ssS'73536bb3f5cf57ff3d96db735774dc97a44a898b'
p1194
(dp1195
g4
I128
sg5
I37
ssS'1ae5fd02be7683c2121a37ee120b44fbe9aa86d0'
p1196
(dp1197
g4
I1
sg5
I1
ssS'45c75b6d90825be0e70d1390c5a4f192092ea5e5'
p1198
(dp1199
g4
I0
sg5
I436
ssS'd9ff221a9165eb645f64fa03893cc9b59599469f'
p1200
(dp1201
g4
I4
sg5
I1
ssS'447465547cc9a14350d024ed25b374614c475eec'
p1202
(dp1203
g4
I101
sg5
I17
ssS'df1eec992a9c83dec32ea7da9dbf979abee8c308'
p1204
(dp1205
g4
I1
sg5
I6
ssS'd489d9023f569e327c315aad7f70622732153158'
p1206
(dp1207
g4
I4
sg5
I4
ssS'67f973ff7f98bb3d892a33eda67ba1dab3bddead'
p1208
(dp1209
g4
I1
sg5
I1
ssS'e8d8e0a81ced977c3e476c1f54f0856117ef3b74'
p1210
(dp1211
g4
I0
sg5
I0
ssS'7996067921ddd5eb3ff889270a5b02ce14997b10'
p1212
(dp1213
g4
I5
sg5
I1
ssS'ef638d88f0e8ceb64eaf2d2004201f2d0dfaced0'
p1214
(dp1215
g4
I3
sg5
I1
ssS'99d753d8be8ef831147c5f3ffa5651ace507f356'
p1216
(dp1217
g4
I0
sg5
I0
ssS'cddd41f82acbbbedd856733d2a73ec14f292d5a7'
p1218
(dp1219
g4
I31
sg5
I13
ssS'90b2d14cdad2e001b3ccd696fb8007e7b96e82d8'
p1220
(dp1221
g4
I1
sg5
I1
ssS'6a7e6ffcc2e8f2ddcdb9fba02fc00e6bb2b4f90a'
p1222
(dp1223
g4
I11
sg5
I11
ssS'fe546f426edc95add019ca8847198f4d1eca24d6'
p1224
(dp1225
g4
I190
sg5
I27
ssS'c8a2e6d80ed20d02e4d66b0eb3d4bcc69f334419'
p1226
(dp1227
g4
I31
sg5
I8
ssS'5e246a16924161fdda538973e4a9645f39f0cfcf'
p1228
(dp1229
g4
I26
sg5
I1
ssS'6115f2259831a3d16e0d8e9a630a1c109f366c09'
p1230
(dp1231
g4
I0
sg5
I0
ssS'07f50f8b68fb2b93b6ea1c2f553a08df121325d8'
p1232
(dp1233
g4
I1
sg5
I1
ssS'170d04e87489fb338e660d8248873908037db6ae'
p1234
(dp1235
g4
I0
sg5
I0
ssS'dfc6c2f92e6d6e058f8200ef33ed5856984c4a84'
p1236
(dp1237
g4
I1203
sg5
I1171
ssS'25c82a2c925dcdb37704a1bf145830c8084ec33c'
p1238
(dp1239
g4
I15
sg5
I3
ssS'd78cef802b52be3fa07800a88af33c5bba3707ca'
p1240
(dp1241
g4
I15
sg5
I0
ssS'547b6095fb51f055d333310af96f8eb61de29807'
p1242
(dp1243
g4
I0
sg5
I0
ssS'42d973d7854a694dea290251e21025b0b90440f4'
p1244
(dp1245
g4
I2
sg5
I2
ssS'a11b0389902acbd0716e7e239ebd8efe0e2d506a'
p1246
(dp1247
g4
I0
sg5
I18
ssS'0573457a1f32417f9b280b5102a123ee49739bbf'
p1248
(dp1249
g4
I0
sg5
I0
ssS'd128ab21bac98b12790bf566b5d482591e1ce169'
p1250
(dp1251
g4
I0
sg5
I11
ssS'91152df142bdde134d84ed27963cda8e6b878416'
p1252
(dp1253
g4
I2
sg5
I3
ssS'9628f3d24a2e9777bccf24115b123eea3e9eb74c'
p1254
(dp1255
g4
I9
sg5
I8
ssS'65965740d6c2aa56fb3737af242e430895711e0d'
p1256
(dp1257
g4
I8
sg5
I1
ssS'4d64a2c6ea6ae80e43130186a4266f90175b4590'
p1258
(dp1259
g4
I1
sg5
I2
ssS'122b51c72a78aad249ee6547d89f8bc0a06fd9b3'
p1260
(dp1261
g4
I19
sg5
I4
ssS'1571f0bbb3a22bdc70172246ac0a54793b538464'
p1262
(dp1263
g4
I5
sg5
I1
ssS'76855e5a2f449cda8dc16ecde21ec77ef8a05730'
p1264
(dp1265
g4
I32
sg5
I1
ssS'c86f971d33ce8e9de6ab0026e775f1df74a8c13e'
p1266
(dp1267
g4
I2
sg5
I1
ssS'ca4c2c94050527a829bdc3b2e886ddf01d536e17'
p1268
(dp1269
g4
I1
sg5
I4
ssS'd2c7be6c38c9cc2dd3f5ba0dffaf38be42fcb418'
p1270
(dp1271
g4
I0
sg5
I0
ssS'19a752b8fd494c190f6f53fe3aa64ff8dd490f79'
p1272
(dp1273
g4
I62
sg5
I40
ssS'8aed781d118baeb6b34d0546ca001b62b93e83a5'
p1274
(dp1275
g4
I0
sg5
I0
ssS'af66fdcc0a46a898ebaf7b72288bf579845d73e5'
p1276
(dp1277
g4
I0
sg5
I0
ssS'b6c7fe3b20a73192a75dd7fbc4b184d88366dbb4'
p1278
(dp1279
g4
I545
sg5
I545
ssS'91762333806f1cea07598e2f3aaec405d4be8718'
p1280
(dp1281
g4
I0
sg5
I0
ssS'5fec3523188d5e5f1b55cd5ee0a941592bf0574b'
p1282
(dp1283
g4
I0
sg5
I0
ssS'6059f9b483d9ca0a1f53a1edfc08b75347bc84e0'
p1284
(dp1285
g4
I5
sg5
I1
ssS'1be2f1cde1ee003d33f5445bb60642801ff7102b'
p1286
(dp1287
g4
I14
sg5
I6
ssS'9dc964c589925da534850f5e6658c91b3d638dcf'
p1288
(dp1289
g4
I1
sg5
I1
ssS'351586178d6bf5a95a34a2344f1d14426947d206'
p1290
(dp1291
g4
I1
sg5
I1
ssS'6c3c6d86cd8d45911e7a5317bd33ce15c69f3e25'
p1292
(dp1293
g4
I1
sg5
I1
ssS'96946d64eb4ecb0b3615587fa30b03e7f3845cc6'
p1294
(dp1295
g4
I94
sg5
I26
ssS'cfb82feb03fcd60b3b66ac09bf1b478cd5f11b7d'
p1296
(dp1297
g4
I103
sg5
I7
ssS'14c4673eb933be7e49254fad77af0c96add7c231'
p1298
(dp1299
g4
I2
sg5
I2
ssS'cd576c7191eb81945e417c73e2d459ba76c1c5f8'
p1300
(dp1301
g4
I10
sg5
I11
ssS'e99a15b0bfa1d620623f3a6dc639880503617141'
p1302
(dp1303
g4
I22
sg5
I0
ssS'bd87217afa222cd799b5ee842a473be501ca3840'
p1304
(dp1305
g4
I1
sg5
I1
ssS'd2357291dfe04bd640de7376fc60dafe584373be'
p1306
(dp1307
g4
I89
sg5
I19
ssS'5cba7e11ab8dc72f1faf0a6a4681475ee8ffaea7'
p1308
(dp1309
g4
I6
sg5
I9
ssS'd78a27f4cc409e0705fce08c90e70677d8022316'
p1310
(dp1311
g4
I2
sg5
I0
ssS'00afba917616cc1187c2a06c86def64d9fc480f6'
p1312
(dp1313
g4
I2
sg5
I1
ssS'857ad9c5ed778e00d42a5333863c10a6209bdd43'
p1314
(dp1315
g4
I4
sg5
I3
ssS'3dc0f8e2048c9dd4d2eb5ca1b0b2eaefd47b09d6'
p1316
(dp1317
g4
I3
sg5
I3
ssS'e6ea39fef208873100ad225d4b3ec4c225aa4201'
p1318
(dp1319
g4
I49
sg5
I0
ssS'e3290bfaf9393278aa3d6ebb47e39c952e532002'
p1320
(dp1321
g4
I270
sg5
I0
ssS'26e50668348fa19d6d8a7aa9cc57d4fee66d630b'
p1322
(dp1323
g4
I3
sg5
I0
ssS'7d4f5ce783206bce5eade09c45cca81c75b34cf1'
p1324
(dp1325
g4
I40
sg5
I1
ssS'e6aabab064fd2240bfc844be14d1af8c422c19a8'
p1326
(dp1327
g4
I5
sg5
I1
ssS'bed9ecce5171810aa1c59d16c31a27571e1f1965'
p1328
(dp1329
g4
I1
sg5
I1
ssS'319f10b4070e07f9b1b944bef9cb92822e156f76'
p1330
(dp1331
g4
I83
sg5
I51
ssS'1c38f099f38858d6a659641613fb7e2f32161bbb'
p1332
(dp1333
g4
I0
sg5
I0
ssS'276672252b2e287f09b023728e10e98ad4cd39a2'
p1334
(dp1335
g4
I1
sg5
I0
ssS'0a57c7c833d17f2a259d954ce065871b17603c9a'
p1336
(dp1337
g4
I9
sg5
I0
ssS'5d0b4c57d86427c82209f8929df673ebdf7a6308'
p1338
(dp1339
g4
I0
sg5
I0
ssS'a445778860405d117111e24a078f25a9c399c608'
p1340
(dp1341
g4
I66
sg5
I32
ssS'3e34a9aafcc5cfe0d2e22d59e6e564d009e98a83'
p1342
(dp1343
g4
I16
sg5
I1
ssS'619c8db9ac78f5e6b4a59f3b344df968969988bd'
p1344
(dp1345
g4
I1
sg5
I2
ssS'5917e4c5fd67256acd0b838bd29065b3b632312c'
p1346
(dp1347
g4
I7
sg5
I11
ssS'e606b9025da9c866c0c7fd0164243c3698ce1d0c'
p1348
(dp1349
g4
I0
sg5
I0
ssS'eb0858a1627f8d58456020d20c74c75830c67c11'
p1350
(dp1351
g4
I3
sg5
I2
ssS'f6386cd202de43b1881d81a2595565c171ec823e'
p1352
(dp1353
g4
I73
sg5
I0
ssS'8b441dc66514873b70f1bff857c841f03da10dcd'
p1354
(dp1355
g4
I27
sg5
I0
ssS'cf97e3102cf46cdc3bb33c175cdd17b1a86cb63a'
p1356
(dp1357
g4
I5
sg5
I5
ssS'd66e937b30004e54ef0680103e3fc9abb3e8d87f'
p1358
(dp1359
g4
I12
sg5
I10
ssS'c87c76189627440c45d1ea0957e6eb3330a8c5fd'
p1360
(dp1361
g4
I1
sg5
I1
ssS'dd26c4fcdeb8b66c34ad72c7a10638c967f82a2d'
p1362
(dp1363
g4
I0
sg5
I0
ssS'4b85d90a54572f54b8b19d036d76d043cf116699'
p1364
(dp1365
g4
I1
sg5
I0
ssS'6069b12a36a6dcc5e77db594dd842743e786a0e4'
p1366
(dp1367
g4
I2
sg5
I1
ssS'6a4a5ab88a9a8a774aa70631a79ca9c1b3ad5570'
p1368
(dp1369
g4
I8
sg5
I12
ssS'5a9f7444e5cfbb8a4c11b66619783094a336252e'
p1370
(dp1371
g4
I3
sg5
I2
ssS'0a1e428802838ea8a965f90edac144dd1f8d719a'
p1372
(dp1373
g4
I4
sg5
I3
ssS'ec9cd7749c1a175618218f15a8ab2670152f8f46'
p1374
(dp1375
g4
I5
sg5
I5
ssS'97265b6f747c664bfaae260aa1bdbab012619f23'
p1376
(dp1377
g4
I1
sg5
I1
ssS'6d56d09ac887130a1cc2c1f0d3cce30fc70b629b'
p1378
(dp1379
g4
I1
sg5
I0
ssS'bee010a211d228764cd5b4207132c79a601e80a6'
p1380
(dp1381
g4
I5
sg5
I2
ssS'a43ed5d5b0a2ae1be67935a701b48ba83b4d9893'
p1382
(dp1383
g4
I105
sg5
I76
ssS'2f0871bcc53ba9875c415eddc3b7f1878d2e8806'
p1384
(dp1385
g4
I13
sg5
I23
ssS'969d0994234454b05a7b310b8dd40e66e900eede'
p1386
(dp1387
g4
I26
sg5
I1
ssS'5b135340a51396124cb51cd246b0a0e598852bb0'
p1388
(dp1389
g4
I2
sg5
I0
ssS'fb331fc7868e66d86a65cb98196fdcd60282534e'
p1390
(dp1391
g4
I7
sg5
I0
ssS'7adc247d399cd3d90d6692a4f82cb170b2bdc012'
p1392
(dp1393
g4
I2
sg5
I2
ssS'73435ef9fbe1094c504d8920882b48d8372a2916'
p1394
(dp1395
g4
I1
sg5
I1
ssS'84c58db585c2f12bfc7f00df871d620d87fd3d73'
p1396
(dp1397
g4
I57
sg5
I0
ssS'eb4241a2090dc3b7df9de2b168e989670ce612b3'
p1398
(dp1399
g4
I0
sg5
I0
ssS'a8fbacf462e0b93388a848ba4b59b9d4bec5a9a2'
p1400
(dp1401
g4
I1
sg5
I15
ssS'4cdceb0bb6a36fb1387c400db6dd24b442535c3c'
p1402
(dp1403
g4
I11
sg5
I1
ssS'ab4fe12f1707fc070b0fffec17a4fc8005ef990a'
p1404
(dp1405
g4
I2
sg5
I3
ssS'122d1a6c4b6e34f3cec447ec8b2577a3f627cdfd'
p1406
(dp1407
g4
I8
sg5
I3
ssS'09a7d9aea71e8d4881dc882242085499e775034d'
p1408
(dp1409
g4
I29
sg5
I13
ssS'698eaffb8a434e251141759c63bfaa6ac37debf6'
p1410
(dp1411
g4
I6
sg5
I6
ssS'09eb08defedb495fae0560498b08aef081b6ecd4'
p1412
(dp1413
g4
I43
sg5
I14
ssS'205d940383fef28af02ec5aa198fe352f78295a8'
p1414
(dp1415
g4
I0
sg5
I0
ssS'db12b04e666927786ca8c6459ce1063d6c0d7ec3'
p1416
(dp1417
g4
I3
sg5
I1
ssS'299e019846792ff78ba7a106913765f25e0d198b'
p1418
(dp1419
g4
I4
sg5
I1
ssS'14fffb8dc1c6a3fabf35bc74c3032abcae402a67'
p1420
(dp1421
g4
I15
sg5
I14
ssS'0b02436e443eef2309639822cfa76f569801a30f'
p1422
(dp1423
g4
I0
sg5
I0
ssS'fb8dcb41adef9617d11550102d9872e055a3ce8d'
p1424
(dp1425
g4
I9
sg5
I2
ssS'3bc7d571bf890a4befda3bbbe6d78ba3ea38c515'
p1426
(dp1427
g4
I2
sg5
I1
ssS'91b07ebd0369828da129f1626b6614b2579cba6c'
p1428
(dp1429
g4
I16
sg5
I3
ssS'517e01f5db428fe4c3e56119faad1760a8841c9f'
p1430
(dp1431
g4
I5
sg5
I1
ssS'8d8d8c62ee2adfbd8457726f25c35fe2d4d27aec'
p1432
(dp1433
g4
I0
sg5
I0
ssS'9fb3d3841fa1d3278cc2f60573c96e7fedbecd78'
p1434
(dp1435
g4
I2
sg5
I2
ssS'792ec98b20fb176e348bd059d42b9b663859aac6'
p1436
(dp1437
g4
I6
sg5
I0
ssS'2030553574453019ac43efa387465004e7173c41'
p1438
(dp1439
g4
I14
sg5
I9
ssS'872b66c0057ae72c3be202ded54f3a3f5122f37e'
p1440
(dp1441
g4
I19
sg5
I5
ssS'91529519442795c3e21cb4fbf5dd2f331185d633'
p1442
(dp1443
g4
I42
sg5
I0
ssS'1b4bc8a9bac3be2aab6c33b7d56f4cbd6370404b'
p1444
(dp1445
g4
I62
sg5
I0
ssS'692d3d348f5ab85cc202062e0065e3143e4e62f2'
p1446
(dp1447
g4
I1
sg5
I0
ssS'30ea4234a5917a9afebeb4669091b5e871a775b8'
p1448
(dp1449
g4
I6
sg5
I4
ssS'62604da4e5d728bf2ccc4e9e470f70a3aa180a88'
p1450
(dp1451
g4
I1
sg5
I0
ssS'354c07006f885b0ff468f44efebe1c4d8df646ec'
p1452
(dp1453
g4
I35
sg5
I16
ssS'bd3691cde7124d059162753c35b06cfb41472fa4'
p1454
(dp1455
g4
I3
sg5
I3
ssS'126167b5a4a74072270c8b0a40d8e5f54c0b5f3f'
p1456
(dp1457
g4
I6
sg5
I3
ssS'a9299988ba65287d962e5d6d67eb27ea39af2991'
p1458
(dp1459
g4
I46
sg5
I41
ssS'fd239fca84644896b1971cf24bc6213d065adb86'
p1460
(dp1461
g4
I15
sg5
I5
ssS'2a2043c5f1ad467f6ee12444b273731a4c7e9c77'
p1462
(dp1463
g4
I45
sg5
I0
ssS'3bcbb25f6b15d23fe79de34389363b0c5f078a82'
p1464
(dp1465
g4
I0
sg5
I0
ssS'23d6cb819dae4f2f7a1b23769a7eec5679a7c311'
p1466
(dp1467
g4
I1
sg5
I1
ssS'1640640d756b4cdf9ced2d3df0ad0015670616d9'
p1468
(dp1469
g4
I144
sg5
I74
ssS'db895be0dc532e410c302409a0a8c091f12a2aaa'
p1470
(dp1471
g4
I416
sg5
I0
ssS'a812c913a65b4621676d22b9bdfbcc2220c0852c'
p1472
(dp1473
g4
I10
sg5
I1
ssS'bf1f357410f18cd55071a65f40dd10ba1077a9e4'
p1474
(dp1475
g4
I0
sg5
I0
ssS'03735492b33b1ce8ac8a7fb05fcd017d26d443d7'
p1476
(dp1477
g4
I2
sg5
I2
ssS'd1ad84e978192a8d73faf15ef6963c5cffba60bc'
p1478
(dp1479
g4
I4
sg5
I1
ssS'1e7f47188dde3e83759a8be9770dee598f9281d0'
p1480
(dp1481
g4
I0
sg5
I0
ssS'3e3db5b8c5328908191487344e54698845af6c91'
p1482
(dp1483
g4
I0
sg5
I0
ssS'5bb609ee0118fadb9fad484ace924761f9e1a30c'
p1484
(dp1485
g4
I6
sg5
I2
ssS'f1a8fc40e117511c790bc63d00a19a90058e1ce1'
p1486
(dp1487
g4
I80
sg5
I30
ssS'27b480ba552adb256d5ee1338da981bb3a60dc62'
p1488
(dp1489
g4
I8
sg5
I1
ssS'0e92aeb000115674144c7af82d43329418205e40'
p1490
(dp1491
g4
I39
sg5
I50
ssS'81e5781760224900f2dbbf38ef6718ff59a0e344'
p1492
(dp1493
g4
I0
sg5
I40
ssS'c6d84da649789151a274e091df3f23e99e92dd0c'
p1494
(dp1495
g4
I8
sg5
I7
ssS'04095295e4cf0d49d1f45707f68addeed7704caa'
p1496
(dp1497
g4
I1
sg5
I1
ssS'09e4af26a387b3fce03f3cb1a38c6cff6a6c1af3'
p1498
(dp1499
g4
I6
sg5
I13
ssS'b1a902c822c869da8a465e4fe472bd29075fc7a9'
p1500
(dp1501
g4
I11
sg5
I9
ssS'e4f9ff791696ab8c7279b71be2c945c86df8f0c3'
p1502
(dp1503
g4
I1
sg5
I0
ssS'fbf0c0e6669a31b51c42ea0b93af9938192167b6'
p1504
(dp1505
g4
I3
sg5
I1
ssS'b934ef52c31ec46db38393e632b42578114d6dbf'
p1506
(dp1507
g4
I0
sg5
I0
ssS'1b0de72791f939f145500e7a2ff98af9cb074e9e'
p1508
(dp1509
g4
I0
sg5
I0
ssS'e5b57dd0167857dd4282de51bd5ac58aaf73213b'
p1510
(dp1511
g4
I3
sg5
I3
ssS'0544857516745f4ba6c9829702253e17c9f77458'
p1512
(dp1513
g4
I3
sg5
I1
ssS'6a634e0fe9abf14058e56749ecfa27db1c6b1732'
p1514
(dp1515
g4
I111
sg5
I0
ssS'028ff8dced3c63365c580345a145a5e997c312d0'
p1516
(dp1517
g4
I4
sg5
I4
ssS'ded77d72addaa46d718d84643616c8bba5fab43d'
p1518
(dp1519
g4
I512
sg5
I104
ssS'3c31b036273b5d29b2bd2d77df92814d74280807'
p1520
(dp1521
g4
I3
sg5
I3
ssS'73de3fb4c428a3b101a46b040c2a7fa2c171ff26'
p1522
(dp1523
g4
I1
sg5
I0
ssS'69ec6824c6721cdc4623143b8eae48723d844fb6'
p1524
(dp1525
g4
I0
sg5
I0
ssS'b8fcf7c3a58f08439ef6b12414e062f6447aecab'
p1526
(dp1527
g4
I26
sg5
I22
ssS'19324c0303c98b71d559105729ce929ce615da72'
p1528
(dp1529
g4
I0
sg5
I0
ssS'58a2a735ac329f890c5dd4a042b35ee544084db0'
p1530
(dp1531
g4
I49
sg5
I0
ssS'e750e6c9b1dc4c3f5eb7594e726b02bfc808aa7e'
p1532
(dp1533
g4
I1
sg5
I2
ssS'c0dc977de73573ca0c286b05da34b8e525467254'
p1534
(dp1535
g4
I55
sg5
I27
ssS'a0ba685a3e6ded2b7542b292996e04082de51101'
p1536
(dp1537
g4
I30
sg5
I11
ssS'6a498c7952df6aa5e41aab8a64e1cfbe057e650b'
p1538
(dp1539
g4
I1
sg5
I1
ssS'b1990d292e9d5ba979aa904b1ad9293d1c46cf3c'
p1540
(dp1541
g4
I26
sg5
I0
ssS'38bde2d15e4e19afc5c3489bd72cf4dc818135d5'
p1542
(dp1543
g4
I1
sg5
I1
ssS'05ad7f363a1604a67db5da00d5c0ed9f4dc7d1b2'
p1544
(dp1545
g4
I39
sg5
I0
ssS'77c7774589e7e2348947ba3fb6a070795bba1819'
p1546
(dp1547
g4
I270
sg5
I0
ssS'9e6de5cc1ebd3d257d8fe7931924736ca731b301'
p1548
(dp1549
g4
I1
sg5
I2
ssS'1a900daf2e9a1ebb9852d5ab3669fdb4c0b16d2b'
p1550
(dp1551
g4
I4
sg5
I4
ssS'012deaf43189fb94a5b7a392ccfb6c15acb03d1e'
p1552
(dp1553
g4
I204
sg5
I0
ssS'9495bfde357f9977891c551549fe4deec4f42a5d'
p1554
(dp1555
g4
I14
sg5
I0
ssS'4735da3da8542270c5f17e6ec9f7160408172f28'
p1556
(dp1557
g4
I26
sg5
I6
ssS'14f687b7355df142ea76145dea53bcbe7d012fdc'
p1558
(dp1559
g4
I10
sg5
I4
ssS'3d8db358c6d1fdfd21ebb1f074205c7e3e5c267c'
p1560
(dp1561
g4
I48
sg5
I3
ssS'a41f4fb4d26995bcadfc26540ad84a84b0e10e0d'
p1562
(dp1563
g4
I3
sg5
I1
ssS'56c6c38a99bb35b1065fa650fa8937122e47ab57'
p1564
(dp1565
g4
I6
sg5
I1
ssS'f4acfe6bf8cfbcec736176dae7cd180b8b52c97f'
p1566
(dp1567
g4
I2
sg5
I1
ssS'478e24fa447fd953bdf1a4960426a98d698dff71'
p1568
(dp1569
g4
I82
sg5
I34
ssS'62ee76f22e8b0a53b2eda4a88e2891ed6578083b'
p1570
(dp1571
g4
I126
sg5
I102
ssS'66127c5cfa91b3b76a4c342ef36f55a09e077cd1'
p1572
(dp1573
g4
I0
sg5
I0
ssS'1bcca7e395fda2deb344ee0d5db534d8f55ce023'
p1574
(dp1575
g4
I25
sg5
I4
ssS'9edd36f962cc2f28368a3db924fdef8e99a0950b'
p1576
(dp1577
g4
I3
sg5
I1
ssS'dcbc028f2af02cb1a9c54faedf0defca9841c048'
p1578
(dp1579
g4
I0
sg5
I0
ssS'd9beec31f4308598c1c79038e842f221e7a80d7b'
p1580
(dp1581
g4
I19
sg5
I1
ssS'018719878738cf3432a1398cffae29a9f781b327'
p1582
(dp1583
g4
I7
sg5
I4
ssS'd9c53e719a1e74865659adb1fcc87935cded6639'
p1584
(dp1585
g4
I1
sg5
I1
ssS'b45c3946bc8ea678dc5120b90eb484ee22ff7c21'
p1586
(dp1587
g4
I0
sg5
I0
ssS'7168c03ce6307f21e632dfbbfc62e1a89e6282a3'
p1588
(dp1589
g4
I0
sg5
I0
ssS'd8b81dd724a8d748526e73833e35b9cf0ecc8344'
p1590
(dp1591
g4
I13
sg5
I0
ssS'34e5a07f7be4ae29823cb8129c1177fe3c3d55cf'
p1592
(dp1593
g4
I0
sg5
I0
ssS'7912f511d5ce94795a9feb37c2bb7ba6ce3b8d54'
p1594
(dp1595
g4
I2
sg5
I1
ssS'07326c9baad1dcc631157f8edfa508066aee6d23'
p1596
(dp1597
g4
I42
sg5
I42
ssS'd13ec31886b35dfec28231da05e1d8b545dc26a2'
p1598
(dp1599
g4
I27
sg5
I1
ssS'86986f35074fab7555c663bb168dc340e68bcc95'
p1600
(dp1601
g4
I3
sg5
I1
ssS'c940f9f8b1c85fcc177dfc0c7a2705bc89506376'
p1602
(dp1603
g4
I345
sg5
I205
ssS'd91e3c6f7a971b39f89698c32f33d518ef5e2db8'
p1604
(dp1605
g4
I2
sg5
I2
ssS'a907a90130b5947f6e5d13f7ca90cc86a83ed912'
p1606
(dp1607
g4
I24
sg5
I5
ssS'21d31ee5aa2284b9a26037a99a7cf99a37131bd2'
p1608
(dp1609
g4
I0
sg5
I0
ssS'b4d3b8fb69dea8218aa9f2d57d2f6730e60477f4'
p1610
(dp1611
g4
I20
sg5
I4
ssS'294630c1c7946c57e2b315761361c6aec76cd2ca'
p1612
(dp1613
g4
I3
sg5
I2
ssS'd1a19cfe1a8d066341b42a8f41de481e8458fd07'
p1614
(dp1615
g4
I1
sg5
I1
ssS'e2de93db8a9f57879561a5cb4265d34be730618c'
p1616
(dp1617
g4
I440
sg5
I0
ssS'd8a920a4ca7d599478f3d656f9ac84ee19f8cea3'
p1618
(dp1619
g4
I0
sg5
I0
ssS'56b0cec481c7457a658b54f979f0fea3c1189c12'
p1620
(dp1621
g4
I3
sg5
I1
ssS'7d04c7d97cfa6d37274f246bafc4dbf752d5269e'
p1622
(dp1623
g4
I1
sg5
I1
ssS'ca5033d9cb40b71eea16a780bb830c4af9f03b05'
p1624
(dp1625
g4
I2
sg5
I0
ssS'85222377d7641eaefde81b1de215d1270009448e'
p1626
(dp1627
g4
I2
sg5
I1
ssS'a0e6349e641407f1e2dd701d69ee91c3beb5587d'
p1628
(dp1629
g4
I0
sg5
I0
ssS'6dee915acf998c5fbc18d7a342dc9ca570127dfa'
p1630
(dp1631
g4
I26
sg5
I0
ssS'8449a81cc4aec60b5a07c9bc3666bf3ee491278f'
p1632
(dp1633
g4
I2
sg5
I6
ssS'4fec68d3e587db718fafd2554ef6094893b93431'
p1634
(dp1635
g4
I17
sg5
I0
ssS'cb24bf85b0b0346e48a653a2d49e6a454ccad509'
p1636
(dp1637
g4
I82
sg5
I6
ssS'740d6b3415554a246e3dff944aafc584ec211466'
p1638
(dp1639
g4
I0
sg5
I0
ssS'988d08284989226577d30ae07550278dbf50d751'
p1640
(dp1641
g4
I135
sg5
I1
ssS'fd45119491908a63a4dc81b45beb416bc2669710'
p1642
(dp1643
g4
I24
sg5
I28
ssS'281cbdb2523495121c4f3e2ffd55616f7f829a6a'
p1644
(dp1645
g4
I0
sg5
I0
ssS'32319c82375e1d892c8bab258ce57686793e00df'
p1646
(dp1647
g4
I7
sg5
I0
ssS'1c43019f3f4efb88e4f67a54aa5e00dd1a3e63f0'
p1648
(dp1649
g4
I46
sg5
I10
ssS'9cd91da8baeafe74463bb8a63b9f717568a7bc0c'
p1650
(dp1651
g4
I1
sg5
I1
ssS'2f42009a5e6a4893c4272b397b1456a225e74d5f'
p1652
(dp1653
g4
I6
sg5
I3
ssS'04959fe009cb2622c7422c736456cdbd36ec43b3'
p1654
(dp1655
g4
I0
sg5
I0
ssS'c07d7b90b041f062cd5ad2090b5cd1a755f240fd'
p1656
(dp1657
g4
I4
sg5
I0
ssS'd9486747b7f7bfe416fefdca325f740bcd9bafb3'
p1658
(dp1659
g4
I0
sg5
I0
ssS'a504910b814c46d835cda372d5c3a8f4cdfd6ee1'
p1660
(dp1661
g4
I4
sg5
I12
ssS'619db8c1e0cee28182011e9802efddaf1bd5e237'
p1662
(dp1663
g4
I23
sg5
I13
ssS'90ddc3a61917abba16a5ca5f0b0010f1f201b8a8'
p1664
(dp1665
g4
I292
sg5
I26
ssS'8ddf3ce4b1d9830404d6805c43aabe1da983918d'
p1666
(dp1667
g4
I333
sg5
I108
ssS'152457dc0c606021ca85a154fcdc8a8c33b63073'
p1668
(dp1669
g4
I16
sg5
I16
ssS'1f4697bd02cd37eed49c425f776c122afd350e03'
p1670
(dp1671
g4
I1
sg5
I1
ssS'ccc34c8c2cee067812ba4f93e44c8a6379b6e9d4'
p1672
(dp1673
g4
I0
sg5
I0
ssS'41f853f9d56bfb403b40f00054a56242e1be52ed'
p1674
(dp1675
g4
I95
sg5
I0
ssS'1f292e6923aa9419d28e3700e22102dffd447886'
p1676
(dp1677
g4
I51
sg5
I1
ssS'ad7e58bc00e2e1b0807b70d0f26c54db5a44ec5a'
p1678
(dp1679
g4
I0
sg5
I1093
ssS'7ad93eae094f7108dbf01f6eb08d0e3c81c68f73'
p1680
(dp1681
g4
I2
sg5
I10
ssS'1f0a93f4ed8afedd3ea7c4e6510f23d5ebddd4e7'
p1682
(dp1683
g4
I0
sg5
I0
ssS'7a0783d356504867f4a4868717f6e5e7d1b90a10'
p1684
(dp1685
g4
I24
sg5
I0
ssS'de870cc2a3f39fddf302f7cf0966e1a10dee58e9'
p1686
(dp1687
g4
I0
sg5
I0
ssS'fb7ec207b17e0cacf52f9f3c2643c4b9036d827c'
p1688
(dp1689
g4
I7
sg5
I1
ssS'fecf37b624c14c89a3ee15bb205b51b05575fc2e'
p1690
(dp1691
g4
I4
sg5
I0
ssS'd88c94d5484cc38e92e2e41c548915b4c5df1277'
p1692
(dp1693
g4
I0
sg5
I0
ssS'04f38ecee9c40dc80a7fe15934800ee5067f9b0f'
p1694
(dp1695
g4
I0
sg5
I0
ssS'1a06325edb3dd2ea083827e30f92544cc69db5f0'
p1696
(dp1697
g4
I0
sg5
I0
ssS'612ac5b0f606e689b86d6918884391cb8e07c060'
p1698
(dp1699
g4
I0
sg5
I0
ssS'7c2beb8f49b29b39a6645b13a528d3e4b2a21e6f'
p1700
(dp1701
g4
I1
sg5
I1
ssS'c4bead3a0fe4ea48c4cab5f1ea682ac8f2dcb5d4'
p1702
(dp1703
g4
I66
sg5
I3
ssS'70b256eb16f55be65e9542d06854333eb403b57d'
p1704
(dp1705
g4
I0
sg5
I0
ssS'8748c6e0e9a66e5b153dac528b313823c152bd19'
p1706
(dp1707
g4
I4
sg5
I4
ssS'742da83b759e4df9a93bfa34dee7eb98e36db680'
p1708
(dp1709
g4
I0
sg5
I0
ssS'01f8fb5c9d5a94fd9cddcd067896d502df8f050d'
p1710
(dp1711
g4
I12
sg5
I4
ssS'69decb87e64d0f6b61283f3c1910bd6672a1da3f'
p1712
(dp1713
g4
I3
sg5
I2
ssS'57fbf34e050893c3f213549448723bc8e2233781'
p1714
(dp1715
g4
I0
sg5
I0
ssS'5481b130526ec604937bd71fa4dc214a7ab003ef'
p1716
(dp1717
g4
I35
sg5
I5
ssS'c06dcfb665faa92a80a89054b82480636d40c7b1'
p1718
(dp1719
g4
I2
sg5
I2
ssS'88e54b7921b9c3ab46fd339d7540e488c3263c62'
p1720
(dp1721
g4
I14
sg5
I5
ssS'c5ecaa4ca5998391b06c5adbe3c66dc010b49cd5'
p1722
(dp1723
g4
I36
sg5
I13
ssS'c1eda9f1c92f7110ad41af5e48864bfb2ac37c7c'
p1724
(dp1725
g4
I1
sg5
I1
ssS'ca4811b3087f9d34754d3debf839e247593b8a39'
p1726
(dp1727
g4
I84
sg5
I9
ssS'adb64a0835aeb5e1cbf49952cd25a2510dae70bb'
p1728
(dp1729
g4
I1
sg5
I2
ssS'ff77939684479f951c9da3720a3d67cdedc5951e'
p1730
(dp1731
g4
I14
sg5
I0
ssS'cd6da5ab2522e283d2fd7f89c74d77cab83b5eb8'
p1732
(dp1733
g4
I5654
sg5
I5653
ssS'e575cca3e5d18b1e7051c64f435f2cdea71a29ab'
p1734
(dp1735
g4
I241
sg5
I31
ssS'4c2f7f90b4c756b152cf9ff4fc7c413a2694e8cc'
p1736
(dp1737
g4
I210
sg5
I210
ssS'bf2f9dbff3e04addd16ad825e6dae30537677afc'
p1738
(dp1739
g4
I4
sg5
I0
ssS'c725172137a097ca3077b93aed9b3776fe433fe3'
p1740
(dp1741
g4
I147
sg5
I0
ssS'4c160d739a322964b873ca60f90df5384e337c44'
p1742
(dp1743
g4
I0
sg5
I0
ssS'3bb2bfbb593386169e997e3332b236c077a546db'
p1744
(dp1745
g4
I0
sg5
I0
ssS'2fb4d431d073a689a37b1fc42ca0bc700bae732c'
p1746
(dp1747
g4
I2
sg5
I1
ssS'4116c81fb1f9b591008db6b805d81ca6aca521c4'
p1748
(dp1749
g4
I485
sg5
I2
ssS'502772f280428dc18ebd31e126e5d1bcd50913f2'
p1750
(dp1751
g4
I7
sg5
I1
ssS'f65ff954045aea0ef68f8016fdd652ef655a4861'
p1752
(dp1753
g4
I0
sg5
I0
ssS'da775de8eea28299fa2ff74f625773d7a250a421'
p1754
(dp1755
g4
I224
sg5
I5
ssS'a998e084ff98d44e615cb0fc5d2e3991135ad9c5'
p1756
(dp1757
g4
I6
sg5
I0
ssS'dbd9a96b5d58f41420fd6921e0556ed146c8b690'
p1758
(dp1759
g4
I8
sg5
I9
ssS'674543558fa95c41285b874390a54f28e36983a9'
p1760
(dp1761
g4
I0
sg5
I0
ssS'd4bde78921059fc29a0cfd9c9af69494a9eec587'
p1762
(dp1763
g4
I0
sg5
I6
ssS'64cd2af9ad3cb4c1b28af024549efc982c79fbc1'
p1764
(dp1765
g4
I0
sg5
I0
ssS'ce861400b97e884b6b9e326d4708e30d045fe2f2'
p1766
(dp1767
g4
I309
sg5
I33
ssS'd421d34541e2b2b35413f941c1c1e60a1e679ae5'
p1768
(dp1769
g4
I75
sg5
I40
ssS'26acdff0025f378cd503040f5241f1207abda991'
p1770
(dp1771
g4
I0
sg5
I0
ssS'93654dcc583df0d7c3b32c922ab5b9fcb0289837'
p1772
(dp1773
g4
I0
sg5
I0
ssS'b70c19b4ae783507c929ee88f9b0cdcb101a9131'
p1774
(dp1775
g4
I4
sg5
I2
ssS'fdc39c4d6e2cab8da5d8cb9e59823b9534885543'
p1776
(dp1777
g4
I0
sg5
I0
ssS'716e60b5f69a1c51c2861c36b17dc55a8d6929d2'
p1778
(dp1779
g4
I13
sg5
I1
ssS'cfb2682c07c79d7b636b0f44d4633a3e531e0512'
p1780
(dp1781
g4
I15
sg5
I1
ssS'184db924c5b3f208a3e34432e38a253ab4ed8d6d'
p1782
(dp1783
g4
I3
sg5
I1
ssS'a0f10d6455ee285d713dee34e99131cdc6ab0b95'
p1784
(dp1785
g4
I4
sg5
I4
ssS'c6b11373648af4b81367b0424b65b15ee8b58261'
p1786
(dp1787
g4
I14
sg5
I6
ssS'9e091d2500568d3c4b39135faacfb12463b14ae1'
p1788
(dp1789
g4
I0
sg5
I0
ssS'f0f47aa2dcd5812a8e45295531f3d74bfb609313'
p1790
(dp1791
g4
I2
sg5
I2
ssS'4234b53e4a20255884f732e7f208efca19f6eec1'
p1792
(dp1793
g4
I0
sg5
I0
ssS'f927f52864dd6971492fadd90e2176de4d9ac4c1'
p1794
(dp1795
g4
I209
sg5
I0
ssS'0215a772a8d725244a2cf09b49b237eb3fc418da'
p1796
(dp1797
g4
I1
sg5
I0
ssS'6fcf91723dd2efc3f8279b52b8f1a0ad47b216c9'
p1798
(dp1799
g4
I54
sg5
I45
ssS'375d6d07ff376788c9999b066d3f89bcbaf3eae9'
p1800
(dp1801
g4
I4
sg5
I4
ssS'4f9c5bf32008ff5d6c34597737d6fca7613dd769'
p1802
(dp1803
g4
I0
sg5
I0
ssS'4a7130d9c0c5097b2b218bafcde4667ca559111f'
p1804
(dp1805
g4
I30
sg5
I6
ssS'72557abea0956324ea34c9edf5e93cde283eab51'
p1806
(dp1807
g4
I1
sg5
I2
ssS'e3482d8b3db132bed364e5d25db3553c04ef6522'
p1808
(dp1809
g4
I14
sg5
I8
ssS'0d87ea236379023aa646a91df21e52c1c674dd6a'
p1810
(dp1811
g4
I3
sg5
I0
ssS'466600ce8fe53a433883ee6fd2f29026cb0c48a4'
p1812
(dp1813
g4
I1
sg5
I0
ssS'636ec2bd79cf2ef5c716f55eec615ec8996e91ec'
p1814
(dp1815
g4
I5
sg5
I3
ssS'4f48d73e39e81d28215399952aeb1da672cd8c9a'
p1816
(dp1817
g4
I46
sg5
I14
ssS'9dc02da6e6043d91387b153526821130628210dc'
p1818
(dp1819
g4
I8
sg5
I0
ssS'd703a2047c9ab6f1c4e8154782f5d503d9701550'
p1820
(dp1821
g4
I1
sg5
I1
ssS'e1fb8a41c591d75bee8bbb9216d2b14ac41de54b'
p1822
(dp1823
g4
I0
sg5
I0
ssS'0c7c8fb2e0e331d7e1460f2c6476a425abf395eb'
p1824
(dp1825
g4
I6
sg5
I5
ssS'0218f8da4f6405c6a38ea7e01feacf73b35dd698'
p1826
(dp1827
g4
I296
sg5
I239
ssS'864e6f66cebccbc93d5edeca2d5e1128f1b60181'
p1828
(dp1829
g4
I2
sg5
I2
ssS'e3626c4f0e09728f336acc32c5a1f61c4fed9418'
p1830
(dp1831
g4
I18
sg5
I19
ssS'809646f84cd2f0941773ce99acc95ea216ea1cb8'
p1832
(dp1833
g4
I5
sg5
I3
ssS'db602c837436790cf4a98744fa66f4dd20de7f79'
p1834
(dp1835
g4
I9
sg5
I0
ssS'b878ba1d12aca8d123c4ad9b776b6afbe77cfc65'
p1836
(dp1837
g4
I0
sg5
I0
ssS'7879224c905f7f56f1fc0710765a6ce4d5edc0d0'
p1838
(dp1839
g4
I12
sg5
I10
ssS'03ea1a11f328a8baaf6ff11777b42e1f90b088e8'
p1840
(dp1841
g4
I0
sg5
I0
ssS'2e4e232ade206962b7979e7c0299d7ff0cd4ad41'
p1842
(dp1843
g4
I4
sg5
I0
ssS'4cf57012884090aa7374a30f0a697559df0730e9'
p1844
(dp1845
g4
I9
sg5
I10
ssS'b69c65271b29fccc39063b638fb929d2a50ace02'
p1846
(dp1847
g4
I5
sg5
I1
ssS'398c003b236f81c8bb9a98bd1ec817e70e7da8c9'
p1848
(dp1849
g4
I484
sg5
I460
ssS'6d762fce70fcd4edc70358c4b7ef72591cc7518a'
p1850
(dp1851
g4
I45
sg5
I3
ssS'2b862957a285b4c8e6f86c815ace4410afa2e88b'
p1852
(dp1853
g4
I0
sg5
I0
ssS'a6cc9a8caf54d800fcf4fcb31be08a87fd4bf973'
p1854
(dp1855
g4
I2
sg5
I1
ssS'69302c8c5c91a2398863484e480bc57fad83d459'
p1856
(dp1857
g4
I4
sg5
I0
ssS'226e783e20b09f0e9314d4ad2b9a36410e3be529'
p1858
(dp1859
g4
I63
sg5
I63
ssS'7409cd817a5011b3acd348f2be16130d2e59e380'
p1860
(dp1861
g4
I2
sg5
I1
ssS'c35ae9439ec7725828c9973b4788338f3fb10c64'
p1862
(dp1863
g4
I70
sg5
I0
ssS'0ccdb98ebcfd42a74c8898b7999a7b0ba2979b1f'
p1864
(dp1865
g4
I1
sg5
I1
ssS'e02afa5c5ea05ccc3f851ca48e3c734a919203a3'
p1866
(dp1867
g4
I10
sg5
I15
ssS'd7c49e4b4b958556c2a8228368eb1f030144f830'
p1868
(dp1869
g4
I0
sg5
I0
ssS'bf03c785e059ee0e3ab6a229773eae37f48ed877'
p1870
(dp1871
g4
I0
sg5
I0
ssS'06e410d349bf48eb878036ea512485ae79429a5d'
p1872
(dp1873
g4
I1
sg5
I0
ssS'c0f1a9ec3df123eea7c24159f02c205bf0a3f3ea'
p1874
(dp1875
g4
I4
sg5
I2
ssS'4eb0c575b62e43e368671e1e52122afdfd80df10'
p1876
(dp1877
g4
I3
sg5
I2
ssS'6f95a037af0901d49ff3174d33672105b7ef3a08'
p1878
(dp1879
g4
I2
sg5
I2
ssS'37bd92d1b5bfa0bac80dde79a38bca72c03e95a8'
p1880
(dp1881
g4
I51
sg5
I66
ssS'b6f65f9a06e9981c3306b8a085cd789ed2b56697'
p1882
(dp1883
g4
I0
sg5
I0
ssS'ae1ab49990e721625b44315a1a13b8b6bf79d999'
p1884
(dp1885
g4
I7
sg5
I0
ssS'605e04637c0d03d1ea1709ee1650567d14f2c554'
p1886
(dp1887
g4
I14
sg5
I14
ssS'de773eefcb3c1afe54a0c12d5bf9bd214ceaf404'
p1888
(dp1889
g4
I4
sg5
I1
ssS'2f251b6deb645584af805918c4db3d8ab999c751'
p1890
(dp1891
g4
I0
sg5
I0
ssS'7b00c4d7b0eeedceb30f67ad569569a7969c4da9'
p1892
(dp1893
g4
I117
sg5
I0
ssS'9169c7d9a7b2651275adf64136b175cad787724e'
p1894
(dp1895
g4
I1
sg5
I1
ssS'a4e5bb16e8af60646863e74b0ba9aa4cc34ed09a'
p1896
(dp1897
g4
I1
sg5
I1
ssS'3db8042978ea1adb4f120d7560d6e784eda7feb2'
p1898
(dp1899
g4
I3
sg5
I0
ssS'ff0e40884f07fde16b542b883a3c5703092d6b86'
p1900
(dp1901
g4
I2
sg5
I1
ssS'6fe70413ee6c87720ea6421d64683624f230795a'
p1902
(dp1903
g4
I1
sg5
I0
ssS'2b6cdfe4cdc62f521d401bf225fcc77739149174'
p1904
(dp1905
g4
I3
sg5
I3
ssS'e11e1400d91be39c247298286ad84a5c516e3988'
p1906
(dp1907
g4
I18
sg5
I11
ssS'a578bfcb62252a9717956d7fe0f79397e6af2b69'
p1908
(dp1909
g4
I2
sg5
I3
ssS'0d36fa77a3aa0e74007d2874c0353379012e6605'
p1910
(dp1911
g4
I10
sg5
I11
ssS'd37f361aa0efd7565ac3eebb31cb38f25be70abc'
p1912
(dp1913
g4
I50
sg5
I0
ssS'1122945efbf3d1be6fed0e2279dfb81f785ad706'
p1914
(dp1915
g4
I0
sg5
I0
ssS'2e2fe9326b84285fd2c41f622ca94b112a429340'
p1916
(dp1917
g4
I53
sg5
I3
ssS'ab0e6132b1bb9f069017c5a94729612ef043cb21'
p1918
(dp1919
g4
I0
sg5
I0
ssS'1eca3219ccf292b695381f956642e0130882651f'
p1920
(dp1921
g4
I27
sg5
I4
ssS'06c7c58bac102838c46a5bef47e3d1758f7095c0'
p1922
(dp1923
g4
I2
sg5
I0
ssS'b43faf7a3deae34c38e60a0af689fb91018c4101'
p1924
(dp1925
g4
I1
sg5
I1
ssS'9a8dc51f79ce31192c31a25424435035a648abf1'
p1926
(dp1927
g4
I14
sg5
I0
ssS'47f38135620f9ee515df265bf4ec3877b3ef6500'
p1928
(dp1929
g4
I6
sg5
I2
ssS'bef0fae821e2aa09caee777f0f47b7383d3c46a2'
p1930
(dp1931
g4
I195
sg5
I0
ssS'071ecaf8221fdc8cc2793238f067c78a26e2763d'
p1932
(dp1933
g4
I8
sg5
I17
ssS'247f10c32c94a5eb40aad4e7b5d91eb5e8bae080'
p1934
(dp1935
g4
I6
sg5
I4
ssS'1aebdfcfe222274a56780969ff5d7edcfded013f'
p1936
(dp1937
g4
I0
sg5
I5
ssS'e63492b00ef585ed13af5f28f0bebe5b342d54a8'
p1938
(dp1939
g4
I0
sg5
I2
ssS'ae386c2154f65054427f33419bf17b6feda563d5'
p1940
(dp1941
g4
I43
sg5
I20
ssS'958e70fcc1dafe30bc6f571a142791784d8fbb3c'
p1942
(dp1943
g4
I5
sg5
I0
ssS'a9deb08f529cff605b2fb8ab5106832ad06cb9d7'
p1944
(dp1945
g4
I13
sg5
I3
ssS'dcce552eaa41207d6f4c9185f5524cc065b6dc51'
p1946
(dp1947
g4
I0
sg5
I0
ssS'3c987c3948218933842034ee1e127d1f9a1bf61a'
p1948
(dp1949
g4
I17
sg5
I1
ssS'52d50679024586e157ffab365978af38497d07e6'
p1950
(dp1951
g4
I0
sg5
I0
ssS'8de472f74a37d755378d4c16a7feaf45ca894f75'
p1952
(dp1953
g4
I0
sg5
I0
ssS'f59b02389ec2daa84b75606120057bf5ae8f131a'
p1954
(dp1955
g4
I1
sg5
I1
ssS'269747cff17e7f509d16044859f1e51a1d02ccf7'
p1956
(dp1957
g4
I10
sg5
I6
ssS'9a1b29440bfd095c625b35399305532ac3a45b9c'
p1958
(dp1959
g4
I35
sg5
I19
ssS'e161d8412224b980b67c21fcc268edf675c6a7da'
p1960
(dp1961
g4
I12
sg5
I0
ssS'd69c61e568d4e0892017c2ce42650e76aa3d442f'
p1962
(dp1963
g4
I91
sg5
I6
ssS'd8fd9714b2c8c3179f6f6b04299a97bccce3c357'
p1964
(dp1965
g4
I54
sg5
I1
ssS'3e314218e1f691f91eecf7dfadb82d47fad8c185'
p1966
(dp1967
g4
I1
sg5
I1
ssS'520865b6631d91c560a94ebabe476926ed9878e9'
p1968
(dp1969
g4
I2008
sg5
I690
ssS'805112aefae3debc090191ee7d34afa2db953caf'
p1970
(dp1971
g4
I51
sg5
I1
ssS'94b32953e4e47bb4cfda536f0e7b9bad0437119f'
p1972
(dp1973
g4
I2
sg5
I2
ssS'ec3f231adcf474185cf09fdc79655b8d0311e68e'
p1974
(dp1975
g4
I94
sg5
I26
ssS'f5f87c30bee2b43b9e3c32a9e24c75df2217bbb7'
p1976
(dp1977
g4
I153
sg5
I1
ssS'c6c300fa33d94f875527acf52d08c05f593a3146'
p1978
(dp1979
g4
I1
sg5
I1
ssS'a359e8fd9b6a4d7cceefeef3be294187b310b26e'
p1980
(dp1981
g4
I0
sg5
I0
ssS'36e07d9476a67086ec1a8d917cdc703531673440'
p1982
(dp1983
g4
I3
sg5
I1
ssS'26205a0a72fe5dcb95db18bb2bb90af701eacfb5'
p1984
(dp1985
g4
I28
sg5
I19
ssS'55d89cdcfd311add19d15aad975c949c1f3d8cf7'
p1986
(dp1987
g4
I6
sg5
I1
ssS'b498847d056637b405d349ea98681249aa007737'
p1988
(dp1989
g4
I2
sg5
I2
ssS'62058f2d031d91bb6173fe06a1f6f11e22a9f03e'
p1990
(dp1991
g4
I1365
sg5
I1151
ssS'c4255477329a48bc01a4402c11abdb4bc178c235'
p1992
(dp1993
g4
I9
sg5
I3
ssS'1e76fb32b405f13b4f9705788d42900e4bd94b07'
p1994
(dp1995
g4
I32
sg5
I34
ssS'25d3c12933017c47c9d63de939b559846b23fca5'
p1996
(dp1997
g4
I1
sg5
I1
ssS'52a25183d5074a1207ed733e6c0bf5510dd07f80'
p1998
(dp1999
g4
I2
sg5
I1
ssS'4d96ddeff527c3c56a420ee43447076184715e67'
p2000
(dp2001
g4
I0
sg5
I0
ssS'f3a3874555ef6495bc01457a675e35d1d5fd8f27'
p2002
(dp2003
g4
I0
sg5
I0
ssS'ba39888bf4d0224bc0bb9281f037402afbc46e12'
p2004
(dp2005
g4
I25
sg5
I456
ssS'a582d1ca3e66a1ea63b1be8e8102d9f891cb0737'
p2006
(dp2007
g4
I3
sg5
I3
ssS'536425b37b0e7360ab83d53df8ed54f7254a3a25'
p2008
(dp2009
g4
I1
sg5
I1
ssS'44ba3fd479aeb2eac28814054bb123a71204ed27'
p2010
(dp2011
g4
I0
sg5
I0
ssS'5836435fa2911092ebc0b0418b5f7bf9b106cb48'
p2012
(dp2013
g4
I0
sg5
I0
ssS'9b5620a1c2e69c1efe765fce46d2276302edf618'
p2014
(dp2015
g4
I4
sg5
I0
ssS'0b15326c8314691c198a016f4566f4c0ccaf8994'
p2016
(dp2017
g4
I4
sg5
I1
ssS'3f84a28055620ab656304ebd6e75ff71c02b9c95'
p2018
(dp2019
g4
I0
sg5
I0
ssS'9894ff820ea383c79fe798493237a78f612f2e1e'
p2020
(dp2021
g4
I0
sg5
I0
ssS'4502cd9fce0575b02424e58958eb424315acac15'
p2022
(dp2023
g4
I29
sg5
I7
ssS'790310a6e1e7e1ce434ef478507d9a1c9464e298'
p2024
(dp2025
g4
I79
sg5
I45
ssS'8c65b1eae1e0586f6fb36423d0d9f03ec9115c10'
p2026
(dp2027
g4
I69
sg5
I3
ssS'75e44a92a8f92dbeceb5874d3a5d9688594ab7bc'
p2028
(dp2029
g4
I0
sg5
I0
ssS'2daa877ca05c9e7a5f65b36c8b3c4c6aa02e092c'
p2030
(dp2031
g4
I5
sg5
I0
ssS'3df94af950989b4594fde7df509723d77d0df2bf'
p2032
(dp2033
g4
I0
sg5
I0
ssS'6dfe89d41665771512da367f7ba30c991e8c1a4d'
p2034
(dp2035
g4
I13
sg5
I1
ssS'fb04a84e331e6b0a8fd51ed38cd09445af232b31'
p2036
(dp2037
g4
I7
sg5
I1
ssS'c742c150b208e75ded8f59cfb525fe4228b07520'
p2038
(dp2039
g4
I3
sg5
I11
ssS'dd86c4b4b05fc9574452056a1983172e66d5bf86'
p2040
(dp2041
g4
I1
sg5
I1
ssS'609c675a28a0cb299b56db0b3e54aa19437eb11c'
p2042
(dp2043
g4
I4
sg5
I2
ssS'fbe85b6f66e9f5e64c12049ed34d177fe4b463f0'
p2044
(dp2045
g4
I11
sg5
I1
ssS'c38dab51aec039ac3a89778233c190776b5d7e8c'
p2046
(dp2047
g4
I1
sg5
I1
ssS'272cf4c6418093272150d3624e0af4f8948179f5'
p2048
(dp2049
g4
I0
sg5
I0
ssS'b18a1f24ece0976234000d10a31f084b1016a604'
p2050
(dp2051
g4
I104
sg5
I29
ssS'1846ebff5c71a8c3bb0c9cccd29460f656f5a21b'
p2052
(dp2053
g4
I13
sg5
I0
ssS'd3e2dfbc13c9295ba5669d7828bf47db1be017df'
p2054
(dp2055
g4
I0
sg5
I0
ssS'39013947bd2e242dda85fb0f150c49be23fd7510'
p2056
(dp2057
g4
I19
sg5
I2
ssS'c8526107a8b2356f61cac13f0520dd96d7705612'
p2058
(dp2059
g4
I5
sg5
I2
ssS'aa002236029b085365d5816633d9827af3ca31ab'
p2060
(dp2061
g4
I0
sg5
I0
ssS'eebdab96001c8198658b728334e2df197b9b7d95'
p2062
(dp2063
g4
I108
sg5
I0
ssS'4da15da8e4ac49b42f7d5ab2c9b42de2f2d194c6'
p2064
(dp2065
g4
I15
sg5
I1
ssS'e11756cf9bc3f1b6a668c2218cede7e99750459c'
p2066
(dp2067
g4
I12
sg5
I0
ssS'c68ff37b928be9ba5179596ec2792d2d13e46458'
p2068
(dp2069
g4
I0
sg5
I0
ssS'30cbfa46e17840b438de848a0b9f9b6b6cd035af'
p2070
(dp2071
g4
I0
sg5
I0
ssS'c8a63500581644a184df782b19e3a5b7dec32702'
p2072
(dp2073
g4
I15
sg5
I10
ssS'593ee6bdad3b781019bee1fc5be4a06589a068c1'
p2074
(dp2075
g4
I16
sg5
I1
ssS'86173b4d4704cf67f16717350f5b95a808cf18ec'
p2076
(dp2077
g4
I3
sg5
I2
ssS'529fe69f995c8e5ba98e89dce624f2c1def9737a'
p2078
(dp2079
g4
I1
sg5
I1
ssS'c7ddf2db7aba0193c070350900c39ac2e260a824'
p2080
(dp2081
g4
I0
sg5
I0
ssS'925b2591194b764d2973045d85c693020583aac8'
p2082
(dp2083
g4
I1
sg5
I0
ssS'4a14f204908eb7f6fb9ac3a0ece5730b3d4146cb'
p2084
(dp2085
g4
I0
sg5
I0
ssS'2ada9f7de518897bb56b007170f6990ae1401687'
p2086
(dp2087
g4
I2
sg5
I0
ssS'54a4632171d054ba2e1ad7538c74d626432d0dbe'
p2088
(dp2089
g4
I22
sg5
I44
ssS'0731fbfe722621663fd2279039a8e8aceaa94e68'
p2090
(dp2091
g4
I13
sg5
I8
ssS'313a1c224f3245091b11af3f9ac67530b8e0f3e6'
p2092
(dp2093
g4
I0
sg5
I0
ssS'29597b9df3046611f037059cf392e48090bc796f'
p2094
(dp2095
g4
I52
sg5
I9
ssS'8a44ea0825a723da2bd8441ba46f903945d07299'
p2096
(dp2097
g4
I25
sg5
I18
ssS'6f1f4b660f8fcfbdc21a33c8df51485c2bb5725a'
p2098
(dp2099
g4
I18
sg5
I30
ssS'e0ed5d8ac3174dd7adf023baaaeb35aaefa0081c'
p2100
(dp2101
g4
I66
sg5
I11
ssS'17d904d752de07df4dbba876a71e35a8b0457aa6'
p2102
(dp2103
g4
I13
sg5
I8
ssS'8c6fd8d8b7ae7746eea3966db472763ef01c283f'
p2104
(dp2105
g4
I56
sg5
I0
ssS'1ee0003814a5f89090f59802cbcccdb1e9f0938d'
p2106
(dp2107
g4
I9
sg5
I0
ssS'db40f9989545fc170960f692bedd3c8ba2cf0642'
p2108
(dp2109
g4
I6
sg5
I1
ssS'38d00ac1569bbdfdd88f8c3e919adc7651cb6b51'
p2110
(dp2111
g4
I11
sg5
I0
ssS'4f913c6a6568c815e207435f1f12c72bdb1d7547'
p2112
(dp2113
g4
I3
sg5
I1
ssS'c5969278122901448824ce5f875e894a00dc587e'
p2114
(dp2115
g4
I4
sg5
I0
ssS'1a186cec18a503ee2f26026138a5614fb582e46f'
p2116
(dp2117
g4
I0
sg5
I2
ssS'3996d1bf6ad2404b7eb34637df53480c6f2b9c28'
p2118
(dp2119
g4
I12
sg5
I1
ssS'26c9db82c059d9ed4affe25744bb7ab60cf7c4a5'
p2120
(dp2121
g4
I0
sg5
I0
ssS'13905ac61bacc28de4591d5c374e9a70a762d6d2'
p2122
(dp2123
g4
I1
sg5
I1
ssS'2f7fd6cde2e10a9980ad4ef2e438d6b93769e613'
p2124
(dp2125
g4
I41
sg5
I9
ssS'105b8a503480b7e5066ff3286d2ccc104cf021de'
p2126
(dp2127
g4
I36
sg5
I35
ssS'8ba2b3a6c7b5ba94eae93187a0f4ac6dbe80d22f'
p2128
(dp2129
g4
I59
sg5
I535
ssS'0cb3857cb5a193489d20a40b480bb142fc8e12ec'
p2130
(dp2131
g4
I1
sg5
I1
ssS'a3ef5510d4d0e7bed627a5fdc2a078ed1021a446'
p2132
(dp2133
g4
I0
sg5
I0
ssS'd1cb48b4be073b446981550e9cf66b8187fda68f'
p2134
(dp2135
g4
I8
sg5
I6
ssS'10c5896005de940c0c6f85834b0e4560daf1744d'
p2136
(dp2137
g4
I4
sg5
I2
ssS'fc2d1218e015adcf65ba01965884430c47895cd0'
p2138
(dp2139
g4
I153
sg5
I148
ssS'fd3e25b267f0e3cc239c2bc6dee77dfaf957d09a'
p2140
(dp2141
g4
I1
sg5
I1
ssS'baea1c8b4f882c7b3d145b28b0cd065ea10379de'
p2142
(dp2143
g4
I0
sg5
I0
ssS'bd4cfe64560d240ffa031062bab9482c7f05091f'
p2144
(dp2145
g4
I2
sg5
I3
ssS'03f93bd968b2e664c4e1ccd79e48fc3e5d359465'
p2146
(dp2147
g4
I144
sg5
I0
ssS'7d6294b10cbe21bd7af67ce8b698b1c4ab18238c'
p2148
(dp2149
g4
I1
sg5
I1
ssS'3f817cd6463a79ff89ae536e7af5b741a74d9f10'
p2150
(dp2151
g4
I15
sg5
I14
ssS'00f5de52a8fb944c968213501ccdf1bbc9e751d0'
p2152
(dp2153
g4
I14
sg5
I0
ssS'349d9f398afd58cc993f207c4035b85e2bf86b26'
p2154
(dp2155
g4
I10
sg5
I1
ssS'48a17b3262d5b7b11dc06de8a215f9d68503e05a'
p2156
(dp2157
g4
I0
sg5
I0
ssS'4757b62140a0e0aa6f96b6269ade5802442d066a'
p2158
(dp2159
g4
I38
sg5
I11
ssS'933711ecdb4f1235307dc5815eac1828d523f4e1'
p2160
(dp2161
g4
I0
sg5
I3
ssS'd2e39378991bf762ec4ba6c33da011bbca395851'
p2162
(dp2163
g4
I5
sg5
I1
ssS'b89a7476916e4fd04c1a5c27dde614fbc5acecd5'
p2164
(dp2165
g4
I69
sg5
I43
ssS'0fee646124b4af3cdf16189c64ac64777bc1c919'
p2166
(dp2167
g4
I0
sg5
I0
ssS'335d9e8b427163bc64c18cb7ad54e609fcd84b23'
p2168
(dp2169
g4
I2
sg5
I2
ssS'7dc262a95b57f429cd6179e8d5250b8462979e67'
p2170
(dp2171
g4
I1
sg5
I1
ssS'3023c2b9bc17c556348a8602b7e82c52da1ee36d'
p2172
(dp2173
g4
I1
sg5
I1
ssS'b373b48ab363fea2195d00f4e2a91cc77315f2a0'
p2174
(dp2175
g4
I2
sg5
I0
ssS'a07d520defb04f0d35febb55470d331ef451da92'
p2176
(dp2177
g4
I1
sg5
I1
ssS'4ef9e33d85ef85998ea2a4d211569056058524cf'
p2178
(dp2179
g4
I1
sg5
I1
ssS'a05075dc4f316a600cd1a2374f783ddb0aaf2a0e'
p2180
(dp2181
g4
I1
sg5
I1
ssS'1de3a7f69a7da291cb85c92e3c3b416af70bc4e4'
p2182
(dp2183
g4
I0
sg5
I0
ssS'b0b44762b1074af14db60da8b8db1ed2b4b48765'
p2184
(dp2185
g4
I1
sg5
I1
ssS'c4c5a480485a4bc39149c62ff1bc289e82542cda'
p2186
(dp2187
g4
I1
sg5
I1
ssS'8624bfc87f0fa24548d01ee33de77fedd802d146'
p2188
(dp2189
g4
I292
sg5
I0
ssS'8f9c984202976e62d7e376338fddc4ef39be74e0'
p2190
(dp2191
g4
I56
sg5
I11
ssS'b650d785223409d6ba04e906eb8c22c9efb788bd'
p2192
(dp2193
g4
I6
sg5
I0
ssS'e4a27e70d9855d42112016c62afbb1c82fd35fd6'
p2194
(dp2195
g4
I1
sg5
I1
ssS'31710fe8b16ff3b19ccc770a635ed7994f00562d'
p2196
(dp2197
g4
I167
sg5
I11
ssS'4f0f00122a9d5be9efdbb8413c3618bed3f3a380'
p2198
(dp2199
g4
I0
sg5
I0
ssS'c2505585c05929035fde77ce05bbf45b5e04be89'
p2200
(dp2201
g4
I1
sg5
I0
ssS'739c67342f71c94d10b0f2af869202a9391ae3f4'
p2202
(dp2203
g4
I7
sg5
I2
ssS'8931f3ad93fa051ca81cf53dd1b1c8f7169c8142'
p2204
(dp2205
g4
I6
sg5
I2
ssS'9d385d5794d54c6ae82f823e688a6f39739b72b4'
p2206
(dp2207
g4
I25
sg5
I2
ssS'2261e99ae65fafd03aed337bf100faa6942108e3'
p2208
(dp2209
g4
I9
sg5
I833
ssS'cf8d28ce21c71cebda6f82a6d58dc7c3f1d742cf'
p2210
(dp2211
g4
I2
sg5
I2
ssS'ff5088ad2f028dfad0ac9f1ed848802939a0c0e4'
p2212
(dp2213
g4
I1
sg5
I0
ssS'1fa7cf1823faa477b88e6b62e80a4e13dbd48809'
p2214
(dp2215
g4
I32
sg5
I6
ssS'edab385f951e38d65a25003f193793b63037bdec'
p2216
(dp2217
g4
I83
sg5
I36
ssS'273d5139a880a90dc6afd658199339af8e031e6d'
p2218
(dp2219
g4
I13
sg5
I0
ssS'35fee2b8f21372d02a2e460a07e19a2abe5f2169'
p2220
(dp2221
g4
I14
sg5
I3
ss.