(dp1
S'5c8f56f0d318028f21de9eb76b75561389a16b11'
p2
(dp3
S'insert'
p4
I1
sS'delete'
p5
I24
ssS'e28917b518c9af3e16b9ae3e6b99bf7cdd955416'
p6
(dp7
g4
I966
sg5
I966
ssS'11d76012a60ba275bdd4fdf1c457df204e57ed5d'
p8
(dp9
g4
I91
sg5
I72
ssS'3e4da0d0d5a7d88891a98b5cbf6a10aaadd69bee'
p10
(dp11
g4
I0
sg5
I1
ssS'2c2f2a62b41b642ee95a195ea5658f951cadd1c6'
p12
(dp13
g4
I2
sg5
I2
ssS'240a23abf56ffb1d9d231ca81872158c7fa39cac'
p14
(dp15
g4
I46
sg5
I6
ssS'dad18d7fb91d829329509e3522c2cb674af74361'
p16
(dp17
g4
I3
sg5
I3
ssS'c81ddbd075b36d8d3a1f941ff78cd687b67133d4'
p18
(dp19
g4
I28507
sg5
I55
ssS'2baebe9268e8c02393779f2418dd3a83e3912915'
p20
(dp21
g4
I8
sg5
I8
ssS'85d11f6e4fce1b9c90c76a917a97993f3b247c67'
p22
(dp23
g4
I12
sg5
I6
ssS'f8cd1c20506d819fa505ea05a090716ca1cc957f'
p24
(dp25
g4
I9
sg5
I2
ssS'7a35d3ab178f895b01bfdc07301a1571bab4921a'
p26
(dp27
g4
I131
sg5
I0
ssS'40bf4dce0f92326f611da46a3a8ae3298bf82d53'
p28
(dp29
g4
I0
sg5
I0
ssS'9fd9d3998d53deb6cba6abaee8ab60fb1a88c411'
p30
(dp31
g4
I21
sg5
I127
ssS'9b81182b1b653152c7ca29ee9858e0aa5445fcf3'
p32
(dp33
g4
I3
sg5
I3
ssS'b4bcef0b3351cb5ba9b4f1a2ef994be235ce1ac2'
p34
(dp35
g4
I61
sg5
I61
ssS'01cbfbb52475a38b13feb234c48beaf2be1090f4'
p36
(dp37
g4
I2
sg5
I5
ssS'1491e532fa05a7e2420624677099b445e0efe1a6'
p38
(dp39
g4
I6
sg5
I0
ssS'fe36cc35dd5cdbfe4f590425803ac8b614174445'
p40
(dp41
g4
I1
sg5
I1
ssS'1b4b0dbd8fa7d49aa929ad3c16354e7b9af42129'
p42
(dp43
g4
I0
sg5
I0
ssS'cd6ea9365b93d4cb16cd7d7fb5ed057214fe3cdc'
p44
(dp45
g4
I112
sg5
I31
ssS'901a1b165ed07325455598588bbd515a6d2a43bc'
p46
(dp47
g4
I77
sg5
I5
ssS'd6a0e89caa839565dcdd458a4a2311fd8f8438fb'
p48
(dp49
g4
I18
sg5
I0
ssS'beaf0fa65e0b99abd56bb1697bb329e8a471abf2'
p50
(dp51
g4
I28
sg5
I8
ssS'1c48c0419cf1be05b0e66d1e684b9e42d21727f6'
p52
(dp53
g4
I1
sg5
I1
ssS'116601220d71a03023c0848d44731277529155fd'
p54
(dp55
g4
I75
sg5
I72
ssS'a4ce2aa1b0f1956306cbb43aa5267c9a0620e22b'
p56
(dp57
g4
I1
sg5
I1
ssS'9323e0aed71a7df0fcb79aee950aaf27c8d0c641'
p58
(dp59
g4
I11
sg5
I10
ssS'69fc7abf817a476d7f44d35cccf090de013c2b87'
p60
(dp61
g4
I1
sg5
I1
ssS'aef158d882b5d8770ff05b205c4cfc4f27a0dab1'
p62
(dp63
g4
I0
sg5
I0
ssS'ff2aa8d60db7952a83a70e28b268ec4233d4cebe'
p64
(dp65
g4
I1
sg5
I1
ssS'192453759cd7befe3aa5a778467ff439b7560144'
p66
(dp67
g4
I331
sg5
I55
ssS'8d3b73a3ae6cb12d76e9b646fe35a925b243fb54'
p68
(dp69
g4
I1
sg5
I1
ssS'a0e4af8b073202c326bfec6ffbb216ca1bd7bfa6'
p70
(dp71
g4
I94
sg5
I6
ssS'83f365b50d90983d5f511e028dbe4d22a671da69'
p72
(dp73
g4
I0
sg5
I0
ssS'68373f17eb33950c3766da0d45815f0ad3449669'
p74
(dp75
g4
I5
sg5
I7
ssS'389fc363d8c0c6b884e822a7304aa5ff58933e9d'
p76
(dp77
g4
I1
sg5
I6
ssS'f93e271253e41470b458c0b33ead50efd2c9f4aa'
p78
(dp79
g4
I1
sg5
I4
ssS'bca04e3450043aea2bb52f39a3c9be4f6ba68d46'
p80
(dp81
g4
I0
sg5
I0
ssS'ad7945b65ab9467d2a81ed9013f7b4cd5b75ce5b'
p82
(dp83
g4
I1
sg5
I1
ssS'0e5d090f7ed2d9b451a1b8ffcc89c3835e202477'
p84
(dp85
g4
I1
sg5
I1
ssS'13a3d1166337aebb15a4934b67a7eb875cca79cc'
p86
(dp87
g4
I3
sg5
I3
ssS'a496897a5a3c05994fb8698b4edbae10b10cd5e8'
p88
(dp89
g4
I55
sg5
I1
ssS'222ab196f826fc6ee6ff61be51159b0c0efb7808'
p90
(dp91
g4
I15
sg5
I13
ssS'9616c64e4a9b0c73f2e08a95e32bfacef7fd1546'
p92
(dp93
g4
I3
sg5
I3
ssS'c64bf4058c6f0373bc5e20d8a29fdc633a37e082'
p94
(dp95
g4
I16
sg5
I2
ssS'4568eb99c049fd8316ab47076c78b82a55b58e8f'
p96
(dp97
g4
I0
sg5
I0
ssS'82ce3083842171ed83e26c2db6c5d4633ef5f284'
p98
(dp99
g4
I15
sg5
I12
ssS'001aafd29b201a047a3ad95ae7803ec4be2d0847'
p100
(dp101
g4
I6
sg5
I3
ssS'38e5d870cbda4439899b4e940459a509ae6bf69b'
p102
(dp103
g4
I22
sg5
I11
ssS'19fdb4d35cd2d99c0bfdc69d6ac60acd3521d1f7'
p104
(dp105
g4
I1
sg5
I0
ssS'56c392c6ba3f7e06edc234d9745ea110ce465424'
p106
(dp107
g4
I78
sg5
I74
ssS'd6f6184cc279493d6392435c2f0162650e009def'
p108
(dp109
g4
I765
sg5
I107
ssS'8665e79e70fd040eefd8c9d2535136a430b94d36'
p110
(dp111
g4
I21
sg5
I1
ssS'5b9bde289349a2f09e0638e1792f861acf82af9f'
p112
(dp113
g4
I3
sg5
I3
ssS'bb7ebc3070d28e02e4d389c6ef3a4eb719032163'
p114
(dp115
g4
I124
sg5
I52
ssS'd1a24912dadcb766f2b6d802262c343041177e4d'
p116
(dp117
g4
I0
sg5
I0
ssS'f346cd9f34488b27f763427756407600f8f27d7c'
p118
(dp119
g4
I22
sg5
I5
ssS'4c1c2e6928f978bff7c0a1926277d35419d3cb57'
p120
(dp121
g4
I186
sg5
I183
ssS'97eb44c2733a3393e0ff6106e274752a05f71944'
p122
(dp123
g4
I7
sg5
I7
ssS'ff2676399a0fc97f5a3db9e386b084ebbd7856c4'
p124
(dp125
g4
I42
sg5
I9
ssS'c23e03a12d9e1a668f41348cad375a64cd6ddd59'
p126
(dp127
g4
I1
sg5
I1
ssS'e443cc2006b66d5ea07930f3d05195cbae348913'
p128
(dp129
g4
I5
sg5
I0
ssS'a90736e553ca3b4209d9b3d7ad0803be595a3ba9'
p130
(dp131
g4
I0
sg5
I8
ssS'764537cf6d5faa4de9eb505cd789b9a3525c5ca1'
p132
(dp133
g4
I17
sg5
I5
ssS'b75e057bafc0e02835e40faeaf75c26d066a3fc1'
p134
(dp135
g4
I3
sg5
I0
ssS'a47a5cd175e0cf24265af61a195f010ec79d6e6f'
p136
(dp137
g4
I38
sg5
I37
ssS'119611b9516df80971b8f55cb2567c22749b1d42'
p138
(dp139
g4
I0
sg5
I0
ssS'061ab81d2f914019530633a030bc1c9f8aeb85d2'
p140
(dp141
g4
I5
sg5
I5
ssS'f82c92a98eb7e2ce3763c52f72d5faa58564c17a'
p142
(dp143
g4
I0
sg5
I0
ssS'9b5bc34c2d2f9dbf854cd9ff7cfed6baa5de203d'
p144
(dp145
g4
I10
sg5
I4
ssS'3d2292f3a2dba55b101177e0fe13427602891fe6'
p146
(dp147
g4
I14
sg5
I2
ssS'0dc385d7cd9bc035e23c4f7a71ef9840d693b82a'
p148
(dp149
g4
I117
sg5
I53
ssS'81c6bf0da265d117b2ac7ff32a6ec554bbba85ad'
p150
(dp151
g4
I1
sg5
I1
ssS'dbd2346df75aef689fa3f3dec74f1322471a6742'
p152
(dp153
g4
I0
sg5
I0
ssS'e97b87639135440c4f42245a9c505fd945780376'
p154
(dp155
g4
I75
sg5
I1
ssS'b37fd51b92aaf9b3cf5216235c87d85080547c9b'
p156
(dp157
g4
I11
sg5
I3
ssS'7ef0742d65d3e1be3bd2bcf1a48cdc159b1a191b'
p158
(dp159
g4
I1
sg5
I1
ssS'e37a77ef7b288e3c090954a3f0d6c2967ff707ee'
p160
(dp161
g4
I1
sg5
I1
ssS'5874f1b0013f6bde6fcf0342882340edc8315ba3'
p162
(dp163
g4
I18
sg5
I1
ssS'652deb44295044ad1429c9939f04556849c65ccf'
p164
(dp165
g4
I7
sg5
I2
ssS'15cf1a0852c05cc26de059dfaed3c72fa55b0717'
p166
(dp167
g4
I135
sg5
I46
ssS'a0e2fc54446fbfcfdf9fe6b54a692448fc6961a2'
p168
(dp169
g4
I19
sg5
I1
ssS'74b61d8321eb33230470067bfe175b7717fb1411'
p170
(dp171
g4
I0
sg5
I0
ssS'95dfbee9e17bf87865ba7e32cb358079f9918f76'
p172
(dp173
g4
I2
sg5
I1
ssS'398e246bf0c427762a6c379ca58eed08485b5401'
p174
(dp175
g4
I0
sg5
I0
ssS'98b757d2b2b05791e969e185e7d81c8af8fbfb38'
p176
(dp177
g4
I3
sg5
I3
ssS'e5320e8481603ef4886c4d859f76b32d48af7a9d'
p178
(dp179
g4
I18
sg5
I10
ssS'f982e081ae08bf4045a8acd696f8ff6cc3af7088'
p180
(dp181
g4
I235
sg5
I57
ssS'a333d34ecc2badb52f2b64eee65096ca0b3fad61'
p182
(dp183
g4
I264742
sg5
I4571
ssS'9b27f067fb2bb0a10fde2b58a606960371646d01'
p184
(dp185
g4
I19
sg5
I19
ssS'999bce623e1f40bf2ec036f55c9484fed6a18d51'
p186
(dp187
g4
I2
sg5
I1
ssS'b9f64201478d845a6ba72329de91cff97b226a86'
p188
(dp189
g4
I5
sg5
I5
ssS'a6d820009a63354891d6b160cd463e2efb39803d'
p190
(dp191
g4
I2
sg5
I2
ssS'af16937db7c0d162fe1031ce7a1f4cd70e301641'
p192
(dp193
g4
I30537
sg5
I258192
ssS'807a2a46853730189e0ccaf9153838f9e1aebf11'
p194
(dp195
g4
I1
sg5
I0
ssS'd9354ad89424947e58caa61ff442347691d3ca7b'
p196
(dp197
g4
I8
sg5
I0
ssS'17cb552a6172b14b34581a61b51edb29888a901c'
p198
(dp199
g4
I2
sg5
I0
ssS'f4a36f3762e5606bd097e635aa854553416ccf49'
p200
(dp201
g4
I0
sg5
I0
ssS'8a8fe90c1e9c080402c8cd0b82df36aed4b6ecb1'
p202
(dp203
g4
I73
sg5
I20
ssS'8412c0bbc37e2b457fea20c707d2ae127393e679'
p204
(dp205
g4
I1
sg5
I0
ssS'906271a2d7a9853e7a52c051e3e060c807a336ca'
p206
(dp207
g4
I14
sg5
I7
ssS'244938360208716d77bd2bc3cdff787d37288908'
p208
(dp209
g4
I4
sg5
I3
ssS'f16553da44cbfb8454243730006a315120824f65'
p210
(dp211
g4
I6
sg5
I3
ssS'0acfea8f22106417545ef52c41543a115ed0e505'
p212
(dp213
g4
I58
sg5
I0
ssS'a005ca7e9f98c216f4e17f5654f3270135c7cb60'
p214
(dp215
g4
I0
sg5
I0
ssS'bfc138c4ab5f6ba7f75aed586157e690e95d0311'
p216
(dp217
g4
I62
sg5
I87
ssS'1ba8d8b4a44b7406c18729c21912cc4d7d04d476'
p218
(dp219
g4
I9
sg5
I2
ssS'15902179bfdac14d8647d06d95440a69ca6bf9c6'
p220
(dp221
g4
I43
sg5
I55
ssS'92d93fd3c7f598ce98241641a36b66e691b1eeb4'
p222
(dp223
g4
I12
sg5
I6
ssS'b1f5dd50583f9a656b0b125c745da82fbb330d61'
p224
(dp225
g4
I0
sg5
I0
ssS'027fd5558846cea7de9ac7d3f6d939d9c1d3a215'
p226
(dp227
g4
I49
sg5
I46
ssS'cbe31ae18e4c9bafeb7c9a4cf8a3728fb1ff086f'
p228
(dp229
g4
I1
sg5
I0
ssS'95df4b3eed1a28620ca7e76f6ed080175324623e'
p230
(dp231
g4
I0
sg5
I0
ssS'f3d02ed7c0de98211cf5f79b37b7e55734e51594'
p232
(dp233
g4
I222
sg5
I195
ssS'7967f652fd4c6f53ea3f705ce1d5a91440c99fd8'
p234
(dp235
g4
I12
sg5
I0
ssS'5a2f70ec6215f9e3473475423670519a1c310c51'
p236
(dp237
g4
I1
sg5
I1
ssS'3071dd6b6ddba42ef5d05a515191841630f7fc2c'
p238
(dp239
g4
I1
sg5
I1
ssS'1ff241cc23275f934dfa0dac3bd4b5a341bfa6e5'
p240
(dp241
g4
I43
sg5
I20
ssS'2c1fc12e2b813f58b9c8e01e03c04807a1e8bfa7'
p242
(dp243
g4
I0
sg5
I0
ssS'3bfd6944f4dcd6158a1f07676664c34f63682449'
p244
(dp245
g4
I3
sg5
I0
ssS'c4395748981262c313d4fda707d0d400f60c159c'
p246
(dp247
g4
I54
sg5
I2
ssS'd43c110d123287f61615e8c2daf8de920a815b2a'
p248
(dp249
g4
I70
sg5
I65
ssS'f1be8761eba69b97c3fff5061e147b8f0b5e1bfe'
p250
(dp251
g4
I2
sg5
I2
ssS'74e00b8858fe738623de7b2058b1712aa06d7200'
p252
(dp253
g4
I5
sg5
I2
ssS'87a83ee5b0091382c8f58c5a687ccdaec46007fa'
p254
(dp255
g4
I22
sg5
I30444
ssS'10cab3539d238fe9c5f2ca234ba17a6675fd46d3'
p256
(dp257
g4
I1
sg5
I1
ssS'feaa55cd0b20137f62737f6c0099b8f9b3dd4be3'
p258
(dp259
g4
I4
sg5
I0
ssS'3a303f55f00f28b6b2fe3a2208ad322cf94c6741'
p260
(dp261
g4
I99
sg5
I9
ssS'7630e43865040e431ae3803aa905ab0114a5b4ee'
p262
(dp263
g4
I0
sg5
I1
ssS'7519f6c96b21bfd6e61862cbe96c828789c5e5f4'
p264
(dp265
g4
I2
sg5
I2
ssS'12b2f3911525f2eea8946c249b51432d496ecec7'
p266
(dp267
g4
I2
sg5
I2
ssS'4adb7b1631102d35b7b67bc60032d66c4eabe8df'
p268
(dp269
g4
I1
sg5
I1
ssS'868ba3738a71d27c0e63a8c9fe79969a20904adf'
p270
(dp271
g4
I17
sg5
I0
ssS'5722b72ac49d3a5770502a4d5c01362b94a8c0a1'
p272
(dp273
g4
I4
sg5
I4
ssS'5059bfb3b294b852ed5b695902571e09a3ea045a'
p274
(dp275
g4
I9
sg5
I1
ssS'e723a583edd36bdee21c48e1b6db0e7a2a7f57a9'
p276
(dp277
g4
I18
sg5
I10
ssS'fc175d7ba8d2ab9a9ac2807163379b1970ee4a68'
p278
(dp279
g4
I1
sg5
I0
ssS'4dccffbf09a12fe35e3aa9d1b6757c947e75ccf6'
p280
(dp281
g4
I18
sg5
I1
ssS'4ff18f8b18909d3bf45974e7eb48bfdbca699d71'
p282
(dp283
g4
I80
sg5
I11
ssS'790b5c7d51c10f48f13eeeb940dec146ca6a6a9a'
p284
(dp285
g4
I0
sg5
I0
ssS'02d8fea7b2b52d12796dd06d32ff2ce290d5ea3f'
p286
(dp287
g4
I1
sg5
I1
ssS'776344c1250cb472ac059ef2352aba23803b9b4c'
p288
(dp289
g4
I2
sg5
I1
ssS'6aa2251ed185b0fd6fb5cb76e9fbe0879f22deca'
p290
(dp291
g4
I2
sg5
I2
ssS'6593de983283f070c973446ddb5590d0101a2ee2'
p292
(dp293
g4
I1
sg5
I1
ssS'cb0eb8d770d08b4d97a5633c17d74e29835dd98d'
p294
(dp295
g4
I0
sg5
I0
ssS'6d0bb40b1f438eba5d72cd78e7d9ca7f3358a4cb'
p296
(dp297
g4
I0
sg5
I680213
ssS'd560bf63e3562dc6eeb6af4a4b1f2499d884bbad'
p298
(dp299
g4
I1
sg5
I0
ssS'd557e0919fb834602b6b81cf31852d53d31ddf45'
p300
(dp301
g4
I0
sg5
I30492
ssS'5c0f202092b8dde17131200ca101d9e3c985974c'
p302
(dp303
g4
I0
sg5
I0
ssS'3defd623c59fd7ef2f5b10dfbf11036ccdb2fc94'
p304
(dp305
g4
I2
sg5
I0
ssS'14439cd198b0e6ebda5622a7b76e2cb81928fe5e'
p306
(dp307
g4
I324
sg5
I286
ssS'7b0ce196f37e26a01126c312d2db57d41a89684d'
p308
(dp309
g4
I123
sg5
I106
ssS'91e8aa21a127546a409df33261f9afa1679dedc0'
p310
(dp311
g4
I1
sg5
I1
ssS'7529c778e42d8ecfb65616ba282644fe7db65506'
p312
(dp313
g4
I7
sg5
I6
ssS'35914205a9c8fc507d805a7fd4b74720e6f573a9'
p314
(dp315
g4
I19
sg5
I0
ssS'bfc15783356877a687ad2e6da133eaed00bb8494'
p316
(dp317
g4
I0
sg5
I0
ssS'8e0fb8b3a3bbfa6b752b9466eba0b688bcbfdbcf'
p318
(dp319
g4
I12
sg5
I6
ssS'96d4a3e9eb17a31d85efd7fc21ea6c6a965caa1c'
p320
(dp321
g4
I4
sg5
I4
ssS'ced3e60de62d0b0fd258c53ae66007c20a64f5fa'
p322
(dp323
g4
I5
sg5
I0
ssS'931796bd85f8422f1514afeca0a081bd979ef32d'
p324
(dp325
g4
I0
sg5
I0
ssS'aadec31fd51e6890c32347acee8a1cedeaa7bacf'
p326
(dp327
g4
I680631
sg5
I440
ssS'f8a564a53a1dee0dc844f58fa361e115f4745cf4'
p328
(dp329
g4
I1
sg5
I1
ssS'b9fb34bb78c6759cd715fb324117233e8674b4ca'
p330
(dp331
g4
I0
sg5
I0
ssS'76e41601ecb62051a7e30de1aa793c10def49f89'
p332
(dp333
g4
I4
sg5
I4
ssS'35957d3f6dbed352fd6a7778397c636549a22869'
p334
(dp335
g4
I91
sg5
I91
ssS'c4611a6f44eab4a95bf4690f06f4fe81ce6fb132'
p336
(dp337
g4
I14
sg5
I7
ssS'3f42499fbbc9a8d3bf669d8ad36e33ecf1516728'
p338
(dp339
g4
I2
sg5
I2
ssS'397224a81fbff93414a6bfb472419e2ee79d5d9a'
p340
(dp341
g4
I4
sg5
I0
ssS'13193f6939c669bcacc629d143cbf48e1d98f7f1'
p342
(dp343
g4
I14
sg5
I5
ssS'0bb1378a37beb2d7137249b54adb55a5d162b540'
p344
(dp345
g4
I9
sg5
I11
ssS'a96ac195a779a7e205fbebbb27e3c0156ebd3de2'
p346
(dp347
g4
I1
sg5
I1
ssS'd15f3f09af0a1d08b4c63b3198dcac9e7e27449d'
p348
(dp349
g4
I383
sg5
I262
ssS'85087c6bdff113bcbbc7c73b8bbe0310e8ff7ca9'
p350
(dp351
g4
I1
sg5
I3
ssS'963c44f1c8334884d438da5ad25170b1b33d46bb'
p352
(dp353
g4
I442
sg5
I9
ssS'178f7272a50a7203487ef324e3effb7094aa75cb'
p354
(dp355
g4
I13
sg5
I8
ssS'8104fcf149a5753714864e6ce948215b647e19f8'
p356
(dp357
g4
I9
sg5
I6
ssS'006abcb05e7e7217b009e2c054f97d2b316a2811'
p358
(dp359
g4
I311
sg5
I29
ssS'2fb39fd1eb85b90609ae3c23451942c7f3b22de7'
p360
(dp361
g4
I287
sg5
I0
ssS'94d5a86ea388d315b6f98ada3723d54db72f1d3f'
p362
(dp363
g4
I0
sg5
I0
ssS'07c70fd17a0c4d5a13b534c4f095aecb17236ff1'
p364
(dp365
g4
I0
sg5
I0
ssS'150e559f4645c41a1b08171455cdd260244c4ecd'
p366
(dp367
g4
I2
sg5
I1
ssS'b2754fe1308dce90933f4bfdb8b207f48009c70b'
p368
(dp369
g4
I1
sg5
I1
ssS'b2fe56162203905bbaab4a2fdb29f45fee1e5c35'
p370
(dp371
g4
I54
sg5
I16
ssS'a935dafad012b7329ab050cbe4fa0d56a9da221f'
p372
(dp373
g4
I126
sg5
I123
ssS'29a8f1736d466090a612acb07176ae0dc0ca6745'
p374
(dp375
g4
I21
sg5
I5
ssS'c10b0f282d13405799e4d324fd0279e1a42483cc'
p376
(dp377
g4
I5
sg5
I5
ss.