(dp1
S'8f975ed5c1195038f71db36ccc6c1c5b2b8cacd3'
p2
(dp3
S'insert'
p4
I1
sS'delete'
p5
I1
ssS'83d1eea8343c7e5259cb95e4d4dc67843807aeb2'
p6
(dp7
g4
I6
sg5
I7
ssS'928b281c2e1f3fdd7934613e1fc91c91e492f4b7'
p8
(dp9
g4
I3
sg5
I2
ssS'71c16b68e0c9d30dc9f46faf2d10d252208f1bcf'
p10
(dp11
g4
I7
sg5
I1
ssS'77d5a4420209a4ca00349b094eeca1f13e50d8e5'
p12
(dp13
g4
I1
sg5
I0
ssS'04190f72b5cb321d34e29af73afdfcae1485bf0d'
p14
(dp15
g4
I17
sg5
I2
ssS'80be3f335e3dc8a4983c7fb7813d7594a5bf4f5f'
p16
(dp17
g4
I3
sg5
I2
ssS'f7d7ab349a2ef656db8ad3bbea90f01fa9afdc53'
p18
(dp19
g4
I11
sg5
I19
ssS'634135693a3eac92688e670ce0f1070cbc50158e'
p20
(dp21
g4
I1
sg5
I1
ssS'87a88b7b24e282c302a272b2ebf51adf4ce71148'
p22
(dp23
g4
I4
sg5
I2
ssS'5eee4bd6b23541bf69a422bd5706c12c6580f4a6'
p24
(dp25
g4
I1
sg5
I0
ssS'65151546358a43d884eed9e365f3443e099372bd'
p26
(dp27
g4
I2
sg5
I0
ssS'9273041d82e455765dc7bcfc7cb6a295807490f7'
p28
(dp29
g4
I0
sg5
I3
ssS'63c0bbed05f853f70a33441ca49c55c9944823c2'
p30
(dp31
g4
I28
sg5
I15
ssS'881744b8bb469b5cb1e87cbcc92a34ae01b5f95d'
p32
(dp33
g4
I6
sg5
I0
ssS'ea3a03344cb8c44b6aaba241c9fbc2745ad88c34'
p34
(dp35
g4
I3
sg5
I2
ssS'f395995f446a91ac457e53dd784d9179efe21440'
p36
(dp37
g4
I4
sg5
I4
ssS'3bb39a3bcdefbac4b804c7078b2bedc37485708a'
p38
(dp39
g4
I6
sg5
I6
ssS'15a16364dd2aa44d7f2d79c6c37fc318daeda1ab'
p40
(dp41
g4
I3
sg5
I1
ssS'df0fc257857d09ed6029cc2ae9caca34053fdd0e'
p42
(dp43
g4
I1
sg5
I1
ssS'42608d655d77d3cdcf72414c9f024ac62acf1820'
p44
(dp45
g4
I2
sg5
I2
ssS'50f8664664e35775f7ad52a15862474eb92fe0b0'
p46
(dp47
g4
I1
sg5
I1
ssS'f57347dc65aaee4e2f94ecff4b2339e319955053'
p48
(dp49
g4
I28
sg5
I10
ssS'143e134280378bd850a2dd9af57700977756699a'
p50
(dp51
g4
I2
sg5
I2
ssS'490ee25b6afc6ffba440d42ad437707830e363a6'
p52
(dp53
g4
I1
sg5
I1
ssS'4e1bb23ff0fc462aa91a0f75dc5323f25f602731'
p54
(dp55
g4
I4
sg5
I4
ssS'8cb26bf25607a27379d156f6f7fbd08886da31cd'
p56
(dp57
g4
I1
sg5
I1
ssS'ddf29eb9256936a523a5e06fd9c2adae5e25f4fc'
p58
(dp59
g4
I1
sg5
I1
ssS'd928face6d72a91388aff797fb90f8e0c98f9f84'
p60
(dp61
g4
I131
sg5
I0
ssS'7230f6daf702057a26e97ecca46dff159a6a8112'
p62
(dp63
g4
I0
sg5
I4
ssS'fb58c93cc29e4ea99cacbd041ef9a6f8b18b3f45'
p64
(dp65
g4
I3
sg5
I1
ssS'b889cb958bc1d89d71ece0a9293f32acafb96d07'
p66
(dp67
g4
I2
sg5
I2
ssS'544f8095010353c0ad60aa51396511fc5a343b58'
p68
(dp69
g4
I166
sg5
I0
ssS'68d2883a2ceda33638fed595b980178d9fc6b8e2'
p70
(dp71
g4
I17
sg5
I3
ssS'628f55e54a0a697c7a486dedd39f54f97e211d75'
p72
(dp73
g4
I6
sg5
I4
ssS'221722bb050dee7b5c3bd98ed540652579b34a6f'
p74
(dp75
g4
I0
sg5
I0
ssS'7b67f445b8261dafacbdd3f08ebcf9711a6e9615'
p76
(dp77
g4
I27
sg5
I7
ssS'2bfdc97fb685864d2f6b66f0e02adad4c2b49910'
p78
(dp79
g4
I5
sg5
I3
ssS'815b6b8b8ada4c71a5254fd8135201b934f854d7'
p80
(dp81
g4
I2
sg5
I3
ssS'475f1f9a2b71b4640d8797999d9745888e2b5404'
p82
(dp83
g4
I208
sg5
I235
ssS'f91617d29902bd2351d5eb43288b7b3526573671'
p84
(dp85
g4
I13
sg5
I1
ssS'89e75bb0b20e199b34108ded79413f94dbd89a8a'
p86
(dp87
g4
I4
sg5
I3
ssS'c3c2e6896a93bcdf32d3e383edeb97c6dcc5e24f'
p88
(dp89
g4
I73
sg5
I61
ssS'fe4bc7505ae30981a014b72883383376f823f00f'
p90
(dp91
g4
I5
sg5
I1
ssS'a5f20e2cd7bf9901134e1de2b0c5806bacec7d61'
p92
(dp93
g4
I1
sg5
I0
ssS'71cfd1dfe74e940918b5abce8f77fcb855b5bafa'
p94
(dp95
g4
I2
sg5
I0
ssS'ab7fcdf69a922f8c84750339bd252b93cdd00390'
p96
(dp97
g4
I1
sg5
I0
ssS'b8e790328a7a01b03991604c1ac3f930c8d0d2f2'
p98
(dp99
g4
I23
sg5
I44
ssS'a4c97086868f3565571c51797212b8f127ccfa64'
p100
(dp101
g4
I0
sg5
I1
ssS'28bf210993f12b5236705edfd5ba1de31e86fb6b'
p102
(dp103
g4
I5
sg5
I0
ssS'9a3c134de0c1c7d194f3d7e30bd9cea917154cba'
p104
(dp105
g4
I1
sg5
I1
ssS'37f37057be1088cfc0d408f04cf0b877a1a5fd2e'
p106
(dp107
g4
I77
sg5
I5
ssS'c23678cd8b613dcc3ffe5f474c152d6072f197af'
p108
(dp109
g4
I0
sg5
I1
ssS'1b0aee37bcf5eaaed31ca2dafd51670327b76b81'
p110
(dp111
g4
I692
sg5
I672
ssS'de8506dc2d536884a3fb31d1736bc01676d5e17c'
p112
(dp113
g4
I7
sg5
I3
ssS'23d5fd771b222d38680aa100fc30b961ca1e6af5'
p114
(dp115
g4
I7
sg5
I2
ssS'b680d36c6164b85f251e9ff8cdfcb6ed86a9cb0b'
p116
(dp117
g4
I1
sg5
I1
ssS'bc7b3b304e2233ae97a285c1a1a2fbaa099dc3f0'
p118
(dp119
g4
I14
sg5
I1
ssS'3e00da04936e92f8b9039bbc457583e4094568ab'
p120
(dp121
g4
I2
sg5
I0
ssS'5e68cfa656012d6929975908864a8d9c46cb578e'
p122
(dp123
g4
I126
sg5
I4
ssS'3d54d627bd2dc695785d90340ad18319ae652aca'
p124
(dp125
g4
I37
sg5
I16
ssS'd8f56ce846cb49947506836272faec3cde44dff8'
p126
(dp127
g4
I2
sg5
I0
ssS'869be2d3f908b20f11bf5d6178170c4b08564a98'
p128
(dp129
g4
I9
sg5
I9
ssS'1ddb49fcda0d8a368afd36d761b7badcda5285c8'
p130
(dp131
g4
I3
sg5
I3
ssS'289f31cf193f04831d52a3a77e566b639e5b1269'
p132
(dp133
g4
I2
sg5
I2
ssS'5911ffd05f76accd75bdebeb9e00443f05605e3f'
p134
(dp135
g4
I42
sg5
I38
ssS'e7d396da1864fad8d178762f3dba75b772c68f7f'
p136
(dp137
g4
I1
sg5
I1
ssS'cdf562916fcbadc8a9193564f8d5f4ad634886a2'
p138
(dp139
g4
I43
sg5
I22
ssS'3be92de9f67406eca4bc4c7cdb20c7fb2021e0f9'
p140
(dp141
g4
I0
sg5
I3
ssS'3276b1558375503070135141f58617fe6bd3ce5c'
p142
(dp143
g4
I9
sg5
I4
ssS'4e5bfdcb0260c423ff432949e5d6f3f65290355e'
p144
(dp145
g4
I12
sg5
I2
ssS'14893358f44b78e24cb5a8b18f2e788e971d79ce'
p146
(dp147
g4
I4
sg5
I2
ssS'ca9842fafc1476cc6764d7de48571719515faf70'
p148
(dp149
g4
I75
sg5
I39
ssS'9424746b88f388d51062b7bb420c93cbcecaaca7'
p150
(dp151
g4
I15
sg5
I3
ssS'440564042cd6f2396865ff5d2978e0bc490874be'
p152
(dp153
g4
I1
sg5
I1
ssS'39da1c5f7135fb1019d50cd470a04e034b31c3bb'
p154
(dp155
g4
I3
sg5
I3
ssS'e0f2dcfee835ab28b400afe1ec7ff7c909cde2e6'
p156
(dp157
g4
I1
sg5
I1
ssS'a7bed0d4b7ac9870ce273637b310da3aed2c0d2a'
p158
(dp159
g4
I42
sg5
I14
ssS'eecc5fe1bf2994dfaa8f1802c7ba8cc6faace1a5'
p160
(dp161
g4
I16
sg5
I2
ssS'1df732466bcdbe12ec536014aa5dc80dc3ac8beb'
p162
(dp163
g4
I0
sg5
I1
ssS'2a553edbeca15c4636644b4dd1d594bb10c12051'
p164
(dp165
g4
I4
sg5
I2
ssS'0623cd466e992dd153908613c58bbc61d0c4b908'
p166
(dp167
g4
I19
sg5
I0
ssS'88b5caac1e36b4c059b9a350c2f03e972f394347'
p168
(dp169
g4
I9
sg5
I0
ssS'bc96242056cb98e67608fba72446b759603d56f4'
p170
(dp171
g4
I2
sg5
I2
ssS'bedf7f412e1000fe8b72afa215500cebdf268954'
p172
(dp173
g4
I3
sg5
I53
ssS'127e8473acf0c3d77a27042ecb7b7383e6bef95e'
p174
(dp175
g4
I2
sg5
I2
ssS'0147bb498af5f9aba7e795a9d4209b61410657e2'
p176
(dp177
g4
I3
sg5
I3
ssS'0f31218f929f26c7ebec0e39f56c5e0a62113bcb'
p178
(dp179
g4
I7
sg5
I0
ssS'c34275e9e165c8b439256cf1c5e45430ffe5145c'
p180
(dp181
g4
I1
sg5
I1
ssS'ba95b56f5b21f7364a1acfa63c2cff2dc30f0c4d'
p182
(dp183
g4
I6
sg5
I4
ssS'9a529e001b984022a8046ce5299c50c9489bffc5'
p184
(dp185
g4
I3
sg5
I0
ssS'db3af5963e7e77276f29f389e0097b8b8123e928'
p186
(dp187
g4
I1
sg5
I1
ssS'9306118c03f3f36b66a365ce72bd36d224934ca5'
p188
(dp189
g4
I1
sg5
I1
ssS'a01ddabb26487450a0255b417ce810a32de1cce3'
p190
(dp191
g4
I3
sg5
I2
ssS'9fbf72347f7cb2fc52da170f7ec50ba9316f16a5'
p192
(dp193
g4
I1
sg5
I1
ssS'7746ebd946eedd1f27030f4666c3dfdc89930924'
p194
(dp195
g4
I3
sg5
I3
ssS'f65b2b5859b383ffd7b3942d64244e73af0e06c2'
p196
(dp197
g4
I1
sg5
I1
ssS'272d5517503721c6da4b638b847370febd7dfdd1'
p198
(dp199
g4
I166
sg5
I166
ssS'43bd2e9b5507ccf676f387f2f252b25a0cc26e9c'
p200
(dp201
g4
I359
sg5
I359
ssS'c10ab452ffa1a6c5c01dc0714ab38a644fb82ea2'
p202
(dp203
g4
I2
sg5
I2
ssS'8f9bcbb62214afbebe51a8f30c0063160b0ad8a5'
p204
(dp205
g4
I1
sg5
I1
ssS'f054d0198b6107740d3f7af0ee64590b5dd5b8c2'
p206
(dp207
g4
I7
sg5
I2
ssS'a5c8b316c10a6f6b7fbddcacf1d103245c731a5c'
p208
(dp209
g4
I86
sg5
I49
ssS'732a0d506ab7b93a23ed4cb614caea77a4dc2b3d'
p210
(dp211
g4
I1
sg5
I1
ssS'96cff6542dea1c2a09717763767553e777b63214'
p212
(dp213
g4
I1
sg5
I1
ssS'264392747eb82049635b45e498045ba866f93a88'
p214
(dp215
g4
I8
sg5
I1
ssS'0d0cfd42ef37c946ad0d5a65a28cbc92a2497b78'
p216
(dp217
g4
I2
sg5
I0
ssS'fcdd05392ba5d2bd19d05abdd944021f385edfc1'
p218
(dp219
g4
I56
sg5
I7
ssS'b74f1e7b323dcee8a9938f06aa83727f70a03bd8'
p220
(dp221
g4
I1
sg5
I0
ssS'645e64653d8375434602d6edab2d124d9ca63750'
p222
(dp223
g4
I1
sg5
I1
ssS'75c1f761eee7e31a86c211e95059e0e81b1b82f7'
p224
(dp225
g4
I6
sg5
I1
ssS'd797f021ff9d9c506d643cce71203c5c4848dd0c'
p226
(dp227
g4
I5
sg5
I3
ssS'59da043dcba0f15fe59a386fe397269d0ca066b5'
p228
(dp229
g4
I1
sg5
I1
ssS'0522b8e5311e936f8f23f15dc1d84576e6124737'
p230
(dp231
g4
I349
sg5
I277
ssS'52dc883bce71b76af80d7067e31f7906a8d99106'
p232
(dp233
g4
I359
sg5
I359
ssS'dc5566a07d108ebf047177a61d39510c178b348b'
p234
(dp235
g4
I16
sg5
I3
ssS'457c130e9263f3a5d1dbb89a4e09af0dc50dbb96'
p236
(dp237
g4
I1
sg5
I4
ssS'217512d38f0461a7ca212f29cbb198848cd21824'
p238
(dp239
g4
I5
sg5
I5
ssS'714323772f4a71078c565b4d1cc2047d2d05bc5f'
p240
(dp241
g4
I3
sg5
I5
ssS'49613ac670e95b7cf95b406e40f977b48de292e5'
p242
(dp243
g4
I1
sg5
I1
ssS'd4557fa2a4d44ad16d3d89b4cfa9eb74650f1250'
p244
(dp245
g4
I3
sg5
I3
ssS'325493051bbfe9d424db354824808b17655bcb7c'
p246
(dp247
g4
I183
sg5
I107
ssS'25a97e51e5efaa0641587ca96ff4d0f69b374b9d'
p248
(dp249
g4
I2
sg5
I1
ssS'b8cc53ccc4379709f3f9295ec75c9bd8f8426b18'
p250
(dp251
g4
I1
sg5
I1
ssS'3c00adb014146bc75a13af5e5aba2e2ffa5cb659'
p252
(dp253
g4
I7
sg5
I2
ssS'6a352db0703d4cb4e35bec785059ddd19b1090bd'
p254
(dp255
g4
I2
sg5
I2
ssS'f0c8ac4c636cf68119109041097c511fd47bed96'
p256
(dp257
g4
I49
sg5
I15
ssS'9534e2da608fb07076862efa281f5a263682cfcd'
p258
(dp259
g4
I3
sg5
I4
ssS'7b7236b2b185d95cd4b247795bb1d454dac41966'
p260
(dp261
g4
I7
sg5
I7
ssS'd7d96c546ba62ecd0cef660fff4dd52d4abf4cab'
p262
(dp263
g4
I1
sg5
I1
ssS'6d5becdb36f8fb51f97baaaadd86549b9488f544'
p264
(dp265
g4
I237
sg5
I1
ssS'0d57da78eb5f1cf9db489fa7a3b4a8dfc7d6977f'
p266
(dp267
g4
I9
sg5
I1
ssS'c2b0b8febee268a5ffc60e0a6282a0035211c9e1'
p268
(dp269
g4
I1
sg5
I1
ssS'751052eeb050aae28043c411b1a36ac689e86fe4'
p270
(dp271
g4
I3
sg5
I1
ssS'cb662f914e751cf53f7f9687c73f22b81a568e72'
p272
(dp273
g4
I2
sg5
I2
ssS'8d561fc7756bd4d86d2e0cdd04bbbc73250a81a7'
p274
(dp275
g4
I0
sg5
I1
ssS'7ad2cbaf7cb6cd3c1e3ceb4e35cc4bd1cd0195d5'
p276
(dp277
g4
I19
sg5
I19
ssS'f748a3cece2135e25f6fc8e2fe0bd2bb0cbfa708'
p278
(dp279
g4
I7
sg5
I6
ssS'977fbbc7043691ed519cb26ab62772ef8fa8a582'
p280
(dp281
g4
I0
sg5
I0
ssS'1ba128f98250becb02be6911a89d0621f1951c45'
p282
(dp283
g4
I2
sg5
I1
ssS'c0f57a59a6f1f28da18f77dff197624120404278'
p284
(dp285
g4
I8
sg5
I0
ssS'f57f360e316c401aff9a7e4cc9e651e59496320c'
p286
(dp287
g4
I0
sg5
I0
ssS'd881d08f858672c866b9e4913e97305335f51aef'
p288
(dp289
g4
I5
sg5
I8
ssS'70dbdde36572f412561796033787e0d062b0f4f9'
p290
(dp291
g4
I144
sg5
I45
ssS'536de8cefbb191fe64d249bda2f3c1d7ec881283'
p292
(dp293
g4
I33
sg5
I21
ssS'e18f58f86df646d4c6bed993ff08b0ca5b42c86a'
p294
(dp295
g4
I32
sg5
I15
ssS'5ba1451c7457a9ba63249dd785a5ae4e77066a92'
p296
(dp297
g4
I2
sg5
I1
ssS'1be1f505f4c32bf475932431bcbb8f96287ac9fd'
p298
(dp299
g4
I12
sg5
I10
ssS'7aad96eb56b01d47e51a6a144730a836d7ed1dd9'
p300
(dp301
g4
I144
sg5
I22
ssS'75546317bd53a8e1a196bd5fd7783e883a4caaa0'
p302
(dp303
g4
I3
sg5
I8
ssS'3d9dd349b1b1dc44ec5a330a15b255a83863e947'
p304
(dp305
g4
I35
sg5
I1
ssS'9bc698fe0ef056add1a8d0053e3d24d4ebd57663'
p306
(dp307
g4
I0
sg5
I0
ssS'6ea982e81249103328aad08dd745ff5da93466b0'
p308
(dp309
g4
I2
sg5
I0
ssS'32c97299a5d13c6cda89beed838db3d80ffb465f'
p310
(dp311
g4
I2
sg5
I1
ssS'e6a794bb0d314a8af86c0729d3891f06ab6f2d70'
p312
(dp313
g4
I1
sg5
I0
ssS'9055a07e8fa4d518c0bbc1c5c16c83ffbb658341'
p314
(dp315
g4
I1
sg5
I1
ssS'c5eaa89efd0ea13b78bc06fd8c961c43ba37cee4'
p316
(dp317
g4
I4
sg5
I3
ssS'0590b512ceb229e606bb5466ef8bb5dad4aac33d'
p318
(dp319
g4
I197
sg5
I101
ssS'c743ee328a5b22c64ae7fc38f096b99268521164'
p320
(dp321
g4
I1
sg5
I1
ssS'f0edc3fc3611782eb9b6b5dfeda306e5d36d3148'
p322
(dp323
g4
I3
sg5
I13
ssS'3a1f3c8fef8623a7920eb80c5673536985b8c97e'
p324
(dp325
g4
I245
sg5
I117
ssS'6ae6637304db824d8c46bf2e1b33047a18f2a930'
p326
(dp327
g4
I201
sg5
I0
ssS'09140e26fa9b3f6ff6d6a5a22cc4d4a004cb059d'
p328
(dp329
g4
I5
sg5
I1
ssS'4944feb710bcf73950d70dcfbc441503ed61fec2'
p330
(dp331
g4
I0
sg5
I0
ssS'192d3d99b1f823fddd2f3579826fc7140c6db61e'
p332
(dp333
g4
I85
sg5
I54
ssS'8764bddad333461321627ea5417ef4670d0b8656'
p334
(dp335
g4
I5
sg5
I5
ssS'cf42b18f779bb75e881293737a2863618bd755cd'
p336
(dp337
g4
I7
sg5
I1
ssS'599e4b3e0b0d3adbab1c5d29f94701ca653188a4'
p338
(dp339
g4
I3
sg5
I0
ssS'6938eee14e2b14eb2e0f81dc23aef1c1efd4788f'
p340
(dp341
g4
I15
sg5
I10
ssS'4e9073d79a8608b741bcad57f6bf94ed20bff380'
p342
(dp343
g4
I19
sg5
I3
ssS'9f3177e181ab361d6a526209b59d2d5f5b1d75ff'
p344
(dp345
g4
I17
sg5
I3
ssS'a4463935d2ec130dddcdb052f55645225807626b'
p346
(dp347
g4
I6
sg5
I4
ssS'f720f64d3156299f6d336596deb15187ead5060f'
p348
(dp349
g4
I20
sg5
I17
ssS'6f6ae04b9591394983d6ad118d5dacabf78b59f2'
p350
(dp351
g4
I21
sg5
I20
ssS'a13fe1c36e2e610f549ac2f2cb72e263e45f4c50'
p352
(dp353
g4
I1
sg5
I0
ssS'5ec2af77edb8e61e3feb00ed0e624b3e1a1dfd72'
p354
(dp355
g4
I5
sg5
I0
ssS'7fc7264658355bb7f4b68fbc14c6f8a40c49c9e2'
p356
(dp357
g4
I92
sg5
I42
ssS'c9504dcbc0229e87217819bd74e0e3deb9283347'
p358
(dp359
g4
I10
sg5
I10
ssS'7b638bfbf96c2196df26f203858cf20923c1896f'
p360
(dp361
g4
I4
sg5
I4
ssS'2f7794ab6820f2466e413c45f89d0ac9d7a8531d'
p362
(dp363
g4
I1
sg5
I1
ssS'47d17c429e97849d7d727cb57a83d82682d161be'
p364
(dp365
g4
I0
sg5
I1
ssS'02c42669cb32e59696510b7df4b8ac4f7461200e'
p366
(dp367
g4
I0
sg5
I7
ssS'66bf8b9f24f1bf216aa896963880466f057fc640'
p368
(dp369
g4
I1
sg5
I0
ssS'd42c4aaf0c57eec7ed4a2067ec2a1891feb12757'
p370
(dp371
g4
I3
sg5
I1
ssS'c708880a5f306592bb335286c77191846e212d4a'
p372
(dp373
g4
I1
sg5
I1
ssS'b2eef561a6f487f00f8073ae65c29f90a8067a2f'
p374
(dp375
g4
I1
sg5
I1
ssS'1d170e7f42817d0f277c52ad686b24ac69b353d4'
p376
(dp377
g4
I33
sg5
I26
ssS'd493266f9030b9a1f27f43d0860f59ddff6edd68'
p378
(dp379
g4
I7
sg5
I2
ssS'094e8dcb07a9ec7c8807c8f0ec419a6454bf94a3'
p380
(dp381
g4
I23
sg5
I9
ssS'fdb3b1e5ddee0571197b23dcc536cd29fe189426'
p382
(dp383
g4
I92
sg5
I94
ssS'4296df5476f3e45ecae87705d9ec14838c65ff38'
p384
(dp385
g4
I222
sg5
I181
ssS'f8d0aa48ddccdf1eaf8b94c3bf4f7e2db3cf3340'
p386
(dp387
g4
I5
sg5
I5
ssS'685cf8d98358c0caf65cc12259432256e17813b0'
p388
(dp389
g4
I26
sg5
I0
ssS'c7ecdc7a1edae24ef8c0e5fc5e89b7f76d7a888b'
p390
(dp391
g4
I1
sg5
I1
ssS'1157e6f79c27c669bcd185d778f654b33361e23d'
p392
(dp393
g4
I8
sg5
I0
ssS'00227e91f47c7d7f3f28a9f761f04ad9b45d7599'
p394
(dp395
g4
I1
sg5
I1
ssS'13aa8d48e779dc6bb32f80733c988813e438bfc1'
p396
(dp397
g4
I446
sg5
I0
ssS'3c13572c0f8e838f2c6eb94ec8609d514bf62b65'
p398
(dp399
g4
I3
sg5
I0
ssS'b3b880a1a447461393819df38bcea69c4b5ec74c'
p400
(dp401
g4
I1
sg5
I1
ssS'e993b716fc65a45825c1538520bcdbfa1bc7a280'
p402
(dp403
g4
I178
sg5
I0
ssS'b038777a5214a742230dcccb4f3238ec38f8b9e1'
p404
(dp405
g4
I4
sg5
I3
ssS'0509d35dd279bdd1ca6a023a377c5155793c0bde'
p406
(dp407
g4
I18
sg5
I11
ssS'127a888702fbefdd38c91486f35251cd7e0fd7a0'
p408
(dp409
g4
I3
sg5
I1
ssS'cf7654a8ccf94f6cb6fdb2b459e3b9ae28bae5fb'
p410
(dp411
g4
I1
sg5
I1
ssS'1feb8b2f74bd46f3b45731185bf3431cb94813f3'
p412
(dp413
g4
I1
sg5
I1
ssS'5157777a18489d3f173736bffea77723041d68fd'
p414
(dp415
g4
I2
sg5
I2
ssS'eb13fee6dc3549c3d31fd97dad5cea25321b3ce7'
p416
(dp417
g4
I11
sg5
I0
ssS'421e500c822908fc9ecf3773b6d126a2495d4e0c'
p418
(dp419
g4
I7
sg5
I7
ssS'df47ce1b744dc6c72958941ef041d2549e07c0f6'
p420
(dp421
g4
I14
sg5
I10
ss.