(dp1
S'028c42082dabd343e96e4f8b1020ea1afe7bca9b'
p2
(dp3
S'insert'
p4
I6
sS'delete'
p5
I1
ssS'4898a3bf6b9c03eeca4e3949eede8e1d11131d43'
p6
(dp7
g4
I0
sg5
I0
ssS'763ef06cd4aaedbb70da7e141b917bf59d4b10d4'
p8
(dp9
g4
I1
sg5
I1
ssS'4196b423a15b84713c80cbddd6a3df6493f8c76a'
p10
(dp11
g4
I1
sg5
I0
ssS'8270a9f629b7d097e59ac5c649f41c8c1ee322a8'
p12
(dp13
g4
I0
sg5
I0
ssS'48d96960a4e2abce80bcb17c50aeaf7941dcfb52'
p14
(dp15
g4
I12
sg5
I2
ssS'fa749ca8b007d571440ec3fcbfe9e860f86a3330'
p16
(dp17
g4
I1
sg5
I0
ssS'7f354f82ccf4fc3b4aa5cca86d3f57cff8b10f9b'
p18
(dp19
g4
I16
sg5
I1
ssS'924ebd6d28eba9c63eb29a09606c8f059c2fb0ed'
p20
(dp21
g4
I2
sg5
I2
ssS'83928240262879c0316cd2c6c521862934962bdc'
p22
(dp23
g4
I0
sg5
I0
ssS'3a5530ae29c03a101190082d7868a49d153b45b8'
p24
(dp25
g4
I6
sg5
I2
ssS'037ff0f793d9bbe3f83471c7894f9d2c0f6903ff'
p26
(dp27
g4
I0
sg5
I0
ssS'582d314dfc8fe8ae59305947a6daca25a90a50f3'
p28
(dp29
g4
I114
sg5
I7
ssS'f60c77d08f096c2a35f30686f7533f2660745689'
p30
(dp31
g4
I47
sg5
I0
ssS'05e4e9cf2070add97ac05fb7c91ac6fd18d86849'
p32
(dp33
g4
I0
sg5
I1
ssS'ccbb0214eb932c0551d4413d7e9b47846716176c'
p34
(dp35
g4
I4
sg5
I2
ssS'1663c8ed01a32934f8fd9608ad9543ff8ea8a3a8'
p36
(dp37
g4
I4
sg5
I3
ssS'7bda6dbeb9f42a0f0483ca7f26a6a4e332f3fcd3'
p38
(dp39
g4
I14
sg5
I2
ssS'3b35deb6cbe605ae3480e697ea62e62164d4bbe8'
p40
(dp41
g4
I108
sg5
I160
ssS'7037a3d6610dd5e0c372d158e0843419f8787763'
p42
(dp43
g4
I79
sg5
I0
ssS'747c90d12e9c2623302a7fc8dd51da587ea7d868'
p44
(dp45
g4
I1
sg5
I0
ssS'bd3f41b4013cf341094b0659540fa0e6712ac59c'
p46
(dp47
g4
I83
sg5
I12
ssS'6493d4d045b4c6aac4c5094b60f09b4ff8aa63ba'
p48
(dp49
g4
I67
sg5
I2
ssS'1a3d6790b783746519db5826f29225a0860da24a'
p50
(dp51
g4
I1
sg5
I1
ssS'b32d84e9fd3d7a275db7216e296f72140d084696'
p52
(dp53
g4
I8
sg5
I11
ssS'5692ba1b32779fd76d25c52fbe3b6dec26ee1ee4'
p54
(dp55
g4
I1
sg5
I1
ssS'37621f71347f22b3e280cdf2ada7789f96d7f6f3'
p56
(dp57
g4
I30
sg5
I2
ssS'9412b9d2b958e8a9bfab8be605027da3bb077737'
p58
(dp59
g4
I1
sg5
I0
ssS'f3d5cb3c5af9adce2f308b90c8992ef1a71a8a11'
p60
(dp61
g4
I12
sg5
I2
ssS'1ee8ad4d58862ff2133ee343b384666b9398a5a1'
p62
(dp63
g4
I1
sg5
I1
ssS'f0015c791598b00e95102b12be44140cd1e71ac7'
p64
(dp65
g4
I40
sg5
I37
ssS'7998f65493b7be5fed1aad8ab2b13b1dd2e67cb7'
p66
(dp67
g4
I158
sg5
I2
ssS'82fb827e708ed47d4510013115611c9f3ccddbba'
p68
(dp69
g4
I14
sg5
I2
ssS'3c7cfa81f1e9c347f5748865b28e92e3ce0de09c'
p70
(dp71
g4
I39
sg5
I0
ssS'7a1f15bf36fdde916d22250ef585a65c323c1118'
p72
(dp73
g4
I1
sg5
I18
ssS'55e6796e2e2b1aed0952c29345cd5392b84c9d8a'
p74
(dp75
g4
I1
sg5
I1
ssS'66de1f2ac5b385bdb8acb6046a267a84184c0c29'
p76
(dp77
g4
I38
sg5
I11
ssS'7ca477243c549a4fae2af435caed2a637a9dcd24'
p78
(dp79
g4
I1
sg5
I1
ssS'803e4e667d945fc9c84dc20a83da10a2c028d65f'
p80
(dp81
g4
I63
sg5
I43
ssS'02017ddc92c45103e82ba1bcefd1c172179617b6'
p82
(dp83
g4
I2
sg5
I2
ssS'f53282fe2e22271be04dc0456a436ec8484923ac'
p84
(dp85
g4
I24
sg5
I0
ssS'2216dd4a7fb4f5b3c67ff5f8bbf27b1b34690e8c'
p86
(dp87
g4
I1
sg5
I1
ssS'ec52d66fe6b94d2792c355659d234070ee6b0aec'
p88
(dp89
g4
I50
sg5
I6
ssS'b638e2ecefdad1caf935fbbe036cc1d3b59c06ba'
p90
(dp91
g4
I5
sg5
I3
ssS'f3abd93e1421045e56da1d780b0170e0b1cfafdd'
p92
(dp93
g4
I1
sg5
I1
ssS'45d67ca054d60d2c0f049e728b10bff61b7dd2cc'
p94
(dp95
g4
I21
sg5
I2
ssS'5503dc2f9feb62a051800b1eb4f0e6e20166072d'
p96
(dp97
g4
I1
sg5
I0
ssS'5d9ccb9f0c0e826aa60f5aca585ba46b65d54052'
p98
(dp99
g4
I5
sg5
I9
ssS'3224f6c52a2d91b1fa9de842e108904047c0e349'
p100
(dp101
g4
I201
sg5
I6
ssS'bbb190d064b30536ae0b22660597edffff74e002'
p102
(dp103
g4
I6
sg5
I6
ssS'4d2f8076078b767f27bb9fb42b0be5e6af939887'
p104
(dp105
g4
I106
sg5
I42
ssS'876b1df2495ee5aa3f0929e97d05dfa4d3301f08'
p106
(dp107
g4
I2
sg5
I5
ssS'1afd721c6453864220a0f3db504d96eebd088e7a'
p108
(dp109
g4
I88
sg5
I0
ssS'a8fb23876147998edb556f36082ce333008eb413'
p110
(dp111
g4
I1
sg5
I1
ssS'cd487064f0935e72b83d1cd6f17c997a9301201b'
p112
(dp113
g4
I6
sg5
I6
ssS'6fb75b70052877a149bde34a4a4095f0280f7023'
p114
(dp115
g4
I175
sg5
I4
ssS'fd1e784c53c863336e6a3887e80e7f0efc4f9707'
p116
(dp117
g4
I132
sg5
I114
ssS'1580140cffe88798562503a5bbddde92d7d8c1bd'
p118
(dp119
g4
I3
sg5
I2
ssS'1e0841e6d85b91256da092b06f85e74458938873'
p120
(dp121
g4
I54
sg5
I0
ssS'4b46f9303c76f59a118d31150b54dde3a894616b'
p122
(dp123
g4
I27
sg5
I12
ssS'7de66dfb3a51e852c8085cc4e05bbe5071ab0c23'
p124
(dp125
g4
I1
sg5
I0
ssS'5c57b848d998a93aad7302c8055ecf68ac49adaa'
p126
(dp127
g4
I2
sg5
I0
ssS'90f66cb65e326fe5092443d8a1019ee0763502b7'
p128
(dp129
g4
I7
sg5
I1
ssS'44bd595227c301f3299485a609699f7d141f9a38'
p130
(dp131
g4
I13
sg5
I110
ssS'76ceced122993738ed9e5f4ea618851145b903ec'
p132
(dp133
g4
I1
sg5
I1
ssS'e5fee9c735be930c41ef93f4960d887aee1f487f'
p134
(dp135
g4
I45
sg5
I161
ssS'b961cbbcd2a4bcf8d5d69d38bf570bc77f08fa1d'
p136
(dp137
g4
I5
sg5
I2
ssS'6d72c2eabac2658527aa9d16c8e54723708bdc3a'
p138
(dp139
g4
I1
sg5
I1
ssS'74246a0de6584f8bf00842aae51578af67a2c074'
p140
(dp141
g4
I30
sg5
I5
ssS'9928411f57fd561aa6c30d7c27f8a7a4d5c4a1b9'
p142
(dp143
g4
I8
sg5
I1
ssS'e8975c3549e0b0c08fbb93504923d1e66e5d6634'
p144
(dp145
g4
I4
sg5
I2
ssS'845d9cf908a2f7d5c49b09a5eae17c4b91f52555'
p146
(dp147
g4
I6
sg5
I1
ssS'87d4d03e69e6cecbf2bb323ed768379c62d354eb'
p148
(dp149
g4
I3
sg5
I0
ssS'438704a6b6e4b5cc53d33c21c950658243eab297'
p150
(dp151
g4
I0
sg5
I0
ssS'33d1e5dfbd6eb618a18bf6f64bd73de996a7796e'
p152
(dp153
g4
I3
sg5
I7
ssS'ae0f4f561380b40e04ec9e61ea984645c9fd0b00'
p154
(dp155
g4
I0
sg5
I0
ssS'4ffe96f247f24979e98c29c1196ee56eac8c7d96'
p156
(dp157
g4
I11
sg5
I0
ssS'cd205591c8a55d0fbd58d7115b029833b0d03ef1'
p158
(dp159
g4
I181
sg5
I174
ssS'd083d3b9c03accab265b39b2e2438b2083231bbd'
p160
(dp161
g4
I1
sg5
I0
ssS'29f8cae39467c8a140a477d8dbf312b20e76da88'
p162
(dp163
g4
I1
sg5
I1
ssS'f3c49f34bf179036c635f98c215a7173b8d21b82'
p164
(dp165
g4
I118
sg5
I20
ssS'ab758224c127632cf28798e4e6239ad5df81edd8'
p166
(dp167
g4
I1
sg5
I1
ssS'acbca4ff91fdf53012ecfc47c09fe31174c46cbd'
p168
(dp169
g4
I4
sg5
I3
ssS'9e832139dfd6225cc52f239dd7e06e558a840caf'
p170
(dp171
g4
I12
sg5
I12
ssS'2170a197e299463cb825b7a76600f4b0b9429e1d'
p172
(dp173
g4
I10
sg5
I2
ssS'31cd70e104e99856aedec9483f9fb72ca9ba9849'
p174
(dp175
g4
I10
sg5
I2
ssS'5a7ee8232759794294469e313fee9d1f220fba14'
p176
(dp177
g4
I3
sg5
I0
ssS'16b3c29b4a30f4c85d6fcd6449947a158dc2b7e9'
p178
(dp179
g4
I1
sg5
I0
ssS'008c86de3dcb38ba78080b362542f7357efd325a'
p180
(dp181
g4
I17
sg5
I12
ssS'b4c87989dbaa4ebf0dfe5d87b1aadcb29d9dbfb1'
p182
(dp183
g4
I1374
sg5
I222
ssS'2e4e0c4b7ab1afab9636e8818fe8e7d453bb0ffa'
p184
(dp185
g4
I3
sg5
I0
ssS'25c1597c6bb5b4601c772815a711460c288e2d51'
p186
(dp187
g4
I27
sg5
I45
ssS'02f1b5b254b87cb772d25e0713ba1afb0ed43284'
p188
(dp189
g4
I2
sg5
I1
ssS'53b0de57cddb985e1a66220b8520df3754539462'
p190
(dp191
g4
I29
sg5
I5
ssS'6ce14b8d88eac5d7534e472da10e54bacec76fe6'
p192
(dp193
g4
I4
sg5
I5
ssS'e055ccc9548d781fd1af111961d68d4c933242e2'
p194
(dp195
g4
I5
sg5
I1
ssS'26aa4522ca57748743cedebdf29e765b806517c9'
p196
(dp197
g4
I1
sg5
I1
ssS'aaf0cb6b2521ad02dc91567f773fb9ae81b0c0ad'
p198
(dp199
g4
I1
sg5
I1
ssS'5dd5bcfa18240651bc3da562aafa837ee0bb36ec'
p200
(dp201
g4
I65
sg5
I5
ssS'bb5d5012067f3b0014235601543b43f9367beea4'
p202
(dp203
g4
I117
sg5
I11
ssS'c1cdc736736caf93d605c012f4d764e98ab91061'
p204
(dp205
g4
I0
sg5
I0
ssS'7ac0a6e9934fdbf02c2250932e0c026cf530d400'
p206
(dp207
g4
I0
sg5
I0
ssS'0b30b7ef5d30cd47f6f097f5437cf30a814eb4d3'
p208
(dp209
g4
I8
sg5
I1
ssS'13bd93dc9b1b9a2ed08176f68521b6b9cfa80612'
p210
(dp211
g4
I73
sg5
I74
ssS'882f179f6cb992271966e8a891923556cdb8002c'
p212
(dp213
g4
I1
sg5
I0
ssS'721e8f242e04b73396ea540af02141cbfad3cf91'
p214
(dp215
g4
I4
sg5
I1
ssS'733b7d9836515cde3afb10f45974ac032ca172fd'
p216
(dp217
g4
I0
sg5
I0
ssS'e5f6e775cdceecb160f74de94d7f5895fdf28d73'
p218
(dp219
g4
I3
sg5
I0
ssS'3052f4babe259e7bdb1734713e7a727950aec74c'
p220
(dp221
g4
I0
sg5
I2
ssS'49df18c7f860021154dfa40affb515ad6d36a026'
p222
(dp223
g4
I1
sg5
I1
ssS'fe2ff60bf4040b646825ead6837c3d1eb0616b94'
p224
(dp225
g4
I13
sg5
I0
ssS'2b14ed3ea57383e44fdad7c1b254d6493f790ed4'
p226
(dp227
g4
I0
sg5
I0
ssS'1f85b8342f38f42e826fca7b5dd5eba147afd8c7'
p228
(dp229
g4
I5
sg5
I1
ssS'0e471744ea336b048cb0a74fda86df00cc00697c'
p230
(dp231
g4
I5
sg5
I1
ssS'8b7a2ab8b1e06a09a2c4bc2cfcbf3b50951015b6'
p232
(dp233
g4
I0
sg5
I0
ssS'78774ac6677f46e76907137928d5815ed764702d'
p234
(dp235
g4
I12
sg5
I0
ssS'5bdebc41150ef8bc150b81dff21bf0991aa803fd'
p236
(dp237
g4
I9
sg5
I1
ssS'ed2083a6e4c81b1f1dd39403ad0d09d9c60c3ba1'
p238
(dp239
g4
I3
sg5
I3
ssS'3cb359e19320bdbad161d60321f553d463c289c3'
p240
(dp241
g4
I32
sg5
I6
ssS'2fc5fe17a9f3e79bae602a8bcf6e335cd1cb62e6'
p242
(dp243
g4
I5
sg5
I1
ssS'f8ca955c2fc4679ae2605bb3c6cc94368cfa7133'
p244
(dp245
g4
I1
sg5
I1
ssS'57316083131792caeebd4a4aea9778f11b3ef11f'
p246
(dp247
g4
I18
sg5
I6
ssS'5664ccc0efdb5ef859ba631c1d155f5b57c5cc2c'
p248
(dp249
g4
I1
sg5
I1
ssS'5668fa796919b1e221545224c98804aac8341675'
p250
(dp251
g4
I31
sg5
I0
ssS'47b6fdd3348b40cec400be79f9f2b25f9885bac8'
p252
(dp253
g4
I1
sg5
I1
ssS'b43a870ee77966d59cb698562059fa71d2c0e336'
p254
(dp255
g4
I1
sg5
I1
ssS'541d8dcd40a9a5cb76abcb55001a6df96d5e22c4'
p256
(dp257
g4
I10
sg5
I29
ssS'a522fd13b31bb85880c85c429b6953474199049f'
p258
(dp259
g4
I64
sg5
I0
ssS'8d000f53a7acb6699051ca47704dc5ab30651f52'
p260
(dp261
g4
I1
sg5
I0
ssS'6a0d040c3df72437d927a9d7160fcb6974044d88'
p262
(dp263
g4
I2
sg5
I2
ssS'8c2bda99e6cc0282d36150830ddbc24c03403865'
p264
(dp265
g4
I26
sg5
I2
ssS'0a1f78fda500ab8d21699ff452d5941808995256'
p266
(dp267
g4
I155
sg5
I0
ssS'5c494f5099242359716c1c8b56d69a95fb7fc57e'
p268
(dp269
g4
I1
sg5
I1
ssS'7e3442e7e3cecb65319930d904d43b9c6b734170'
p270
(dp271
g4
I0
sg5
I0
ssS'97dd43446cde77709cf32f2d9e3fda2276d5a387'
p272
(dp273
g4
I22
sg5
I1
ssS'b6df3bd1d71911b5f68ac4354a836224dcc320f0'
p274
(dp275
g4
I1
sg5
I1
ssS'7f70830c3681ec887448beeb60e934c07c3f443f'
p276
(dp277
g4
I114
sg5
I114
ssS'd038c55c18a05167b20ceed6ad22183fc27a785b'
p278
(dp279
g4
I3
sg5
I3
ssS'7b68b76e5dcc1e295fc92bfc5ae51791bdc1e15d'
p280
(dp281
g4
I0
sg5
I0
ssS'cfaa212381d55544bd482f57a205e756bc3d3341'
p282
(dp283
g4
I1
sg5
I1
ssS'37fbfa1691bf69f57204196340db25610386ea1f'
p284
(dp285
g4
I5
sg5
I1
ssS'aa73622de7dc93112c7634119ab97f0ae645bba1'
p286
(dp287
g4
I375
sg5
I0
ssS'6fc9cddf03e0eb1b746a48e9de1101fbb4d87d9b'
p288
(dp289
g4
I26
sg5
I1
ssS'ab2dbaa3f04704f1b0a4b38da9689c2cb34b8c60'
p290
(dp291
g4
I1
sg5
I1
ssS'4d799570fc25611aac27479b108884a0d37bd3a4'
p292
(dp293
g4
I3
sg5
I3
ssS'3874c5b25a1e622a2d55e16578fc4e89a3ced3ce'
p294
(dp295
g4
I0
sg5
I0
ssS'53122e8d51c8cf3f7760ccf96254858de8c57be6'
p296
(dp297
g4
I3
sg5
I3
ssS'279139ea57707dbd74e4c3c391a2a503b3a27114'
p298
(dp299
g4
I0
sg5
I0
ssS'ff667d67c56707dd759b14c5e96c60ef4fe11d05'
p300
(dp301
g4
I26
sg5
I2
ssS'6517fd7e3ad829a47834335e25c5946faa5c3966'
p302
(dp303
g4
I13
sg5
I8
ssS'a7822db46193530bf2ecf3249f69bf0bddbc3034'
p304
(dp305
g4
I19
sg5
I1
ssS'e9d5938f5113e47ebf7cc7dbd0c8bdf4dc764342'
p306
(dp307
g4
I4
sg5
I3
ssS'c9632733ec72293ce08431d965fdf4781a0d4a47'
p308
(dp309
g4
I3
sg5
I2
ssS'72c157a8b9b964cb7aab3296f76814c3d2f026fe'
p310
(dp311
g4
I1
sg5
I0
ssS'58d698bb409d8a4eb595ba5d97b80e0f486307ac'
p312
(dp313
g4
I2
sg5
I0
ssS'58ae8c3ee177885fa7d61d16c8ddbab1f2c3f635'
p314
(dp315
g4
I53
sg5
I1
ssS'75cd9f7fd7861917455f234c840cc31b543676c3'
p316
(dp317
g4
I19
sg5
I0
ssS'ee34d921c25d4cce295ba22cb2e41987dcaad085'
p318
(dp319
g4
I7
sg5
I0
ssS'587c962a0c2c1397b19917f6d3865f32b333b81b'
p320
(dp321
g4
I30
sg5
I10
ssS'ae378d2f03a91bdd65c73dac433a614fe28e7e5e'
p322
(dp323
g4
I94
sg5
I51
ssS'0cd5736fb1bf95b94aa920a9ee9861517e783d03'
p324
(dp325
g4
I3
sg5
I0
ssS'45b9d2ad931cce0c85fc0828c0f6697a50afde18'
p326
(dp327
g4
I0
sg5
I1
ssS'2ecf3eee29c158fb44c7af8796ced387bdf6a755'
p328
(dp329
g4
I260
sg5
I241
ssS'452d20db34f84ad853093e47220d42d82a70adc8'
p330
(dp331
g4
I2
sg5
I1
ssS'8726a7f77ffb5483f07bbf43aab6527bf8ede9a2'
p332
(dp333
g4
I17
sg5
I9
ssS'e765a36f6fe483cc98136350c43effc6199ce5d0'
p334
(dp335
g4
I4
sg5
I4
ssS'9a7207de6471ae928b2d8e3b8570c3ea425a3afc'
p336
(dp337
g4
I371
sg5
I331
ssS'aaee16f099809e69c5dd6e378cf901f373068d3c'
p338
(dp339
g4
I13
sg5
I0
ssS'7193291a6930ba469df02fa605f9a819f7f3d2f2'
p340
(dp341
g4
I1
sg5
I1
ssS'490ad65f2b8564ed4c054656076fd4c47898dd5e'
p342
(dp343
g4
I33
sg5
I2
ssS'd9b915c8ba7b118def00567ec1a92792ed268754'
p344
(dp345
g4
I1
sg5
I0
ssS'75eee864cc5810422b158f5bda7ee0945005ab03'
p346
(dp347
g4
I23
sg5
I1
ss.