(dp1
S'86c3c0b27ce803512cc62c56e9466544ecafb60e'
p2
(dp3
S'insert'
p4
I1
sS'delete'
p5
I1
ssS'a80d5f382fd4dfd99b8c27d77b5e1852840fa076'
p6
(dp7
g4
I2
sg5
I0
ssS'8f930801ff8b7f459c9a48d88a1433ed6c9c344d'
p8
(dp9
g4
I18
sg5
I8
ssS'70264ef7bbf680e1a1527ab38736befe4a212d33'
p10
(dp11
g4
I1
sg5
I1
ssS'b84d878e4b413ce3289aeb1925f155e714c5640e'
p12
(dp13
g4
I7
sg5
I0
ssS'5b3788465b8b335db7cd66432bf8ea74ff8c9fac'
p14
(dp15
g4
I26
sg5
I10
ssS'2735c942c9ac0382b2c0362341056a9a432f7add'
p16
(dp17
g4
I6
sg5
I0
ssS'4cd84112857eb83a04924507b7874ee658bfc4a1'
p18
(dp19
g4
I9
sg5
I10
ssS'73af15398075da627dd0d2c2395c1f2a11cf5415'
p20
(dp21
g4
I1
sg5
I1
ssS'99f64bacd35466620a53e05c94cb9d3348897030'
p22
(dp23
g4
I5
sg5
I5
ssS'f8526c332b57f69cac486eb664bc49661f81c477'
p24
(dp25
g4
I14
sg5
I2
ssS'aa58b50b511e446122164a474679063ec8b4b2f1'
p26
(dp27
g4
I13
sg5
I1
ssS'dec7cc0b2c1eeea4bf79d91e04449174bfab12ad'
p28
(dp29
g4
I10
sg5
I2
ssS'8da50bda4437ad32f1e24dc71638302bade3d9ae'
p30
(dp31
g4
I3
sg5
I4
ssS'84b538482ceece46088cf7d5124baeae2770fa30'
p32
(dp33
g4
I3
sg5
I5
ssS'55fd8048ad6c4e7395d6275f6f906ceedd6bfc25'
p34
(dp35
g4
I2
sg5
I2
ssS'44a65934b1e2b465bfde8819f85db4c0091af17d'
p36
(dp37
g4
I1
sg5
I1
ssS'b2ca29ce887ee2f7002fdab945eed00ed5a3e47d'
p38
(dp39
g4
I6
sg5
I0
ssS'5c3e42db9dc7d54f085704db60fa55b938b93198'
p40
(dp41
g4
I1
sg5
I1
ssS'40045b4129e9f3f9d0322c5a1fbe17d1e6dde369'
p42
(dp43
g4
I7
sg5
I2
ssS'c7131644352f0d416024d77b27b5c2fd1b69a7ac'
p44
(dp45
g4
I0
sg5
I1
ssS'0a4c7b72f58ad19acf10a85927ec1f7baf70a819'
p46
(dp47
g4
I293
sg5
I293
ssS'a2a90d3f94cf86170a21d9ca1a6b84cf4758855e'
p48
(dp49
g4
I148
sg5
I100
ssS'dc244c2cc1f594855f924a023b49c503673ed04a'
p50
(dp51
g4
I41
sg5
I12
ssS'f2b9803d9d06c30a0f32651e36d19053b6873dcd'
p52
(dp53
g4
I7
sg5
I2
ssS'0cacbc3d6ab9307568b718b337392e54981c8fcf'
p54
(dp55
g4
I10
sg5
I2
ssS'55eee7f29ac4e021495e14d7a4ad75a5701e15c4'
p56
(dp57
g4
I1
sg5
I1
ssS'5968f054d0357367a65a134de6054e5c9e6d6362'
p58
(dp59
g4
I1
sg5
I1
ssS'226d589ec49d03b8c5f48d089cb0ab52c1762e26'
p60
(dp61
g4
I46
sg5
I11
ssS'03cf8caa0cfbd221a7bfa8e955404b09c6ea80d0'
p62
(dp63
g4
I1
sg5
I1
ssS'98f6dd7c2869e4465accb7552a278aa105a04f25'
p64
(dp65
g4
I1
sg5
I1
ssS'1e7b31b2451dfb9a9225e84269490b9b7d27a5ce'
p66
(dp67
g4
I29
sg5
I8
ssS'd6716d2c0a17ca50012d8905705a4a3139a21376'
p68
(dp69
g4
I22
sg5
I12
ssS'd7fe6e2841249fcbe6e10c479329a4cf1516c5a2'
p70
(dp71
g4
I3
sg5
I1
ssS'0aee13b9fdac01372b993a543485dd64b1d7ddd8'
p72
(dp73
g4
I8
sg5
I3
ssS'195ac6d58c34d16d4ba0a50c34799f004f2ffc08'
p74
(dp75
g4
I1
sg5
I1
ssS'8f9c8815c379a8a8e539e45461fe29c70898ac2d'
p76
(dp77
g4
I6
sg5
I3
ssS'04156dffae6ed65eb72a26304cec276ec9130c1f'
p78
(dp79
g4
I15
sg5
I0
ssS'846f9e3a652ddacd4979a475b17f3cc0b9b30822'
p80
(dp81
g4
I15
sg5
I2
ssS'f30c9821d666c105074596a66e9f407f6f9dca31'
p82
(dp83
g4
I2
sg5
I2
ssS'71edbff4f1e9c9533c5038e4118689bfbd4f78b6'
p84
(dp85
g4
I127
sg5
I0
ssS'3eee50b488d5b3e15f09df0340c6fb32c972c25e'
p86
(dp87
g4
I4
sg5
I0
ssS'c4b6d8a8e7f85acf0d64cb3745f7b474a641f574'
p88
(dp89
g4
I4
sg5
I3
ss.