(dp1
S'cb66805ad27e07e53437f9ea24c5d1ba8c56f3da'
p2
(dp3
S'insert'
p4
I64
sS'delete'
p5
I2
ssS'fe40d29969a0d3ed7751a86e047361484b35d00a'
p6
(dp7
g4
I30
sg5
I7
ssS'21031c24049d189d9b2290306be5ff0c1590bd47'
p8
(dp9
g4
I18
sg5
I35
ssS'f23c2b39aa2cad41b6e82510179854cd167985a7'
p10
(dp11
g4
I4
sg5
I2
ssS'09cd8b7eefb021f2d8327e42614bca7cbb8915f2'
p12
(dp13
g4
I206
sg5
I207
ssS'54fb1ab7d57a4100f147b69fb04d846cd68de909'
p14
(dp15
g4
I472
sg5
I427
ssS'e6216b82884f324cc41a834725d2a992077d6a2d'
p16
(dp17
g4
I18
sg5
I17
ssS'509764da75aa7edf9d45cb88d4a86d8a2386ed31'
p18
(dp19
g4
I70
sg5
I95
ssS'96bca3afb23f6d0e7a20825cfb959f5877d52ca7'
p20
(dp21
g4
I3
sg5
I1
ssS'23ef32ac1627f160b2bef43645a7d7a00faee8ff'
p22
(dp23
g4
I2
sg5
I3
ssS'd455240e2f09fde2d6e75b44cc805ecac1f2ae35'
p24
(dp25
g4
I57
sg5
I18
ssS'aef95ea6d23becf6e4374a08fe37d07968e75822'
p26
(dp27
g4
I10
sg5
I0
ssS'1dde1727e2b6ec58e8940c9e6677ea76da3d3489'
p28
(dp29
g4
I8
sg5
I18
ssS'1eeeb23a1813b5836ca1c5e852785f7c5feddb1f'
p30
(dp31
g4
I8
sg5
I2
ssS'04cda80884f3d11db6e81724d0afa268332ba588'
p32
(dp33
g4
I0
sg5
I0
ssS'ec67d3adfc1c8dce5dea8b39f8bf17331e9bbc4d'
p34
(dp35
g4
I4
sg5
I4
ssS'73f0d1cde95c2c66206251df5804f1bcd6e056ff'
p36
(dp37
g4
I10
sg5
I4
ssS'ecc4730016633059baeeff44aeab5dd8f824ba75'
p38
(dp39
g4
I2
sg5
I0
ssS'533220fa3ab0c7e675befbddd0e19bb78e58cf99'
p40
(dp41
g4
I1
sg5
I1
ssS'9781343aa75f6425b4ea68ea9eb149770160dfba'
p42
(dp43
g4
I1
sg5
I0
ssS'b636ad97ad3cfccf1dd89018d1018cd2723a259c'
p44
(dp45
g4
I8
sg5
I0
ssS'7cbb6741d8596651be0a119db9205be7b8ded6b5'
p46
(dp47
g4
I0
sg5
I79
ssS'b38a9a937ecd312518617b1fb9a886864d66d827'
p48
(dp49
g4
I1
sg5
I1
ssS'7f4ce0ece9eda79e7a098abbf4ed3c982450f9a1'
p50
(dp51
g4
I11
sg5
I1
ssS'6f3929911bacd742cb7e6e9043023349f108940a'
p52
(dp53
g4
I47
sg5
I1
ssS'9aa2ec9b0d2ea2aded5a900344e8debb1562a2a8'
p54
(dp55
g4
I75
sg5
I0
ssS'a2b44908240575c8b12591b03ad34d0b95c1278d'
p56
(dp57
g4
I1
sg5
I1
ssS'c0a30e623f5b7d28a2d1ca9adf6d50453dfc95a4'
p58
(dp59
g4
I34
sg5
I0
ssS'51c2d8c476cb932b95ea5e1f78f49626b23ed980'
p60
(dp61
g4
I11
sg5
I0
ssS'56db400412fb36b5c2bbdb9ffb18b7c007f19b49'
p62
(dp63
g4
I12
sg5
I1
ssS'0c5a7c0e4f383b87e191a98b71cd536f9663618a'
p64
(dp65
g4
I1
sg5
I1
ssS'4d900fe473fa8cdab08dd08e5cfcc347b6c9353e'
p66
(dp67
g4
I0
sg5
I0
ssS'cbaee0645c621ecb043a2bf39f66c5df391cbe8b'
p68
(dp69
g4
I0
sg5
I0
ssS'88560c2ae0024e958c65e068b2b18675812191ba'
p70
(dp71
g4
I0
sg5
I0
ssS'8e227d79629cdc0021f1cc66f199e5f9ce297b3a'
p72
(dp73
g4
I22
sg5
I20
ssS'9d84aea964b35c7e11607de1b5f2a0a39a7c6a6a'
p74
(dp75
g4
I4
sg5
I3
ssS'03ce489bdcb712e23d82d1917153b9aae51dd1a8'
p76
(dp77
g4
I38
sg5
I29
ssS'4a23c666eba18550b9f137efd2932efdaf4df5d4'
p78
(dp79
g4
I1
sg5
I1
ssS'ec6d214f4be422bbb2a59e636ab8750e755a472c'
p80
(dp81
g4
I11
sg5
I0
ssS'25637c37d80b799af6ffed2a2c9f77122ac2b01b'
p82
(dp83
g4
I3
sg5
I1
ssS'8ee4f7f329321bbf65712f365c7dbaa16ff9d2ef'
p84
(dp85
g4
I5
sg5
I5
ssS'e08c8a7149e4d7a2f7846a7203d627fcf3dacfba'
p86
(dp87
g4
I103
sg5
I2
ssS'7dcb53b1f34fe089393a9dbf0ba4c20c787d6d19'
p88
(dp89
g4
I8
sg5
I3
ssS'1e68c66f949117f74a9c8f6cbda738b3b794bb45'
p90
(dp91
g4
I0
sg5
I0
ssS'24af59c66acbf3c399614083212a83d099298655'
p92
(dp93
g4
I1
sg5
I0
ssS'e642ba33ba1bdde04ac9f0c75a25dc40131c55e7'
p94
(dp95
g4
I41
sg5
I18
ssS'9612ee46fa28dd10ac3e3262d3c7882ce6587af6'
p96
(dp97
g4
I3
sg5
I22
ssS'1269786cadbe70683a53724179ec2d2f05efc211'
p98
(dp99
g4
I8
sg5
I21
ssS'7be3fad63e978c19317c63ac2083e906b8a87b28'
p100
(dp101
g4
I8
sg5
I12
ssS'3fd77022e4c41f94ea3375792d9b513075e13402'
p102
(dp103
g4
I25
sg5
I5
ssS'5deb0f9a581f242584923148d79b615f04ed1b74'
p104
(dp105
g4
I14
sg5
I4
ssS'2fc233cfc4e46d15b87b8e2bf9e553cc70bc7c93'
p106
(dp107
g4
I1
sg5
I0
ssS'43a095f3d82f6ded5b79786fce06d25c4cf25457'
p108
(dp109
g4
I7
sg5
I0
ssS'713103affcf1f5af198d326c515710cc960d542f'
p110
(dp111
g4
I4
sg5
I6
ssS'8209c01eded5b8d533136bb9f04bfe3a851f8cdc'
p112
(dp113
g4
I0
sg5
I0
ssS'53013fa01f45114c1b8ee87527eab4fbeef8a113'
p114
(dp115
g4
I71
sg5
I106
ssS'7dad421fabf708e96eab40f8327ce8cd46e900ae'
p116
(dp117
g4
I15
sg5
I2
ssS'b2e013073d219efb1735ef128492e2ce33327153'
p118
(dp119
g4
I1
sg5
I1
ssS'c094cfd61bb10e0d8b392e3d91606621e2010ff3'
p120
(dp121
g4
I1
sg5
I1
ssS'efe07bef06c37997010396d6749991f28262a9d1'
p122
(dp123
g4
I0
sg5
I0
ssS'9f1ccc47ee2fe729959deb8d6b82381e77005029'
p124
(dp125
g4
I52
sg5
I5
ssS'78f87e3c6b3e1b5af86e2ba1ae554ea7084c22f0'
p126
(dp127
g4
I11
sg5
I26
ssS'fc6539bdb56b750b02554ccf63a691950951018d'
p128
(dp129
g4
I37
sg5
I4
ssS'91506a82c37df69a40598887ed631021186ab9e4'
p130
(dp131
g4
I0
sg5
I180
ssS'fef79eef2597dd30284e1f3ea69cf039521d026b'
p132
(dp133
g4
I55
sg5
I26
ssS'782a605d413bd7a7e1f8d0b223a57ff7888a9876'
p134
(dp135
g4
I0
sg5
I1
ssS'5cba0952e33b1fae59da0a93923fb3650ab5649f'
p136
(dp137
g4
I30
sg5
I1
ssS'dca3244ac7681fff5246af523deb0e8bbd848b04'
p138
(dp139
g4
I12
sg5
I12
ssS'e997206801738d624e5bb49bf90e88188f26b0f7'
p140
(dp141
g4
I8
sg5
I2
ssS'a20e21ca3a557958fd12f476590ce8cc360eaa3f'
p142
(dp143
g4
I3
sg5
I4
ssS'f541607b5a9747f415f3c4b8ec6f2db985b5d3f8'
p144
(dp145
g4
I0
sg5
I0
ssS'85529cfcb8e870333d7292cb493f54d7f3fd92cf'
p146
(dp147
g4
I6451
sg5
I0
ssS'b6cf7abf6b3ffe38e77a83cc38d4446d1be66930'
p148
(dp149
g4
I21
sg5
I1
ssS'2fc11b8cc2703f767e3793a468d32d63ccbd2b06'
p150
(dp151
g4
I4
sg5
I8
ssS'fb64c733945e719d8b5d3f5e467cb0c0b01a0fb0'
p152
(dp153
g4
I1
sg5
I1
ssS'e6d8270029a744c1f7b5a585dac56a3fc3c6cb8d'
p154
(dp155
g4
I7
sg5
I7
ssS'44115d6fa8a7b0c09c650d1293cc19707bf3f278'
p156
(dp157
g4
I17
sg5
I17
ssS'4683aac39450f3001a214aa890e4179ad514515d'
p158
(dp159
g4
I10
sg5
I1
ssS'a69de80c4a642458fd7f59011827d70e333e9a78'
p160
(dp161
g4
I7
sg5
I7
ssS'446f43b1188506070eddef22b7374ee77573cef4'
p162
(dp163
g4
I2
sg5
I10
ssS'86e0743ead0ee08bfd7a5ce32c5f76785d633117'
p164
(dp165
g4
I18
sg5
I1
ssS'5d3f2a5255224c15c316d0854fd9db2b41a201a0'
p166
(dp167
g4
I27
sg5
I2
ssS'7d73b2cde14636df2fdc446fb9f3fbd90e85eaf2'
p168
(dp169
g4
I0
sg5
I0
ssS'c8b757cdfdcc7542214698fd4c9f1072ae54bf3f'
p170
(dp171
g4
I116
sg5
I61
ssS'2dee604a1e2ff2f007021f8857386055766acd71'
p172
(dp173
g4
I0
sg5
I0
ssS'c6c2d9c3836d586f6edfe2a3df3a1710fe15d6aa'
p174
(dp175
g4
I3
sg5
I4
ssS'6faf166a269f34232f930bd413569e488fc0fd37'
p176
(dp177
g4
I4
sg5
I7
ssS'c3769fe82efadc93e691fda1235533734c3080a2'
p178
(dp179
g4
I3
sg5
I2
ssS'3c99f7f35ed5c5f1fd6bf9d4182ad850d0e49fd3'
p180
(dp181
g4
I116
sg5
I135
ssS'8728e54a645e0c3914e253451be3a0fa816bd099'
p182
(dp183
g4
I1
sg5
I0
ssS'5e7e54fa613f290b286dea30ee2d7a5826f017fa'
p184
(dp185
g4
I4
sg5
I4
ssS'71d2bec0391f23da9941c240b4f68a1f6c41ccdc'
p186
(dp187
g4
I9
sg5
I10
ssS'37a3f6b9f8ecafd91444825e2e6502b49dc6bdef'
p188
(dp189
g4
I2
sg5
I2
ssS'fd3a2b9ba7219dc3d2320f7bb5836491fcecd239'
p190
(dp191
g4
I1
sg5
I0
ssS'52a71451b92972c9d5cfdcd9d26c77dc432d54ef'
p192
(dp193
g4
I4
sg5
I1
ssS'60f82d91dade1093f30e2185225534bb37cde492'
p194
(dp195
g4
I2
sg5
I1
ssS'836a18fc891a48c952d4270566ff32cdb690b3fb'
p196
(dp197
g4
I3
sg5
I2
ssS'f34ede0568e62c8fb9927356c180ae9c0a654c41'
p198
(dp199
g4
I0
sg5
I0
ssS'85a77c0c26b478ee102493259be1646894dfb85a'
p200
(dp201
g4
I8
sg5
I17
ssS'17affb749d99dce10801ed0b0541c3561105c0bd'
p202
(dp203
g4
I4
sg5
I1
ssS'dbe95f9ad77e523a126d9d4ce8d92e752a738fb7'
p204
(dp205
g4
I2
sg5
I2
ssS'4ed71413c3c1afa4a36fd56f6d9ebe434bc8cb7a'
p206
(dp207
g4
I3
sg5
I3
ssS'24c221a630e0b3799e651c361005ad51bcaff84f'
p208
(dp209
g4
I15
sg5
I1
ssS'b183c21bd34219a121472f61f60d0748a832df45'
p210
(dp211
g4
I3
sg5
I2
ssS'581195e02bfa9e6c82dbf6f8710709b0f0b2eb07'
p212
(dp213
g4
I0
sg5
I0
ssS'b9e462e49d38e5e4a188f5fb24b61a71aeab8320'
p214
(dp215
g4
I28
sg5
I19
ssS'e6c42992fef4bd840800f4f4610d52b16aca155a'
p216
(dp217
g4
I24
sg5
I4
ssS'5ec8089dd83afedef8948a85c7fdee2a0bb6a485'
p218
(dp219
g4
I27
sg5
I4
ssS'6b9a7ed82cef0b89edb00b19e991fe6ec5d057d5'
p220
(dp221
g4
I47
sg5
I4
ssS'253ea2e5649654eb6b04b82480d7899e07dc24e9'
p222
(dp223
g4
I10
sg5
I4
ssS'0ec2bb51062520983d68206a71f635694a9373a1'
p224
(dp225
g4
I8
sg5
I7
ssS'2e7fb65c516c974a5bd3d80a9a6b9a09c3b05afd'
p226
(dp227
g4
I20
sg5
I2
ssS'45d4599c1bc6dea457c1d87057e2f44bf43db518'
p228
(dp229
g4
I3
sg5
I3
ssS'8a33593a83b8f549a657c6a2ab028e757a289565'
p230
(dp231
g4
I12
sg5
I8
ssS'f923690986a21c7507879218f6564380195e318b'
p232
(dp233
g4
I2
sg5
I2
ssS'1b3ae1e3d55dcd93a56ac99c1fac9cc4bd3d4387'
p234
(dp235
g4
I3
sg5
I1
ssS'ef15e0d476f5ca765a79da8400d268a284129476'
p236
(dp237
g4
I2
sg5
I9
ssS'a479d51bc2ca85e4071dbca65b8cf4dc0cbaaf59'
p238
(dp239
g4
I14
sg5
I7
ssS'29cb81e5e05923cd816e29cee27aaa5e9bb285c2'
p240
(dp241
g4
I26
sg5
I26
ssS'4fd99076a73873ac4f230c7400c80decacb2ea62'
p242
(dp243
g4
I0
sg5
I0
ssS'2d0ec031f6921d21196de0fdad96b2eaf01104b3'
p244
(dp245
g4
I9
sg5
I1
ssS'634541689b060755772840cac693dd542e4c1f09'
p246
(dp247
g4
I11
sg5
I4
ssS'32abd38b0112b32a75cf0ea04bbf3b11df9512a7'
p248
(dp249
g4
I3
sg5
I2
ssS'f17f17a4d01f4250b9670754ee646ffcc0b60d98'
p250
(dp251
g4
I5
sg5
I3
ssS'57ef54098a823ab10f139d818a05029f1edfd15a'
p252
(dp253
g4
I10
sg5
I16
ssS'e87f9321919e5f2b1fc3c6e3b88a5cdf9d6e413e'
p254
(dp255
g4
I6
sg5
I20
ssS'5f7128b370609e8fb4be48890941afcc189f4b8b'
p256
(dp257
g4
I2
sg5
I7
ssS'aa5c507dcbe450912e24665d2e3be46bbdddcce5'
p258
(dp259
g4
I314
sg5
I351
ssS'a7ede2b878dbc4d260107d59487948d6f1fb39bc'
p260
(dp261
g4
I8
sg5
I7
ssS'9b180e60607bee8c3269a0f1a910d041ecec7353'
p262
(dp263
g4
I1
sg5
I1
ssS'82838274c88a35c799d32fc7fb8a87b6ba97b452'
p264
(dp265
g4
I2
sg5
I2
ssS'cd1bc8b2fcb0530bd8a54b14d240e70ebfc98d63'
p266
(dp267
g4
I1
sg5
I1
ssS'6963c74ffb9e69b5af8d376078dcb7ab1596a906'
p268
(dp269
g4
I1
sg5
I0
ssS'ab1534bf69b90434f1b4b24d23f7c24233d092b1'
p270
(dp271
g4
I4
sg5
I1
ssS'e7f00c2389e5567bf04f141a33e8afb2174e7324'
p272
(dp273
g4
I25
sg5
I25
ssS'43cd0c615d7cfdcad19202a58ea99059ad4eb1c3'
p274
(dp275
g4
I0
sg5
I0
ssS'bfba3afb9a1190cadf35631d96b4cccce276b8c2'
p276
(dp277
g4
I6
sg5
I6
ssS'0fb16471853b9f674c11e90b7fcc8a80ced82c0d'
p278
(dp279
g4
I1
sg5
I0
ssS'63f8f2c8e41ac4be854968990d577a6ae9df9e72'
p280
(dp281
g4
I13
sg5
I0
ssS'46eda95d6cd18c7b80091b184a7d635d572121c5'
p282
(dp283
g4
I2
sg5
I1
ssS'68c77fc816dd32bcf2618a621720106d97b017ff'
p284
(dp285
g4
I11
sg5
I1
ssS'0b3f7dcbcad6e3c7c6b56a6bb5a39ae931f5a92a'
p286
(dp287
g4
I8
sg5
I1
ssS'0b95c6d89a5eb2d3855b2353bb9817cc7cae3ded'
p288
(dp289
g4
I28
sg5
I999
ssS'bd25fc260e6f66086746eec57ccfe87d6fd56aaa'
p290
(dp291
g4
I60
sg5
I65
ssS'e60114b2828a0e8b3a6cf6755c78531fc0240f2a'
p292
(dp293
g4
I23
sg5
I6
ssS'b9a27a482c26910cf3305f2e1439f16491ff9bc9'
p294
(dp295
g4
I2
sg5
I0
ssS'ad95c5699655a283b682837b6715fbe399229485'
p296
(dp297
g4
I537
sg5
I538
ssS'890959357b1cb0ff046bfe54c091ff9656b59e97'
p298
(dp299
g4
I0
sg5
I0
ssS'c35b323646acc614340264c6b3412e77e55d67ed'
p300
(dp301
g4
I1
sg5
I0
ssS'd84836b80305a6ea1a05dd5c3f52300bfdb5cbac'
p302
(dp303
g4
I33
sg5
I74
ssS'c35e40a99c248b59b3bc0426a78907945c059c9b'
p304
(dp305
g4
I7
sg5
I7
ssS'932ad093bb3060ca3490203880f677ffdc303f41'
p306
(dp307
g4
I181
sg5
I1
ssS'55d4371d9f9dca0689f7b44198ccbde5e88a4ed6'
p308
(dp309
g4
I1
sg5
I0
ssS'e4b3de5f4e7828ab71eb8713c7bf4da20bbfc602'
p310
(dp311
g4
I1
sg5
I0
ssS'037c898b380b850407455e1820ce0de751e17225'
p312
(dp313
g4
I2
sg5
I1
ssS'4bd1701364807fa5aed916ef857b8dd441ac9d2f'
p314
(dp315
g4
I9
sg5
I23
ssS'3993719a083006b98df1d06258f7a1b31b049e5f'
p316
(dp317
g4
I26
sg5
I3
ssS'3630cf510922ef1afd15ecf00bbf6e82adcd41b4'
p318
(dp319
g4
I4
sg5
I4
ssS'8df7872b2ff7afccb1246aedda4d15837f74996d'
p320
(dp321
g4
I39
sg5
I1
ssS'ba2393d46474b72bb04b50dce629a9fa2bd6c7c5'
p322
(dp323
g4
I31
sg5
I3
ssS'4531d7727d6f265c0b583bceba703555c0abb646'
p324
(dp325
g4
I56
sg5
I67
ssS'2579966614a246ce3bb1bad67238f6a0b36f0ff6'
p326
(dp327
g4
I12
sg5
I0
ssS'6edf633dd61092d80349420d02540e16d3a7fd35'
p328
(dp329
g4
I6
sg5
I0
ssS'5fde1d33cf2fc9e11c7eadd35dc91d9d81e1079f'
p330
(dp331
g4
I70
sg5
I179
ssS'6e6e182003ad3cff1ac7632f908a8d543148d9c5'
p332
(dp333
g4
I5
sg5
I6
ssS'097d291e6ac3b9f08f947f6b9e84079b8f6a0d96'
p334
(dp335
g4
I19
sg5
I10
ssS'5dc3d54286d4dd7cfc92a43ccaf8322c0ded7939'
p336
(dp337
g4
I3
sg5
I47
ssS'3203eb1204a0ea5e385d5f5726c2993c1d832eb0'
p338
(dp339
g4
I1
sg5
I0
ssS'aa2c97c318dd569e09329bab7e7ac8c4e1641bef'
p340
(dp341
g4
I42
sg5
I0
ssS'5f10041b49506129e3daefc285a0308491e1ed21'
p342
(dp343
g4
I0
sg5
I2
ssS'f9a5177abbe09ef6ff704034a5f3fc9713612ddc'
p344
(dp345
g4
I1
sg5
I1
ssS'0b10a8471a4cea90f1b47007fdd500bd7bc8dd23'
p346
(dp347
g4
I68
sg5
I33
ssS'28c4fea1488a9a0763a4d2e27c99c5e7572323bd'
p348
(dp349
g4
I0
sg5
I0
ssS'e494ef993988201e8ea438e224c72a962baaaf8d'
p350
(dp351
g4
I22
sg5
I1
ssS'b094a0d1d4ce9b19c5052aac286f546233d0e0c2'
p352
(dp353
g4
I3
sg5
I1
ssS'92b1a3e50a82e475bd992c5b7674057160e0ce19'
p354
(dp355
g4
I0
sg5
I0
ssS'78256c48def62c77d2bf9636834f775ea8d83fac'
p356
(dp357
g4
I8
sg5
I12
ssS'64b3c326b012ad1237a1ffa174ba4c8f770775b9'
p358
(dp359
g4
I2
sg5
I2
ssS'91ed159199a7fbb9a156e29f195ab5b2dc6b0159'
p360
(dp361
g4
I1
sg5
I4
ssS'f22243401b2f72ae3fbd8083f9428e3f2af14168'
p362
(dp363
g4
I2
sg5
I3
ssS'a4ed4ed53598c321243bb4f79c93a40b799a1b31'
p364
(dp365
g4
I1
sg5
I1
ssS'9ad1dc0b2526dca64ba630696ee84669489bc0c5'
p366
(dp367
g4
I17
sg5
I0
ssS'461e0161dda5bb8ce1f2817adcb6379f6a9e7b19'
p368
(dp369
g4
I136
sg5
I18
ssS'9ff3beb68314ade13fa58f3e67c97b0ed00abd31'
p370
(dp371
g4
I1
sg5
I1
ssS'cbf24de987ff51a870f7177bb361f6204809c9a4'
p372
(dp373
g4
I43
sg5
I3
ssS'e5aab8a69fc184c8f67ed8228b7b8c5d270c6bd6'
p374
(dp375
g4
I0
sg5
I0
ssS'5104cfb0e31bb88882c6c6bb6e9c653c56ee99e9'
p376
(dp377
g4
I1
sg5
I0
ssS'0fd5b636cbbf9441f06a6aaba72768fc30c93c6d'
p378
(dp379
g4
I7
sg5
I1
ssS'96dbb797e7d1a5f5c7f59b53a54b49bf0fd2ed9c'
p380
(dp381
g4
I3
sg5
I2
ssS'5b0746a34b39a9c8d0fb00a1277fd844666a247d'
p382
(dp383
g4
I3
sg5
I1
ssS'4ca36d5da5f95477cebbc73e990617609244069e'
p384
(dp385
g4
I31
sg5
I5
ssS'fe12a693c4967360f9a403cc2b5ff6c5c4ac8a02'
p386
(dp387
g4
I8
sg5
I1
ssS'f529b2e487e546d2266f7477a6ca998f11773014'
p388
(dp389
g4
I10
sg5
I14
ssS'61a3c2dee47d35223c7ce3b8609f1821530f58b7'
p390
(dp391
g4
I0
sg5
I0
ssS'b2b147f263d340042dee9af08a8a64641fe1f0a6'
p392
(dp393
g4
I33
sg5
I0
ssS'da661ae12efad7b88333cb5983994543ef2d4b12'
p394
(dp395
g4
I6
sg5
I6
ssS'ebe5cb67bdfc988e9df3d4ec42db531439cca372'
p396
(dp397
g4
I0
sg5
I0
ssS'3d6bc2479897ef548ee9fb69a5b94a7125c320b5'
p398
(dp399
g4
I48
sg5
I35
ssS'c40da510d63fc1a934901c3cfd988bc4e0946e2a'
p400
(dp401
g4
I3
sg5
I15
ssS'59553f28ebb03841a7dce4e8c96023e60d4e35cd'
p402
(dp403
g4
I65
sg5
I61
ssS'01801c5776cdd02ba85b41f556c615d5cdb3ff20'
p404
(dp405
g4
I1
sg5
I15
ssS'cc301b2e96da6916a482e583183e32b8f5894c77'
p406
(dp407
g4
I8
sg5
I4
ssS'51a41665cf0214f64869654afe1fe31385c20e3f'
p408
(dp409
g4
I275
sg5
I1
ssS'017d9d3432ae97bdf114ba5937e9f9c7db1e1b8e'
p410
(dp411
g4
I10
sg5
I1
ssS'db740f29f7a2a9a737f080d423c3a641c4dc5257'
p412
(dp413
g4
I0
sg5
I0
ssS'34654dc7383560be738495a2f5b6e0b06516161a'
p414
(dp415
g4
I37
sg5
I23
ssS'f188f3e61022c173d62c9e1609ce5983c0153971'
p416
(dp417
g4
I93
sg5
I39
ssS'549cef3c16031bd722dd1d4ea032f1521d19b686'
p418
(dp419
g4
I1
sg5
I0
ssS'b258a6b92276594ace53509a43313c02b098f4be'
p420
(dp421
g4
I2
sg5
I2
ssS'90ae91ecc00934a2316ecd8be423c7eba9bc4111'
p422
(dp423
g4
I5
sg5
I0
ssS'a6721e299db6f4bb0f6b59416f9cb0ad417c77ff'
p424
(dp425
g4
I0
sg5
I4
ssS'93e06a3679c6c961239431c667eee60d04c8fa32'
p426
(dp427
g4
I9
sg5
I11
ssS'4a587ad49613f82f789dcc8aaf322e823a773b39'
p428
(dp429
g4
I0
sg5
I3
ssS'07866ef38b2f8b37914dae89511b6fb8e3a70539'
p430
(dp431
g4
I5
sg5
I1
ssS'bd37099da9be252df81d085d173cc65b1a7fe540'
p432
(dp433
g4
I7
sg5
I4
ssS'1e96ea4167cef70ea1c1f0ca936b6c50de1fd7d0'
p434
(dp435
g4
I810
sg5
I177
ssS'2548e981f8212cb2a11e2acce7e0de93b204177b'
p436
(dp437
g4
I38
sg5
I2
ssS'575ea49d2f126cd5b294cd333360a9e60adf5f3f'
p438
(dp439
g4
I16
sg5
I15
ssS'650f0a151ca98b8e91a91c11305b84f771c64dbb'
p440
(dp441
g4
I46
sg5
I26
ssS'6ff63289e00f3e3b5054f79038cf70ad4f73ae75'
p442
(dp443
g4
I10
sg5
I20
ssS'ef4fa9c67dd4682472214f98887ce2ac743c9aaf'
p444
(dp445
g4
I52
sg5
I9
ssS'ab87b444cf6a22ae66cd08cf2a2ffc2f4437cf03'
p446
(dp447
g4
I686
sg5
I724
ssS'9a3889c5f996b6b1b5bcec5fd5dedbde4e12e163'
p448
(dp449
g4
I4
sg5
I1
ssS'cdd1a61999fbb1d91804494eea48cdd9ae5a7f88'
p450
(dp451
g4
I2
sg5
I1
ssS'4f591e7d69ab96ee2bb3eff64c42ff48114cb511'
p452
(dp453
g4
I1
sg5
I0
ssS'621c9b41e899685917dba978645e54be33ec7e6b'
p454
(dp455
g4
I5
sg5
I7
ssS'145eba7763c64bbfca5f08eff4c3c54db6cdd1b2'
p456
(dp457
g4
I3
sg5
I3
ssS'33a2abbac9251557bc065cace47f43a2997bedcc'
p458
(dp459
g4
I11
sg5
I2
ssS'b600e40101e4bf8889fea46a717cc2f8e351e3d3'
p460
(dp461
g4
I207
sg5
I188
ssS'e55358b4758385d34d292eb2ee61653374d661fa'
p462
(dp463
g4
I3
sg5
I3
ssS'9f5c4d93dfd4f27107cd9b1efa1aac54c9deee30'
p464
(dp465
g4
I14
sg5
I9
ssS'b63443d7641cab0fab79986868c5dafedf5f37d2'
p466
(dp467
g4
I1
sg5
I0
ssS'401cd98f5f0268a232a27bf29351fd0ad021ca1c'
p468
(dp469
g4
I9
sg5
I5
ssS'bfa80d0c541e4b23c0abb07ea67253b833e1d103'
p470
(dp471
g4
I2
sg5
I1
ssS'67f1c8de3e07bd3d969c460a78aa6a0e7675626a'
p472
(dp473
g4
I54
sg5
I3
ssS'34b23b7c3d307cc496a6daed6bac3625afdeabbc'
p474
(dp475
g4
I2
sg5
I2
ssS'5f8291ac563ee9cc79869891b92e44615301654a'
p476
(dp477
g4
I0
sg5
I0
ssS'e82955b5eee4d93a3860e42f91c9e92c8862a0e5'
p478
(dp479
g4
I12
sg5
I3
ssS'eb6090eaec9eaa29e3394a6a9e6059b3107e454c'
p480
(dp481
g4
I34
sg5
I29
ssS'9fe835e2dee7d401b3f7e1ebd442dc39da956386'
p482
(dp483
g4
I14
sg5
I1
ssS'97889bd45936014b69b1d39001f04fa807922262'
p484
(dp485
g4
I0
sg5
I0
ssS'84f056cbeb445bc173f4782e3f763cce6bbdab29'
p486
(dp487
g4
I1
sg5
I0
ssS'993056dcc03874cc77ad951bfbb31f4e3b2e735e'
p488
(dp489
g4
I11
sg5
I8
ssS'bd843b0a898580ad4476b63d95592bfb363515f4'
p490
(dp491
g4
I82
sg5
I3
ssS'34d0121454001ef9a390e292ca819f8cf8cde0ef'
p492
(dp493
g4
I17
sg5
I2
ssS'a81ea54a973d86f39ff19b3aadea7e665f6d973a'
p494
(dp495
g4
I458
sg5
I329
ssS'fc75b3a8658db6c6ac3d6c4168a47a722175c0c1'
p496
(dp497
g4
I22
sg5
I1
ssS'0e131af59e62e3730f85699041a4785695bbe906'
p498
(dp499
g4
I23
sg5
I0
ssS'd432585c22ec4920f3a22f342b29ec46bf4f3d3c'
p500
(dp501
g4
I1
sg5
I0
ssS'12c1ff899732f902a8f2563c1dc28132a8469afe'
p502
(dp503
g4
I1
sg5
I1
ssS'e4a4989bd7613105be3c79b6c95ee59546ed530f'
p504
(dp505
g4
I13
sg5
I9
ssS'fa95b615324cba1df7dc25a6e72f9b519f4c5cf0'
p506
(dp507
g4
I1
sg5
I1
ssS'e80ec5e857e08f5899d38ca80a38fad14956cb51'
p508
(dp509
g4
I1
sg5
I0
ssS'82df6145be5f8f138529a411af2d16ef12fe0ae7'
p510
(dp511
g4
I6
sg5
I4
ssS'9aab8ffe4b6c787712f1d1d8530a4d205c387a3a'
p512
(dp513
g4
I4
sg5
I1
ssS'3e27213914271309a4716662b09fda91fca9efa1'
p514
(dp515
g4
I36
sg5
I15
ssS'2cebc765290c7f2f082bd20ac6fdeaac8b3dcf47'
p516
(dp517
g4
I29
sg5
I14
ssS'40404237fda76e16e18dd6c637c6907faa9338f8'
p518
(dp519
g4
I4
sg5
I3
ssS'5deb78464b0fd7d951c5dbc926de5d71e8ec2f51'
p520
(dp521
g4
I1
sg5
I2
ssS'21e06cccd59415a1bdf90a70e24b3fe0977ea743'
p522
(dp523
g4
I9
sg5
I9
ssS'25a6e43f067c2eb842c6acb2eb1909ba7b1775ac'
p524
(dp525
g4
I4
sg5
I8
ssS'f73852321d55165005c3b66894fc2ead35beda94'
p526
(dp527
g4
I26
sg5
I1
ssS'a944eac910b9422adf647e9bd966f1339142562f'
p528
(dp529
g4
I3
sg5
I0
ssS'54d3871cf554eae94bc48f1215cea5ebd8bce8ea'
p530
(dp531
g4
I1
sg5
I1
ssS'97d4d55c7a255ce8e638eeb7e01b2002c6ae3b8c'
p532
(dp533
g4
I0
sg5
I0
ssS'cfcbdcb31c926fb08e0620fa2f3a82302d1f6ff8'
p534
(dp535
g4
I5
sg5
I6
ssS'1a757073de2d0ca31af41c1470dcf09ad7d7f334'
p536
(dp537
g4
I12
sg5
I1
ssS'35f5e3b1afbfb05dcadf9f143c816bc6086c6183'
p538
(dp539
g4
I1
sg5
I2
ssS'b7f559a5b0f367aa7ade582000cb747f6d8b2f71'
p540
(dp541
g4
I9
sg5
I2
ssS'e492f6943dc1912c5396af4880031b874a638a66'
p542
(dp543
g4
I2
sg5
I0
ssS'78222e4d6cd7d9f73721d9ef72f836c24149acad'
p544
(dp545
g4
I1
sg5
I5
ssS'f75437d147196a57d82b36d90e4508eb88b4cdb8'
p546
(dp547
g4
I1
sg5
I1
ssS'461d2398abb6d0f89b30ba48e487877036e57400'
p548
(dp549
g4
I1
sg5
I2
ssS'a17ee27eafc308403f1877aa6bf3af4e4b63557e'
p550
(dp551
g4
I1
sg5
I10
ssS'7cf691fc1fbd9891d3349d0c595b7eb1ce256ae3'
p552
(dp553
g4
I1
sg5
I1
ssS'5d61709d856140b8d0f9a823ec62f4adae04cf4a'
p554
(dp555
g4
I574
sg5
I31
ssS'5745a8c25592f6051691eca8b55a1cff1eb304d8'
p556
(dp557
g4
I41
sg5
I85
ssS'e6554d4a7b4f2fd62a16c9e5f1ce807ea47a4a9c'
p558
(dp559
g4
I2
sg5
I2
ssS'251f1e41ff98a86b9e14b064b116ad646dbb562b'
p560
(dp561
g4
I37
sg5
I65
ssS'9f3a85449a3e7ccc6ea0f72bf48aae5b67375bb3'
p562
(dp563
g4
I0
sg5
I2
ssS'afe92ebef42ba05f7ce9701c78cdeb61a29d7467'
p564
(dp565
g4
I16
sg5
I13
ssS'fcd68800cbbb80049f21c01692bb02eb090e4c8e'
p566
(dp567
g4
I1
sg5
I0
ssS'2976a31a05f6738e0440885531e1a527cd2b807d'
p568
(dp569
g4
I10
sg5
I18
ssS'dbd63464f05c951bf494195f1af91c85de995530'
p570
(dp571
g4
I3
sg5
I0
ssS'703ec99df8c2c7e8289974a0a64fc1fd10eea913'
p572
(dp573
g4
I1
sg5
I1
ssS'56c853b254ae1c4de94517fbba465af3808aa1e5'
p574
(dp575
g4
I2
sg5
I2
ssS'7269b630a8870c7c227cb477c1378f9b4632aa71'
p576
(dp577
g4
I0
sg5
I0
ssS'42eac7d838b74c2ce137a76bb0733c5b7e3569c3'
p578
(dp579
g4
I4
sg5
I1
ssS'cd0629d9efb00c3f156f5501744b6f0a81dd9884'
p580
(dp581
g4
I1
sg5
I1
ssS'f957b87c97078135d949a25712b7c5fdb7849a09'
p582
(dp583
g4
I5
sg5
I1
ssS'6404277c5471119ee0444a67144f57d698b24411'
p584
(dp585
g4
I81
sg5
I12
ssS'5a0d6e82d8b4182d2f611e30b71430b08d57c51e'
p586
(dp587
g4
I0
sg5
I13
ssS'b8deedb7769a0120cc626f7b534fb0c88e973bd9'
p588
(dp589
g4
I2
sg5
I2
ssS'c3c738958abbff0ef8276ab38a4dcfabe6cc40ec'
p590
(dp591
g4
I28
sg5
I8
ssS'67739b7c1fd8b0dd1f84f42bd7f52c7deb69b299'
p592
(dp593
g4
I1
sg5
I1
ssS'1e968b236f6d3c0349c8796149e7c59250324e8f'
p594
(dp595
g4
I0
sg5
I4
ssS'522e9cc96d418d421176637aec84216a8cb6a0a9'
p596
(dp597
g4
I3
sg5
I14
ssS'a304d48acbd14f2e8bedc6673c7bfd0d53213ba2'
p598
(dp599
g4
I2
sg5
I2
ssS'4221d0341f040be53b0a9079e9b2302913c3273c'
p600
(dp601
g4
I2
sg5
I0
ssS'f0662f4e8ac0f4cb3e1242a4beb6d3d4944f156c'
p602
(dp603
g4
I11
sg5
I1
ssS'70b7afc4e70de165b4770bd9abda6a9b5440fdef'
p604
(dp605
g4
I75
sg5
I65
ssS'cb71ae2e8eceb1cd8ce92f7a93510621f2e9c198'
p606
(dp607
g4
I5
sg5
I3
ssS'c8a4ad19cde687b6f9a77614c6ca7ab54c6b0d41'
p608
(dp609
g4
I5
sg5
I3
ssS'21d168d46450f0bdc85da731ed5765662e029a62'
p610
(dp611
g4
I4
sg5
I0
ssS'000e9deb2f8c0049729d0e31bc3d0898caf77f13'
p612
(dp613
g4
I9
sg5
I8
ssS'a784af9c5296eff332044a521a1c5ca3945a8fec'
p614
(dp615
g4
I5
sg5
I5
ssS'2399043186f5424e83005c128cc017a260fadc44'
p616
(dp617
g4
I2
sg5
I3
ssS'ace4088b9837fc07a529edbb57b74583168da009'
p618
(dp619
g4
I2
sg5
I5
ssS'014ee2d795f0596e620b02ae36fefb0b47313a5a'
p620
(dp621
g4
I47
sg5
I5
ssS'd3a232dbef717113e8e35c4c6422c86dd849ad9f'
p622
(dp623
g4
I6
sg5
I5
ssS'110acf80d6f1c199ebcc7ebe57c61d8fde312dcb'
p624
(dp625
g4
I70
sg5
I0
ssS'fc02b9e6bc453e0413e324c7a458b5871277744c'
p626
(dp627
g4
I49
sg5
I27
ssS'e10cd03c08aaf46308504330b180107e421350d6'
p628
(dp629
g4
I29
sg5
I164
ssS'fc4777a4b5dba839744ad22d666dfe40d2adb21d'
p630
(dp631
g4
I2
sg5
I2
ssS'127cabb812041fe5252f2e56a7467f5c03cea34b'
p632
(dp633
g4
I30
sg5
I2
ssS'abb7060af15170685188eb4f2f89827c70596bff'
p634
(dp635
g4
I7
sg5
I2
ssS'95ee8a6c7fc4899ca7f557789303fe5b41eea643'
p636
(dp637
g4
I129
sg5
I131
ssS'119c8c6a70a166283b2f0cd5cfa18b45d8592ab9'
p638
(dp639
g4
I0
sg5
I0
ssS'f2b1f2efd8e5a1653f7d86836606353eab594b99'
p640
(dp641
g4
I22
sg5
I13
ssS'e3d1adbac0a3b8c74b778083e81652a119850236'
p642
(dp643
g4
I3
sg5
I2
ssS'563031aaf13a44adc8db4f8d0ab8020d550aae00'
p644
(dp645
g4
I13
sg5
I1
ssS'8ae37a6cacc98a17ff976e29c57ae22fc932ae04'
p646
(dp647
g4
I1
sg5
I0
ssS'1cfd85c6ecb113e049af052acfb47b3430085ff2'
p648
(dp649
g4
I2310
sg5
I1
ssS'e1c5ffeb98d2c2f52c909b226628cea8a880a64f'
p650
(dp651
g4
I3
sg5
I1
ssS'1117640f153008891574212fe2ba149722754675'
p652
(dp653
g4
I44
sg5
I34
ssS'66efeb009ea94fd9494951bb7c6f866c6c9b6f37'
p654
(dp655
g4
I16
sg5
I0
ssS'800572c15de171f709e0a1ccc30af9cfa2a90d08'
p656
(dp657
g4
I5
sg5
I4
ssS'4e24753b338182bed0ec7e7cefa247bf3392da44'
p658
(dp659
g4
I1
sg5
I0
ssS'f9394f4166d992864439b17e8e2a1642d781bc89'
p660
(dp661
g4
I79
sg5
I55
ssS'66724fc0227f0c8487226bc2f144dbf99c5dba18'
p662
(dp663
g4
I21
sg5
I21
ssS'3ee8488772571cff55588ac377f37ca050c3b739'
p664
(dp665
g4
I137
sg5
I1
ssS'3916a848c3149d546a8f0e8c06406585378d7ee3'
p666
(dp667
g4
I93
sg5
I165
ssS'489ad7eb63fd91c9254ea88e3991e2ed596b2456'
p668
(dp669
g4
I27
sg5
I26
ssS'2baf182d5dde39921b6020e22544472d18917291'
p670
(dp671
g4
I1
sg5
I1
ssS'2a8aa71a0133a34ca28d81117586ba45d6081cdb'
p672
(dp673
g4
I2
sg5
I2
ssS'60743e7e19f319af951948a3fcc2804f980293d3'
p674
(dp675
g4
I10
sg5
I2
ssS'08da0883fe46dd66848b47c7450295256bd5dc04'
p676
(dp677
g4
I13
sg5
I4
ssS'1207e112bbe14f01e78204f20cbe27c499e3c383'
p678
(dp679
g4
I2
sg5
I2
ssS'6ff1abff56e05be92486d631121c457681d03bad'
p680
(dp681
g4
I1
sg5
I1
ssS'e3d14d0f46feaa031a00e31b283bc54cc203b8b1'
p682
(dp683
g4
I0
sg5
I2
ssS'c5d7bcac79cb4f17b2dc4ce23757bd3b4e887de8'
p684
(dp685
g4
I11
sg5
I2
ssS'1aaa7dce165618bd4f28f0d1c0abf8544c65d684'
p686
(dp687
g4
I29
sg5
I56
ssS'a6ae7da3846c93390ade7d5a2aa41f24007dcbf7'
p688
(dp689
g4
I28
sg5
I22
ssS'b660d0c88a7e72049ee1299b0bcef84345626d0d'
p690
(dp691
g4
I24
sg5
I0
ssS'12de5c7222e0982f2220bd361a5482d46bd57bff'
p692
(dp693
g4
I25
sg5
I0
ssS'f505daf0bdd2b4dab1297b75f47e1f047bf142ec'
p694
(dp695
g4
I4
sg5
I4
ssS'dc7cdd223f7d0897d7c5f6c3dd89143ca3128bc7'
p696
(dp697
g4
I1
sg5
I1
ssS'09f7c5223fc3dfb0f81e311bdf675c67649b63c2'
p698
(dp699
g4
I47
sg5
I36
ssS'027767ab3240554dab070bfc4993d929d20b14d6'
p700
(dp701
g4
I22
sg5
I2
ssS'bbb83b5b8356ef7432ed4741e171a483e88a49ee'
p702
(dp703
g4
I49
sg5
I6
ssS'bb8f9f5fa4f4d442ef41825ea6e16d8549d82342'
p704
(dp705
g4
I6
sg5
I6
ssS'78e39e1e88b5a285b57eb87d7e8af21f43fa8432'
p706
(dp707
g4
I1
sg5
I1
ssS'7c8c1e08c62c24a1a282141514a8b4b8c9fb2188'
p708
(dp709
g4
I0
sg5
I0
ssS'8da09335f9fcdc85478e8c295369b9a8c58da2a7'
p710
(dp711
g4
I12
sg5
I0
ssS'361e248001cdc69f2c3328cc1071646ca8f61f27'
p712
(dp713
g4
I11
sg5
I2
ssS'df44eaa634af60f011a4e96db72e91161df9cad2'
p714
(dp715
g4
I0
sg5
I0
ssS'4bf4b0b7d16d1dc112560f93cfd1d1b5dd7c02f4'
p716
(dp717
g4
I1
sg5
I3
ssS'e7b1d3681c8e25a4f10bc1fdc07fa280fd70c26a'
p718
(dp719
g4
I313
sg5
I192
ssS'ea93168e0cbdbbf4a79e36ccda4543d75df2dd31'
p720
(dp721
g4
I1
sg5
I1
ssS'22610531a73df7fd66305c1166263855a9314a8b'
p722
(dp723
g4
I0
sg5
I0
ssS'147e785eb915d8ae7e8dcad334a7b6f6a8f769be'
p724
(dp725
g4
I27
sg5
I5
ssS'bbc107fb2afed934eef85c3682aa4b3a20cbe450'
p726
(dp727
g4
I8
sg5
I4
ssS'd4af1d85c429927268015620a1485c3c8ce9738d'
p728
(dp729
g4
I5
sg5
I5
ssS'7dadecf9120d1ab1340579ed011e91d217af1600'
p730
(dp731
g4
I15
sg5
I2
ssS'8ed837d828692db5b95b3e906bebeacbc68c256f'
p732
(dp733
g4
I11
sg5
I18
ssS'd2aca4c55d7dd7b2a35c6f08ee709dd4bb263aa5'
p734
(dp735
g4
I45
sg5
I11
ssS'67d842c66eaa3c043566275aeacd225eadaf266c'
p736
(dp737
g4
I1
sg5
I1
ssS'6a35b89b319a2fe27b3ca8532c72142c0b25ae27'
p738
(dp739
g4
I15
sg5
I3
ssS'2f50f2dfb10f9c127f3f2d20d5c5a500fee89685'
p740
(dp741
g4
I1
sg5
I0
ssS'6cd480552017e6e44f0bc0c17687fc1c380fb9c7'
p742
(dp743
g4
I47
sg5
I19
ssS'7c796fefa0cebe42f343ca7e3e0397ff383635cb'
p744
(dp745
g4
I3
sg5
I0
ssS'fa094eb579641594b4263577cd151ad8f58e17a8'
p746
(dp747
g4
I2
sg5
I2
ssS'a66df7b892b680afade000eb9bb8fe860c5afec0'
p748
(dp749
g4
I22
sg5
I16
ssS'8c2933e5123ffdac7593b4ac5fe2cd1b88ceaffa'
p750
(dp751
g4
I19
sg5
I0
ssS'90e84e0326460bad39c10122c4fdf8b479fd3f39'
p752
(dp753
g4
I15
sg5
I5
ssS'37a602f1aae26355576ac055ab497763ecf3b899'
p754
(dp755
g4
I27
sg5
I0
ssS'876199b91e9325d0f6539a54dc7bae8ea8dfc348'
p756
(dp757
g4
I46
sg5
I36
ssS'76f2d8c4291def51d645a91243b84807be2e43b7'
p758
(dp759
g4
I0
sg5
I0
ssS'13bedade732e58731ec7c3b9632c902ed11c0a93'
p760
(dp761
g4
I1
sg5
I1
ssS'f6e6cff6571d10727148acd8abada8cbd1716cb2'
p762
(dp763
g4
I2
sg5
I2
ssS'ec7f491faf4e728f9d31753abf5ca05299b0725a'
p764
(dp765
g4
I8
sg5
I7
ssS'6fa9aa43bb4d7687dd62232602b40b823f26fcbf'
p766
(dp767
g4
I0
sg5
I0
ssS'052169e003267ed2b9324018a0fa72198490f747'
p768
(dp769
g4
I1
sg5
I1
ssS'3f68ca934407c53c5c46062619e9bb617396538b'
p770
(dp771
g4
I8
sg5
I2
ssS'0d429e358674098fcba27afd48cd6c925c54d6a0'
p772
(dp773
g4
I14
sg5
I2
ssS'0286380c3132b574b33a538cd0c74c043f3913cb'
p774
(dp775
g4
I2
sg5
I2
ssS'06a24026b9ea71df579577a95fae4516721a136a'
p776
(dp777
g4
I7
sg5
I1
ssS'ac48f8a6c0b48ab7a8f79b5271e6ed8e366b77f2'
p778
(dp779
g4
I7
sg5
I4
ssS'4ef5bf2099453ff4d32125f2d2246f4f424ef9d8'
p780
(dp781
g4
I8
sg5
I18
ssS'b35f8170d74d634ae0bdeac58d39a7f455be7dc6'
p782
(dp783
g4
I1
sg5
I0
ssS'1792b0ed5ab7149e97bb9fa25a9e566381a09227'
p784
(dp785
g4
I30
sg5
I43
ssS'230bf69325eef9c58a24db614c2a104638b6fbeb'
p786
(dp787
g4
I55
sg5
I36
ssS'2a27be854718f0aef9cbaab59355db4fb3fa49ff'
p788
(dp789
g4
I12
sg5
I11
ssS'239e3d7564437e2ab840aea820214b384cd1b431'
p790
(dp791
g4
I13
sg5
I18
ssS'0306f3b0a77b9d55f0e8273dc0bbea1d1cc0ece8'
p792
(dp793
g4
I1
sg5
I1
ssS'f0fe52f41df1f8961777da1d6e1d04897c6cc9ba'
p794
(dp795
g4
I1
sg5
I0
ssS'7793aad70402a8d465904b9dcb8f0579ac67e14c'
p796
(dp797
g4
I19
sg5
I4
ssS'55bcdbbfefbe7e6141351a449f7196653110b169'
p798
(dp799
g4
I40
sg5
I25
ssS'008a089709bbd1baa29d12752300bfc361844d24'
p800
(dp801
g4
I182
sg5
I159
ssS'dc0cc3fe184a03c3f4e1828635949f3663b64767'
p802
(dp803
g4
I2
sg5
I2
ssS'00ac0e72560f0776c9bc5c65976dcce986aac891'
p804
(dp805
g4
I0
sg5
I13
ssS'388e16ba6569d542a5460161695817554ef618a5'
p806
(dp807
g4
I12
sg5
I1
ssS'684f77f111b9709dc42ad58959b50b22e2da3e94'
p808
(dp809
g4
I0
sg5
I0
ssS'629c92db2dc1b016f4bf47645c95c42e65fd3bd6'
p810
(dp811
g4
I34
sg5
I1
ssS'ebeae1a3f504dafe12921180103729aaf1f22cca'
p812
(dp813
g4
I700
sg5
I136
ssS'a9d5c4dbb1d063755e57322836e05f51478c6c44'
p814
(dp815
g4
I2
sg5
I2
ssS'7a34b80f98be9a0a1c3dad9b75ab99ff24960700'
p816
(dp817
g4
I34
sg5
I3
ssS'79749b98c53fdfdcb9b93e64469ff4a69d3c402d'
p818
(dp819
g4
I32
sg5
I28
ssS'28942c03a3317a32ebd9710a059a80175eb51a94'
p820
(dp821
g4
I84
sg5
I55
ssS'cc413b49ce9dd63fcbe9396a5ac1c8c68872a6c1'
p822
(dp823
g4
I3
sg5
I3
ssS'59c9bb1169d3b200a8611e427b3a45e5b994ad78'
p824
(dp825
g4
I10
sg5
I3
ssS'823282e286dcdc7f72dd59edee58a806107a0133'
p826
(dp827
g4
I0
sg5
I0
ssS'0b5b94872b824eab9c40b0310fd45b3f5eacca0b'
p828
(dp829
g4
I56
sg5
I2
ssS'1e07b0ae7778f6cff88758d30b94e4bdcb419c19'
p830
(dp831
g4
I3
sg5
I2
ssS'd038ae380bfd3291aa2ceddc9f1eb365e2fb3942'
p832
(dp833
g4
I3
sg5
I5
ssS'2fdddfbd16d53679edbbd9918a2661c7a02bfbf6'
p834
(dp835
g4
I3
sg5
I1
ssS'aa7197a8d577c82d7c0c9c52dc2ada247594e94e'
p836
(dp837
g4
I66
sg5
I67
ssS'9392dd99ed42a9f22d575f3a0c5bc5925ab57359'
p838
(dp839
g4
I60
sg5
I62
ssS'd46f10b98b9f6c4932fc6414d5660fee60192cb1'
p840
(dp841
g4
I2
sg5
I2
ssS'af67d7c04dbd6c9a5876cc2c6df3729349d85521'
p842
(dp843
g4
I1
sg5
I1
ssS'e44eee868fab3b72f100da3aeae4338215a9b5a0'
p844
(dp845
g4
I11
sg5
I2
ssS'000e412f2c42206c94ad0653b7b29616cf13ce75'
p846
(dp847
g4
I42
sg5
I4
ssS'48148a5092291323909052f7ce2fdfa97272057c'
p848
(dp849
g4
I14
sg5
I0
ssS'5362f4a0eae9efa8b625ba0de078951c83e66769'
p850
(dp851
g4
I23
sg5
I2
ssS'77dc4b2f200bec5e5527a85e9cb0b30ba2fe6fad'
p852
(dp853
g4
I8
sg5
I8
ssS'797b4b3a8aea42156c22f941c08c23a74801e444'
p854
(dp855
g4
I29
sg5
I0
ssS'be87286f6b843e0191c9209c64ad1533fdd99d87'
p856
(dp857
g4
I1
sg5
I0
ssS'23600f0202f8789e6701cc5dfdbce85e34a867c6'
p858
(dp859
g4
I174
sg5
I50
ssS'08fa7730240d57815f2c1cfc403137abb7199ded'
p860
(dp861
g4
I18
sg5
I27
ssS'c4eca804ef7dd4e24a7c8f9d4c392f5566890ddc'
p862
(dp863
g4
I2
sg5
I1
ssS'7c9093cf3359c6bf65347f1f6c394042b2681ae5'
p864
(dp865
g4
I3
sg5
I3
ssS'e4108771b68d55e0524c3385940897f9faa9566d'
p866
(dp867
g4
I13
sg5
I1
ssS'6872c543f8c92e8d159700b1dd2bfa2e990119df'
p868
(dp869
g4
I56
sg5
I33
ssS'dd446083b1cf2d48f190071cbf80c258d973a0ae'
p870
(dp871
g4
I1
sg5
I2
ssS'38b736ca9da3fc6a7580fa79209b841794c84891'
p872
(dp873
g4
I0
sg5
I0
ssS'd8b19eae5e855b5453f399858aadeb7cf218ee70'
p874
(dp875
g4
I104
sg5
I24
ssS'8234a4daab0c5dc4a242534ffbac6fa08be7759a'
p876
(dp877
g4
I31
sg5
I0
ssS'3166a8c065484ab9a975057504c8582a2619ce38'
p878
(dp879
g4
I43
sg5
I17
ssS'e8f09a5df05840b9219e199980ef825df5be88dc'
p880
(dp881
g4
I8
sg5
I13
ssS'fb5a4f054734199971e276f382a8044e402a3b8a'
p882
(dp883
g4
I1
sg5
I1
ssS'be203e51af7bbfd3e0f0b6d03004bfaf001c60ff'
p884
(dp885
g4
I136
sg5
I1
ssS'baf53b84cdaf74ed279ab5af38087ebb0faa161d'
p886
(dp887
g4
I44
sg5
I5
ssS'c4d9727f52c7d7da453357d10c54fcbc09efac2a'
p888
(dp889
g4
I1
sg5
I1
ssS'46cf84884626d8e960d53ea74f2e3aac2f603122'
p890
(dp891
g4
I1
sg5
I0
ssS'894ed365747d93043ef9656d07602bdb1774636a'
p892
(dp893
g4
I1654
sg5
I1654
ssS'6b88b988b2099be4bd5460cba9d8d884c6c0d8a4'
p894
(dp895
g4
I7
sg5
I6
ssS'73a8c27a77967c2e23c423c87d3a9857b5ba8712'
p896
(dp897
g4
I29
sg5
I0
ssS'2fd12166a520c226932ab986c93293c9aa778446'
p898
(dp899
g4
I2
sg5
I1
ssS'd80ed85b8cf0026956716a211fa814c7c377194a'
p900
(dp901
g4
I114
sg5
I135
ssS'c6ee7b0b877bd57d92db5864f31478d14909be17'
p902
(dp903
g4
I3
sg5
I0
ssS'3db03d809b40839fc146996f5e7b7f0f024cf38f'
p904
(dp905
g4
I21
sg5
I25
ssS'374ad7c58fa14da8733a0690c7421a5fc8d21743'
p906
(dp907
g4
I20
sg5
I13
ssS'b1824e8f74232fac14e2600c28d53a320a94510e'
p908
(dp909
g4
I1
sg5
I1
ssS'e6f3467a4f637b37d247595e6cff8c2705161938'
p910
(dp911
g4
I9
sg5
I4
ssS'2195d72ae7a41d740d26c652e46bc7f1f70a245f'
p912
(dp913
g4
I0
sg5
I0
ssS'9fa708f4a0dedbe25474aaba4a4527727a052899'
p914
(dp915
g4
I1
sg5
I0
ssS'bad2f580838da523eb051cbf0a1f9dddef204f8c'
p916
(dp917
g4
I3
sg5
I6
ssS'ca7bab101095052c9b444094b71315efd9cbde74'
p918
(dp919
g4
I10
sg5
I14
ssS'9b9aaa61d29ec7e00dda2187cdc144c821aba1be'
p920
(dp921
g4
I2
sg5
I0
ssS'35190c5044c3c1a6ef963bff98fb910413c40aaa'
p922
(dp923
g4
I115
sg5
I1
ssS'4edda49f36aefc1e83110a0e860bd098e694d069'
p924
(dp925
g4
I55
sg5
I17
ssS'a7001144986e4ea2b13a3e6cae24d6edb245fa46'
p926
(dp927
g4
I1
sg5
I1
ssS'8b2e72a80b2a3acb245bf52901bfc9b0b6817e05'
p928
(dp929
g4
I1
sg5
I1
ssS'3c1ba7ebc6a8bf13ae0be85fe4964ef51c48822a'
p930
(dp931
g4
I37
sg5
I49
ssS'0e0a115601ebbbaace352003299573450a4f1b31'
p932
(dp933
g4
I6
sg5
I48
ssS'15e7aad2d0ca47b8d8c3b56d6fef327d3b295e5c'
p934
(dp935
g4
I10
sg5
I10
ssS'af2540143d176a675fef5c70a12d94d59eaa01d5'
p936
(dp937
g4
I3
sg5
I1
ssS'8808db24b0f21c2fb2665391b4569b0a24ff8239'
p938
(dp939
g4
I1
sg5
I1
ssS'c39599ad4f32608cb03e680516678a8fd1ba4dee'
p940
(dp941
g4
I0
sg5
I0
ssS'151b0423f72506f17237885dd159c8a5e4933bca'
p942
(dp943
g4
I51
sg5
I24
ssS'969217ee6a0b458941e9477cd69ef32a4b4c54a4'
p944
(dp945
g4
I226
sg5
I123
ssS'6fb153c252351865f1f7c43ba43d900f1bf83e31'
p946
(dp947
g4
I0
sg5
I0
ssS'9eea91fd9f72b929d1cecec1d68a0986c52be2bf'
p948
(dp949
g4
I2
sg5
I1
ssS'1e9760e7191162d4da7278f851b6d1b385e7d76d'
p950
(dp951
g4
I3
sg5
I1
ssS'28e1fa07e0511234f18c34193cea6a6444e30659'
p952
(dp953
g4
I0
sg5
I0
ssS'a6b54bd404bc347d490adbab44a2d55297b9eb5a'
p954
(dp955
g4
I5
sg5
I7
ssS'085c77f52b34214ca0fea03223d584c3406a1cc0'
p956
(dp957
g4
I64
sg5
I2
ssS'f45bf8704d38db4bdc36135d1f5aa9d518943b79'
p958
(dp959
g4
I3
sg5
I3
ssS'6c2d06e155a7e1279bb52abc264b2adb853d2467'
p960
(dp961
g4
I0
sg5
I0
ssS'93234d5c28024cc72a0c22d80c3d6b65f3d84686'
p962
(dp963
g4
I2
sg5
I12
ssS'7321086423df00fef9bb3aa07d073e9e899d7bc4'
p964
(dp965
g4
I13
sg5
I1
ssS'348913d7abad079a3d874346335e6f974947bfd9'
p966
(dp967
g4
I28
sg5
I5
ssS'5a547d1834f38e4ed812f1553992893e09907e07'
p968
(dp969
g4
I15
sg5
I7
ssS'96cf206df5ba34e223fac3cc8827ba723de31e25'
p970
(dp971
g4
I1
sg5
I7
ssS'57551b823a3f1b68085d02f6f6321dbe84e1d074'
p972
(dp973
g4
I90
sg5
I78
ssS'b397d6478c7c07d430c0a0b1bcf4d9f19faced4c'
p974
(dp975
g4
I8
sg5
I2
ssS'649c0029bc3f93a420c48f4a8f6b8f8fd54dc940'
p976
(dp977
g4
I17
sg5
I0
ssS'109ad6e2e54d3013d4c76bb90ee92343c573307a'
p978
(dp979
g4
I5
sg5
I2
ssS'34932302029c79769f5eae06020c21af596a9c9a'
p980
(dp981
g4
I1
sg5
I1
ssS'12a6f507f0490ac5b69a2adbdf8ba1119d523ae3'
p982
(dp983
g4
I3
sg5
I2
ssS'7ccf76f90eee10479c66f205ff10daf1d48ae89d'
p984
(dp985
g4
I0
sg5
I0
ssS'a0196df266af67bf2081f13ef232b74af1ed057f'
p986
(dp987
g4
I3
sg5
I1
ssS'69505ff56a25030490d4ada0a5d2b09f6ae8e397'
p988
(dp989
g4
I7
sg5
I7
ssS'1d859256a5f90f4885565fab32ea86cb12fa2788'
p990
(dp991
g4
I1
sg5
I3
ssS'9590aa1499ce323a7b7f450c482aa6dd925c06e8'
p992
(dp993
g4
I3
sg5
I0
ssS'3a0be8bf3d32cdd8840195dacaa2d6bf0ad30602'
p994
(dp995
g4
I25
sg5
I5
ssS'd3832ba8d39e507dba816468cfd1bab516f1f0d6'
p996
(dp997
g4
I2
sg5
I1
ssS'c0fc3b67318709d4bda5cbabfa22552d5603acb0'
p998
(dp999
g4
I2
sg5
I2
ssS'12b673267dce7c899ca384792386ed9b657fe66a'
p1000
(dp1001
g4
I65
sg5
I8
ssS'9d801078cee419d0d5677517b8729db94b067e02'
p1002
(dp1003
g4
I104
sg5
I43
ssS'91e406c99fb9b04138196fe528ea48991a287a30'
p1004
(dp1005
g4
I13
sg5
I2
ssS'75c593a39d0a249ff64aad564857688b2bc5c4cc'
p1006
(dp1007
g4
I5
sg5
I0
ssS'197072f7ec489c70fe0c7952281e74a0fc92cfff'
p1008
(dp1009
g4
I10
sg5
I12
ssS'ea1d60a4b9adea7949d99c660b22128eb87d0455'
p1010
(dp1011
g4
I3
sg5
I3
ssS'133b75d9ddd81c985035b1f69d119dc0055af221'
p1012
(dp1013
g4
I85
sg5
I7
ssS'e260d5ce84c3dea5c0e94e9e3139b0b768d44e22'
p1014
(dp1015
g4
I4
sg5
I2
ssS'1b181e534723555e5f0e1e158800643d4cb4d510'
p1016
(dp1017
g4
I10
sg5
I2
ssS'579ed4c0707cda2d601c178cceb74463c328c94c'
p1018
(dp1019
g4
I153
sg5
I2
ssS'65fbca6afa77d91135b86a459a1dc1f521ab1c00'
p1020
(dp1021
g4
I46
sg5
I54
ssS'24c39e3880d6a1a11d3fb0a1416d6aa038997a2d'
p1022
(dp1023
g4
I7
sg5
I3
ssS'73236d990af6fae975180248a9290ae2c29752ca'
p1024
(dp1025
g4
I57
sg5
I57
ssS'b4533c8894410ad0ba088b15017e89d3b32b2708'
p1026
(dp1027
g4
I12
sg5
I5
ssS'2567e65146031c9dbf4b719e177f4dba082e7b0a'
p1028
(dp1029
g4
I3
sg5
I7
ssS'f4c12356db571e08d87d8b4f7fc9f6d45e60a52f'
p1030
(dp1031
g4
I5
sg5
I0
ssS'30999b0f111aa5c8bb774509b3f957779a2f1706'
p1032
(dp1033
g4
I9
sg5
I21
ssS'930357399593b05a4db464cd2a6688dfb4618cdb'
p1034
(dp1035
g4
I22
sg5
I26
ssS'bec4ee12322d3f10df273e0764290e41cc6c701b'
p1036
(dp1037
g4
I344
sg5
I296
ssS'1ab963c638f896daf2a567be61aab4a7725c267f'
p1038
(dp1039
g4
I0
sg5
I4
ssS'da3e670ceec0eadd36101603f98e9bbc308be175'
p1040
(dp1041
g4
I143
sg5
I29
ssS'af1844b63b5988db00a48df5a690e03c23d7f3a0'
p1042
(dp1043
g4
I3
sg5
I2
ssS'6919a6048575205ab44b5eb07df3fca5be3d9594'
p1044
(dp1045
g4
I1
sg5
I2
ssS'c49355e99ae5b1e335f409c22aacbc786dae4c12'
p1046
(dp1047
g4
I407
sg5
I408
ssS'7ca5104c2e169ddb27af3035bd7cab01ef422be2'
p1048
(dp1049
g4
I0
sg5
I1
ssS'7cfa6cebf8c6bab2bcdca3347e85b12223be5129'
p1050
(dp1051
g4
I1
sg5
I0
ssS'6b9c1549bf60fe07cebba109c73b616093119a23'
p1052
(dp1053
g4
I18
sg5
I5
ssS'3c6e7442db768fdc2c6d3fe24f8d7fa6b17c16e6'
p1054
(dp1055
g4
I14
sg5
I12
ssS'4cba50d84e8585838c394bc367a770cb2fd5e776'
p1056
(dp1057
g4
I87
sg5
I32
ssS'ecc3650f51bc8f52f1bfc10c09d00246f3c2af27'
p1058
(dp1059
g4
I12
sg5
I12
ssS'235f4b8931432884a6d10d365e52581e7223de55'
p1060
(dp1061
g4
I9
sg5
I2
ssS'9d37ccf28ddc6382ea47bd3246e867fe9d779569'
p1062
(dp1063
g4
I5
sg5
I0
ssS'00cb0de42b9f99571368294cb796844e9ce52b30'
p1064
(dp1065
g4
I30
sg5
I5
ssS'6ca4d496aeb0c5c0f9d2d0f700a2d08091d8243a'
p1066
(dp1067
g4
I11
sg5
I10
ssS'585184106fb4534b775636a4e0a8cfa0f6c6debf'
p1068
(dp1069
g4
I11
sg5
I8
ssS'06a982c039f57c2a317094f9a289b3e5b2033551'
p1070
(dp1071
g4
I121
sg5
I2
ssS'68bfe86607f50209c3e9482143ba6c9f091dd38f'
p1072
(dp1073
g4
I34
sg5
I3
ssS'cc1226bbaf27c10870456c8366cee0ed543adf0c'
p1074
(dp1075
g4
I1
sg5
I1
ssS'8114c286d1b37127fab36a63b7186f699a24317c'
p1076
(dp1077
g4
I45
sg5
I45
ssS'4693a2b1c7d948e2036ce8d324d5f08fd7a16efe'
p1078
(dp1079
g4
I25
sg5
I26
ssS'8173c67cb9dbbf501113c6dd983cdec69fcdf5a1'
p1080
(dp1081
g4
I2
sg5
I1
ssS'313c0c34100118be87164214bd22b226a748166d'
p1082
(dp1083
g4
I5
sg5
I5
ssS'd4d1842ed2c3b51de80869ad0b423f11b1937987'
p1084
(dp1085
g4
I0
sg5
I0
ssS'3ca0c7580187913bec11d0042a36906a2af36c91'
p1086
(dp1087
g4
I234
sg5
I216
ssS'9fabb962dc83db4fbd442e3953d6a654db7be617'
p1088
(dp1089
g4
I2
sg5
I0
ssS'cf8192372e8437c51a503e841ea25f4709e2b28d'
p1090
(dp1091
g4
I0
sg5
I0
ssS'8a036c0da97233c5b219abf58931d63a1975a735'
p1092
(dp1093
g4
I11
sg5
I18
ssS'3a090e2819c85abacae5dd244733408cb110e427'
p1094
(dp1095
g4
I0
sg5
I0
ssS'd9e856764f312489964f27f5ddb81e8ce60ec0d0'
p1096
(dp1097
g4
I8
sg5
I0
ssS'bf0aa82021d4cb4f7e029e3f6b923f4ec5c77091'
p1098
(dp1099
g4
I9
sg5
I0
ssS'c61b992458e1b1b3d955abf11ac3b75c98a11503'
p1100
(dp1101
g4
I18
sg5
I7
ssS'107d160bb9ed494acc316bf64c4d996581bf6550'
p1102
(dp1103
g4
I1
sg5
I0
ssS'419d28b175e39a4cee7f0533e4577837bce054b5'
p1104
(dp1105
g4
I28
sg5
I0
ssS'586de3f84f1d0d3812399c013806c41c508af0ff'
p1106
(dp1107
g4
I0
sg5
I0
ssS'282a9dc47d5dcf84396a631d04c64f0d1137532d'
p1108
(dp1109
g4
I6
sg5
I6
ssS'a94c56dfcba2ed26a8b89d48d311e2e4ac6dbc9f'
p1110
(dp1111
g4
I1
sg5
I0
ssS'14b9c6b2353f7110fcea264a52bd9556b71458c8'
p1112
(dp1113
g4
I13
sg5
I3
ssS'dade2eac4a3b4b984529e85e1e1d2459c453574e'
p1114
(dp1115
g4
I10
sg5
I3
ssS'6cfb2a6127b066d8f4c5e473b6aca4674fe4ca78'
p1116
(dp1117
g4
I4
sg5
I2
ssS'a2c0b368ae7f92184a4dd9d9f2129303a2bb8c9c'
p1118
(dp1119
g4
I14
sg5
I4
ssS'52fea6d97bab8dd19e9ee7f43a962fc145e5fa45'
p1120
(dp1121
g4
I32
sg5
I23
ssS'b16daa61253ef62ba4dbbda9add41f24de15892f'
p1122
(dp1123
g4
I17
sg5
I15
ssS'c133ef534539f72370071ba3a1e176fa4074a9ba'
p1124
(dp1125
g4
I97
sg5
I102
ssS'a7a4576527555bd1d2361bc98f3079f9b9e1ab96'
p1126
(dp1127
g4
I0
sg5
I0
ssS'3c3c34d9706ff5f9cea065b5544f18a36bb8216c'
p1128
(dp1129
g4
I1
sg5
I0
ssS'7e1ef3cd75236575914749364a0f1131ce8fe626'
p1130
(dp1131
g4
I27
sg5
I6
ssS'6ebce1e279c18c2473e6a2520e14ccad8125c148'
p1132
(dp1133
g4
I6
sg5
I2
ssS'12b1aefc6045eb3d2b1e4beb35befd8a4b1dbf63'
p1134
(dp1135
g4
I2
sg5
I1
ssS'dd83fce7f35244d66dd41a9abb813f3726964b37'
p1136
(dp1137
g4
I20
sg5
I1
ssS'c4e3f003d6d778ae5c644e01053a8b4f8924ee26'
p1138
(dp1139
g4
I30
sg5
I2
ssS'1978860578c2c111f1cfa3345803c754c6aa93fd'
p1140
(dp1141
g4
I0
sg5
I8
ssS'ac0b3227de3a6651ba3cb437e85c7f767e79b6fc'
p1142
(dp1143
g4
I18
sg5
I822
ssS'348e81ec68794534449ae86d553e8e5854985ce8'
p1144
(dp1145
g4
I19
sg5
I0
ssS'e067d1526985ded7f64b12e0c4c277f700d0ca43'
p1146
(dp1147
g4
I187
sg5
I34
ssS'e79851b19ff00bb94f141f6037128ae186e49213'
p1148
(dp1149
g4
I32
sg5
I1
ssS'd86cbd38b9e614948796c4121f1c43cb44bdb0a8'
p1150
(dp1151
g4
I4
sg5
I0
ssS'96c555c5113a53b60888bdd50a095a0fab776891'
p1152
(dp1153
g4
I14
sg5
I13
ssS'8020c4a1c8133ed5f1124fb172c82edd45f9211c'
p1154
(dp1155
g4
I2
sg5
I5
ssS'555d700fd9807d21405d00fd747c11787b796134'
p1156
(dp1157
g4
I4
sg5
I5
ssS'77db55de389dae3bceb71d30f5c924ed9c87563a'
p1158
(dp1159
g4
I89
sg5
I128
ssS'9db5a4f5ca51b782645e70286214b0d920c89ec1'
p1160
(dp1161
g4
I11
sg5
I12
ssS'c6c6735deec641ce5f4140d7928d9a02bed93b67'
p1162
(dp1163
g4
I2
sg5
I4
ssS'accff12b2d28a3f87d2dc4f5373fb8e1e5de3408'
p1164
(dp1165
g4
I1
sg5
I1
ssS'b4afda77eee9a64ba14646b3cb94969f248f06cc'
p1166
(dp1167
g4
I340
sg5
I2
ssS'33148592a34a5b607ac750ce10c5c80965e67f9b'
p1168
(dp1169
g4
I2
sg5
I0
ssS'4b2350991aecb361fff1701016dcf1711a16d077'
p1170
(dp1171
g4
I1
sg5
I0
ssS'1b6a9dd4fb30e429a75dfe4c7d0c9b8ac7904176'
p1172
(dp1173
g4
I35
sg5
I30
ssS'3079d34e842e41494d4664faf36ed40e3bb06c3f'
p1174
(dp1175
g4
I111
sg5
I98
ssS'8f96ff66b480c31c46d7c66cb12656293010dd76'
p1176
(dp1177
g4
I9
sg5
I13
ssS'a8ae7b8240ec5884cf70945370e4fd9bcbfb9c4e'
p1178
(dp1179
g4
I83
sg5
I25
ssS'a842a7d325a1e89b917874a1c01fbcb317101416'
p1180
(dp1181
g4
I1
sg5
I0
ssS'f06b62a3e1bad9b0455dac83648677059227390c'
p1182
(dp1183
g4
I7
sg5
I0
ssS'67bc089414d086aad5420bb69e05f67c84008f27'
p1184
(dp1185
g4
I12
sg5
I3
ssS'bd7c6b2ab9dd449924315b76b64498c62dee8c12'
p1186
(dp1187
g4
I2
sg5
I0
ssS'0b5063392d0328be5f132ed290b40990b9d72277'
p1188
(dp1189
g4
I12
sg5
I4
ssS'8fabcdf098ab888853890183aa4ca4ebe7d470a2'
p1190
(dp1191
g4
I61
sg5
I0
ssS'48a1f7647f341e0daa4e1f06cb9f31642bcaf4ce'
p1192
(dp1193
g4
I0
sg5
I0
ssS'dffd6500618a6bbfa7293d898bdc959c6fc951a8'
p1194
(dp1195
g4
I6
sg5
I3
ssS'd88b456a180996bf5588cb382118cddd747ae04f'
p1196
(dp1197
g4
I235
sg5
I4
ssS'b500a57211345fd14d2d39c72cd0a453f581b12a'
p1198
(dp1199
g4
I2
sg5
I0
ssS'1af465dcb3bec6c57e6aa6c769179e9b44d5904e'
p1200
(dp1201
g4
I10
sg5
I8
ssS'f6551be5c016a08757fd8b555f2531a0d718ce56'
p1202
(dp1203
g4
I1
sg5
I1
ssS'613d9fbe17c7a904f78cee03c486c7a54aa2af4d'
p1204
(dp1205
g4
I1
sg5
I0
ssS'f816bceffc7c43c049773223f94b776961fd3e78'
p1206
(dp1207
g4
I47
sg5
I19
ssS'3547b480a53afc98f38ab3753a0d4d6f113d7af4'
p1208
(dp1209
g4
I19
sg5
I5
ssS'3e655419214da71bff254943bd0c2accd44ffa29'
p1210
(dp1211
g4
I0
sg5
I19
ssS'31e260549b7b848f90d571f8038005345d7fd883'
p1212
(dp1213
g4
I1
sg5
I1
ssS'637af26cfea7d38b33c0893c7ae3e8a72d50b926'
p1214
(dp1215
g4
I3
sg5
I0
ssS'84b3e4d3f8d57e88080aca6fd8e114f793dfc88a'
p1216
(dp1217
g4
I25
sg5
I10
ssS'7eb703d2e2bec5ffb2e679c61ca0ea26d1413e27'
p1218
(dp1219
g4
I60
sg5
I2
ssS'2721b8efd9e2a22824ffb71916038a97b03b1826'
p1220
(dp1221
g4
I1
sg5
I1
ssS'd7d4dfa9312c4ce32f91227f77976b54fa32b286'
p1222
(dp1223
g4
I0
sg5
I0
ssS'9684d0fb05c4721876c2b7274b6af3f3122ff62d'
p1224
(dp1225
g4
I2
sg5
I2
ssS'42e5d903325c249e810895d24e26830d36e5b4bc'
p1226
(dp1227
g4
I21
sg5
I3
ssS'e527f03fc7da11be928420b15baffc37c64107ff'
p1228
(dp1229
g4
I4
sg5
I1
ssS'bc5c89cff3f5b5d65b5b8916cc7254661d68e63c'
p1230
(dp1231
g4
I20
sg5
I0
ssS'058a287405390f9c7562c9eb2b3a7c8fc589e7a1'
p1232
(dp1233
g4
I14
sg5
I2
ssS'57b2bc697cffb64a4d5a1de4b8674b59c8d93932'
p1234
(dp1235
g4
I15
sg5
I1
ssS'108363a220a5bc27b96bab4811e130fdcc48fa0d'
p1236
(dp1237
g4
I12
sg5
I3
ssS'97861c5583e27959c015bf790480bbc39b31e38b'
p1238
(dp1239
g4
I3
sg5
I3
ssS'c8a6fbc58a5f0b7f9db5eb0290f099ea1d4a38c6'
p1240
(dp1241
g4
I65
sg5
I27
ssS'386fe2baabfc1ef2848211c3140521fa314d8748'
p1242
(dp1243
g4
I29
sg5
I9
ssS'9aaaabb740e060a08c1b8c57bfd0b61e5f554b53'
p1244
(dp1245
g4
I1
sg5
I2
ssS'b8c48252e042659e009cb95b87c2db9bb225d4fb'
p1246
(dp1247
g4
I10
sg5
I8
ssS'8cc24b856d88dfe252ee184fb18349c041ef92b4'
p1248
(dp1249
g4
I23
sg5
I14
ssS'72a317bf9aaf05643160061b65510844ecd94792'
p1250
(dp1251
g4
I1
sg5
I0
ssS'731b36cb421d1f19e3ea925fe3fc4e5dd23dd650'
p1252
(dp1253
g4
I6
sg5
I1
ssS'db6d60c2ef3ded8177ad0caf6d5ee6d019c487ed'
p1254
(dp1255
g4
I5
sg5
I6
ssS'cce4c0da2ee3697355bd19394d78e2f18962bacb'
p1256
(dp1257
g4
I5
sg5
I4
ssS'5e2265e596f9e8b0b0f29c0dc3f890c2110b55dd'
p1258
(dp1259
g4
I3
sg5
I3
ssS'335ca57beeee0bb529b5631c618c3261118a8cb8'
p1260
(dp1261
g4
I3
sg5
I0
ssS'f812eb209d6bbed6eb00e02fa7cafb8662d82846'
p1262
(dp1263
g4
I1
sg5
I0
ssS'9e50d226674b0d8db0c29dfe54bde4a1c72a11e4'
p1264
(dp1265
g4
I10
sg5
I2
ssS'48e10cda3706bf563b9a95799119624bb3f29905'
p1266
(dp1267
g4
I3
sg5
I0
ssS'93fed93a76f9707a4bcba8c75e87ce064f8757d5'
p1268
(dp1269
g4
I17
sg5
I20
ssS'7ecc586165ebde2b06b52303c76e75cd604793d8'
p1270
(dp1271
g4
I12
sg5
I14
ssS'9f84453ce29952433660704a2ecc5ac8ed53c10e'
p1272
(dp1273
g4
I15
sg5
I0
ssS'b728e5253a604a8882647bf50d6bd355db1e6133'
p1274
(dp1275
g4
I12
sg5
I18
ssS'06529ca9536bbafd5655a539cee6e3cf1d0be5f9'
p1276
(dp1277
g4
I110
sg5
I7
ssS'cfff59908a08390ea37dc52e32ce218837a9e792'
p1278
(dp1279
g4
I3
sg5
I5
ssS'7ec07a045399be5937465b65a81239b6ef3f8036'
p1280
(dp1281
g4
I187
sg5
I162
ssS'e789042eb61acf8bb4f0fa90ebfa124d5d19438d'
p1282
(dp1283
g4
I67
sg5
I17
ssS'58e5e9774ba6a5cb378f2e30eb026489d66922fd'
p1284
(dp1285
g4
I75
sg5
I77
ssS'861ca4dcbd63577d4f8ef9d7315c7b7b950720d9'
p1286
(dp1287
g4
I75
sg5
I75
ssS'ef3069aa150720756de720f65151cab8ed665ea3'
p1288
(dp1289
g4
I35
sg5
I9
ssS'c20559c00297b6069eae99f2cd526d1103be11f1'
p1290
(dp1291
g4
I2
sg5
I1
ssS'8b1806802047b59bc316578689d5d7421b930e10'
p1292
(dp1293
g4
I126
sg5
I0
ssS'845169b878543fae3d3eeb0a548f013000879457'
p1294
(dp1295
g4
I1
sg5
I1
ssS'6d59ad07d722d01e458aaf8fd14fd7dfc7ebaa6e'
p1296
(dp1297
g4
I15
sg5
I7
ssS'16ceee118f3543258a05c38afba74787d235c375'
p1298
(dp1299
g4
I1
sg5
I1
ssS'f5e58be597e4866b0ef34cf874693240124b0693'
p1300
(dp1301
g4
I2616
sg5
I2523
ssS'ede7af4322221c74c476a4f384cf038ae1d68a86'
p1302
(dp1303
g4
I1
sg5
I1
ssS'19b5af02304e3339fdd2a26cfafc337960eeebce'
p1304
(dp1305
g4
I32
sg5
I0
ssS'85d7fa8fc8db68231e46315d7ed4297c18553f63'
p1306
(dp1307
g4
I3
sg5
I3
ssS'8d4c25123bbd86be875f7e9e481057f9727bcab8'
p1308
(dp1309
g4
I4
sg5
I459
ssS'389d30a5218ce3b060c9bba26e916293c4b9260f'
p1310
(dp1311
g4
I2
sg5
I2
ssS'99fa655de39e6925b84f67db6ac28b0dd577ef51'
p1312
(dp1313
g4
I1
sg5
I1
ssS'b0d91f85ff4555b0cddfee5300d1e1e56ee030a3'
p1314
(dp1315
g4
I12
sg5
I21
ssS'9a5308d5df28bf6aa33fc3f9b27a04027d26f848'
p1316
(dp1317
g4
I13
sg5
I1
ssS'24a5cb1af5143bd704e023ff4937d705687596de'
p1318
(dp1319
g4
I8
sg5
I4
ssS'199febc60a2f993705c65c5101bab3de6b4db0c2'
p1320
(dp1321
g4
I6
sg5
I0
ssS'12cfa3c7d6826e71ea4b35d90ad516d6bf247a29'
p1322
(dp1323
g4
I20
sg5
I0
ssS'44eaad2759fd111c0f755822d5292b3b785cf70e'
p1324
(dp1325
g4
I14
sg5
I45
ssS'90e9e305e214a3e3b147b9932cd0738097cd13d0'
p1326
(dp1327
g4
I1
sg5
I0
ssS'539f8f38ca28f870986c4ce96fe02e0f27f23212'
p1328
(dp1329
g4
I1
sg5
I1
ssS'df7e6961f4887e58d9eb957a556868f095db9017'
p1330
(dp1331
g4
I739
sg5
I488
ssS'46dc6e17ae8f8e98e4ca1611e54ffe5991ef6bab'
p1332
(dp1333
g4
I3
sg5
I2
ssS'496e40ed0f16e9f90937dc49c82aa1f37652c1ba'
p1334
(dp1335
g4
I1
sg5
I2
ssS'6e2a3867f23927968af5f873ebb8c92e2b56dfc8'
p1336
(dp1337
g4
I2
sg5
I0
ssS'b9a873d8b7a8535cf5856cbe343c91972de7f32e'
p1338
(dp1339
g4
I367
sg5
I234
ssS'b82db73ca429ee5d4ce030ab44bbd9a01204c7f2'
p1340
(dp1341
g4
I14
sg5
I0
ssS'f498037505dfc0d9ebc37a852b2fe38c5935e2c8'
p1342
(dp1343
g4
I55
sg5
I32
ssS'87fb80e1691d47f8e1a4e68f9a09c5b6b53129eb'
p1344
(dp1345
g4
I15
sg5
I5
ssS'93f3cfaaf0e270ecf5f666ab517b22776bf2ed89'
p1346
(dp1347
g4
I3
sg5
I3
ssS'5641f4c2a6ae5a5915cfe73a04625cad9740f799'
p1348
(dp1349
g4
I17
sg5
I2
ssS'abab1061c29b5f1d803128392bf61768eabaf304'
p1350
(dp1351
g4
I2
sg5
I2
ssS'94404c7fa70ee5f6878e33aa6070f41a3c3fd78f'
p1352
(dp1353
g4
I113
sg5
I53
ssS'3069f0e429a159691a77e9cf9196a17b558b31ec'
p1354
(dp1355
g4
I0
sg5
I6
ssS'bfe9e5c53cfb75c3b45ebb5cb8e8902464782c7d'
p1356
(dp1357
g4
I1
sg5
I1
ssS'034d057bdfd2064fbcce402e84da38f31c564976'
p1358
(dp1359
g4
I3
sg5
I1
ssS'92665fe273b9e5899fa28ef7f67d4794db42478f'
p1360
(dp1361
g4
I4
sg5
I1
ssS'8715ea4491e435969d943918fb7a7bca9d95be28'
p1362
(dp1363
g4
I14
sg5
I8
ssS'19abe20cac050e5dc059fbd8cfec2277a01d0c13'
p1364
(dp1365
g4
I47
sg5
I1
ssS'0be98653e8f7ae63c4961b640f7f3c77ae484ca5'
p1366
(dp1367
g4
I60
sg5
I75
ssS'dbeaad5988d27f5fd56a278e70a8c7995c87ff7c'
p1368
(dp1369
g4
I37
sg5
I35
ssS'd5cbe0db9a95798d61eb12d501fc39b8a95afa90'
p1370
(dp1371
g4
I2
sg5
I2
ssS'957d645de048283c1d630870cc2182abfd1791b9'
p1372
(dp1373
g4
I30
sg5
I18
ssS'ade7eb066b9c3c91ea30cf972baf644b1e438f62'
p1374
(dp1375
g4
I19
sg5
I3
ssS'5ec1e2323c6b401491669ad2bfc11c94e871efc0'
p1376
(dp1377
g4
I0
sg5
I0
ssS'864dbee1daf038fdd4fb0264ce134fe418a5d34b'
p1378
(dp1379
g4
I95
sg5
I9
ssS'c4803255fd3ad08dd98e6b6b884b5b1b72c06742'
p1380
(dp1381
g4
I1
sg5
I0
ssS'1bb9a3e9fb187aab73656255c612890986aab5a4'
p1382
(dp1383
g4
I3
sg5
I3
ssS'a1f393ad078ffb050816524a0b20a17cf0d3d838'
p1384
(dp1385
g4
I6
sg5
I1
ssS'f7353be144f43dd904b6c864d8f17d23b4d81d59'
p1386
(dp1387
g4
I16
sg5
I12
ssS'27399461aa3640831f1f6aaf853ffb876fd922b2'
p1388
(dp1389
g4
I52
sg5
I21
ssS'4986a15c87d1cb2c62dd019795d7a13fef319ed3'
p1390
(dp1391
g4
I13
sg5
I1
ssS'3d342e85e127fd0f9300fbfd13666747dd9221bd'
p1392
(dp1393
g4
I143
sg5
I147
ssS'a76420b24e0d5640ea8ff6749d314f03af398ea6'
p1394
(dp1395
g4
I2
sg5
I2
ssS'63a6aeecec9064c3b5272b67515183afc6eb9180'
p1396
(dp1397
g4
I12
sg5
I3
ssS'd5d026484304cb56008821bec4afce86dc857bda'
p1398
(dp1399
g4
I4
sg5
I4
ssS'dea53aa9e7c6cb4b210112ae34b28876844a2600'
p1400
(dp1401
g4
I0
sg5
I0
ssS'56d666917b5950b3b11308aad6567f2aaa84863d'
p1402
(dp1403
g4
I12
sg5
I4
ssS'6308983a2f1697e88e1034f70d0292ffdb175869'
p1404
(dp1405
g4
I3
sg5
I3
ssS'9fd2500755d3d3fd08e7957992cfba8d1ef9846f'
p1406
(dp1407
g4
I34
sg5
I34
ssS'8d751495a31b40d6fb0ccffb3b1349c5fceca9ec'
p1408
(dp1409
g4
I71
sg5
I48
ssS'bf6bb6fb4a01dd38d477f8ee980023ff2db42cb9'
p1410
(dp1411
g4
I16
sg5
I4
ssS'e55d230cfc4f46eabf76f17691aebce799af2e42'
p1412
(dp1413
g4
I23
sg5
I2
ssS'0dfe396a27afb8771be045c9044e660046140392'
p1414
(dp1415
g4
I163
sg5
I12
ssS'ca9ddcc2222d64f9ed204248fcd22841b59c11d6'
p1416
(dp1417
g4
I19
sg5
I0
ssS'518ddb62ba15b41da022f3827df1c8f39308a34f'
p1418
(dp1419
g4
I2
sg5
I2
ssS'82b09e0bb6768d44d0e78a7d6c8e48ff686db1d7'
p1420
(dp1421
g4
I17
sg5
I1
ssS'a079c3d4abecee064c3ab4c44f086b618f06fa8c'
p1422
(dp1423
g4
I4
sg5
I6
ssS'5d6c158ab8b2d2701bf22add64c2bf41b19f9a34'
p1424
(dp1425
g4
I15
sg5
I1
ssS'3102291e5af0fca17c2d77a919a9d73155560c31'
p1426
(dp1427
g4
I0
sg5
I0
ssS'cc608e6488dbddd3274b406bde4a3a75f79553dd'
p1428
(dp1429
g4
I9
sg5
I5
ssS'34f9964e4bc3a209b1e137e6ae3dd7157fb7cdab'
p1430
(dp1431
g4
I27
sg5
I6
ssS'1c34df98f97aff525d3b9b459118e9914edb5ca9'
p1432
(dp1433
g4
I7
sg5
I6
ssS'5138e48a7a0646525cb20f407b38c3b88c649948'
p1434
(dp1435
g4
I13
sg5
I0
ssS'0b12d062de92c576c3b761ff38168a36021aa76f'
p1436
(dp1437
g4
I2
sg5
I1
ssS'c00294924cb087bc5de7b0cd52f594795f5d44a5'
p1438
(dp1439
g4
I6
sg5
I18
ssS'ee91a74c45a453089e1c2887ebadd486cfc6a9bb'
p1440
(dp1441
g4
I1
sg5
I1
ssS'5b40f8a5d5e6a36fd966eb473d0897f3e2f8c547'
p1442
(dp1443
g4
I1100
sg5
I1090
ssS'538218d3baefd5f0aa9537122e8325e5c697fbae'
p1444
(dp1445
g4
I1
sg5
I1
ssS'4d60db050e3ddb99343328f0b4018c10f6176f6f'
p1446
(dp1447
g4
I12
sg5
I1
ssS'642723c222ae6701d6b8da17039b6e24fd09f235'
p1448
(dp1449
g4
I8
sg5
I10
ssS'a2d9865fa9684bffa321d2a68b34abce52da2418'
p1450
(dp1451
g4
I0
sg5
I0
ssS'b6613179481e97eac0e23aaa0b9fb8970b2e037b'
p1452
(dp1453
g4
I13
sg5
I7
ssS'6e0619f91ffa1561fb0908ed55d75c955b9f5f9f'
p1454
(dp1455
g4
I1
sg5
I1
ssS'6d801e690cf4b6b1cf7434869d45a6ee7d982693'
p1456
(dp1457
g4
I9
sg5
I4
ssS'9f150fa54a58fc04f452b12f07a245ddd15fb748'
p1458
(dp1459
g4
I10
sg5
I1
ssS'0dd07304af0f8d0ebff713f989f57924b091f2d9'
p1460
(dp1461
g4
I3
sg5
I3
ssS'7581de6780a06155d0776f6d1318066a181cecd0'
p1462
(dp1463
g4
I1
sg5
I1
ssS'6e20606a44b3e44c185f37f633b5ae714a8fc53c'
p1464
(dp1465
g4
I1
sg5
I1
ssS'919dfa525308d164675578b10e9ccd0ccdfee2fd'
p1466
(dp1467
g4
I1
sg5
I4
ssS'811bf5281159d804fd6ffa76ef55aa1b19573a5c'
p1468
(dp1469
g4
I3
sg5
I5
ssS'3d64315139a11a6baacdb14f257a843cfc8de046'
p1470
(dp1471
g4
I6
sg5
I8
ssS'446817cc666b114894143c4b155c2f1cf7e5ea0a'
p1472
(dp1473
g4
I32
sg5
I1
ssS'54643a1f6fc52bc2c36c765343a06be51f57112f'
p1474
(dp1475
g4
I53
sg5
I52
ssS'539bbf20d24c2e8044e04033d25764236a59859f'
p1476
(dp1477
g4
I40
sg5
I0
ssS'442ac73be6a654f15f0774173316da29d253b3aa'
p1478
(dp1479
g4
I0
sg5
I0
ssS'9666140dc1100b7ffe6337fa020ace239349eeac'
p1480
(dp1481
g4
I2
sg5
I2
ssS'5f1d095aa364714cf8e00eac39c94b0ebaaa1997'
p1482
(dp1483
g4
I0
sg5
I0
ssS'0bfb18c9a9679a8bb658169a24aa8ac782362f91'
p1484
(dp1485
g4
I6
sg5
I4
ssS'b895d374c52964f65ea488d558583a44faf7ff67'
p1486
(dp1487
g4
I8
sg5
I6
ssS'e33bd26865b4bae43e979fed16a4a96259be66df'
p1488
(dp1489
g4
I31
sg5
I9
ssS'9b8cd9bf56c2509d2ad9c9e0f4da6f4da2aaf588'
p1490
(dp1491
g4
I6
sg5
I4
ssS'310687a606b5aaffcaaf9d29e20a83baf45267da'
p1492
(dp1493
g4
I4
sg5
I2
ssS'90ef70abfa57397ce34aab4e9b23a7623e48d66f'
p1494
(dp1495
g4
I165
sg5
I154
ssS'4baba8df47959bd16db13cc866c2df7892829b46'
p1496
(dp1497
g4
I0
sg5
I2
ssS'dc93014bc276aac2065c8bef5cf14f5f572b5366'
p1498
(dp1499
g4
I1
sg5
I1
ssS'5d4d26ce080cd85328c5b2d8f762cad702d57949'
p1500
(dp1501
g4
I0
sg5
I32
ssS'b7011eef85f1ce2a1cc47a6e3bf165d9f37f2413'
p1502
(dp1503
g4
I35
sg5
I1
ssS'810faaf20e966febe972af165780f7c85fe8331b'
p1504
(dp1505
g4
I4
sg5
I1
ssS'c92371acca215aeb33c81a5f5ab9280b440f55ac'
p1506
(dp1507
g4
I17
sg5
I19
ssS'a9430c92981124e1868c525a29f053f0d7661e4b'
p1508
(dp1509
g4
I6
sg5
I6
ssS'91610c1410850bdeb6eccb7f7cd18570a831119d'
p1510
(dp1511
g4
I1
sg5
I1
ssS'b437e10954b42a9bcd1393b3d7a250c4b033a4b1'
p1512
(dp1513
g4
I10
sg5
I0
ssS'a5b123645d89cd660bd56eebc07f627cd7134588'
p1514
(dp1515
g4
I0
sg5
I0
ssS'f73645102c409efae359395bcd2ea674a4716090'
p1516
(dp1517
g4
I4
sg5
I1
ssS'8cfe5dd32a12bcf5dccdcb95246c13b24877291b'
p1518
(dp1519
g4
I31
sg5
I23
ssS'820da10cece52fb00e133836e7261abbe78c5b7d'
p1520
(dp1521
g4
I1
sg5
I1
ssS'5f6404d1769b6be47810b1cb7e988d02e3677fcf'
p1522
(dp1523
g4
I21
sg5
I0
ssS'fb3a0dd20e6681223d811d5fd59d14ea0417c65b'
p1524
(dp1525
g4
I20
sg5
I9
ssS'1b34d34e87a014d1ad96263169b25ecf34e900cb'
p1526
(dp1527
g4
I1
sg5
I1
ssS'cd0a367638dbf60f4c65c9b5106ded5f14497ee2'
p1528
(dp1529
g4
I0
sg5
I136
ssS'3a889f7b5f664cb7a53ebf09ce3fdd4ee05fa087'
p1530
(dp1531
g4
I6
sg5
I4
ssS'756d75d1ba27fb2ce9690838cf5ef10303b253cd'
p1532
(dp1533
g4
I0
sg5
I6
ssS'8bcd9961171735cca123a0424def58c505cdd8e5'
p1534
(dp1535
g4
I74
sg5
I73
ssS'4285387151f0096c2a2670afb4b4b430ca06679b'
p1536
(dp1537
g4
I1
sg5
I1
ssS'95e25f3f7391fa03be2a1632e048226ce2b41dd9'
p1538
(dp1539
g4
I10
sg5
I2
ssS'6e171fff16d580a388c6a468c153978a0c5bbb92'
p1540
(dp1541
g4
I1
sg5
I1
ssS'057c1c1edd9284e7139960ce04b352eaaf65e8f2'
p1542
(dp1543
g4
I59
sg5
I57
ssS'bf9268e532abd5fac62788f57e4ca8b88c59652f'
p1544
(dp1545
g4
I6
sg5
I12
ssS'014c53df49a1bd388c5173f574d084d3e842fb50'
p1546
(dp1547
g4
I4
sg5
I0
ssS'b7fcbc4875a23224f5d95cb6b8708b1d8e0b334a'
p1548
(dp1549
g4
I7
sg5
I7
ssS'7db627fe8889fe5de0b6fc27a9c4ad58297c06ce'
p1550
(dp1551
g4
I4
sg5
I0
ssS'273eb826f76fc19dd588f461b4dae0304f858ca2'
p1552
(dp1553
g4
I12
sg5
I4
ssS'e7fe58a7137123080aa4431abf7a52b5e25142c2'
p1554
(dp1555
g4
I0
sg5
I5
ssS'168ad0af6a9dcac6ad66772e2429a97abe896170'
p1556
(dp1557
g4
I7
sg5
I4
ssS'ed1fff0dfff60a8a74401057547f1f14390fe2d8'
p1558
(dp1559
g4
I1
sg5
I0
ssS'2899329f569e425a34c105f66d556735a86d91b7'
p1560
(dp1561
g4
I2
sg5
I1
ssS'7aa805fea49ea3fe6761e987205a78aa020b9031'
p1562
(dp1563
g4
I1
sg5
I1
ssS'dae9ddeeed7d5af87168aab6efb43ba0371a0b1f'
p1564
(dp1565
g4
I1
sg5
I0
ssS'89a9270cb3dcf6c9dbcf8dcefd1e26e7517b099e'
p1566
(dp1567
g4
I64
sg5
I20
ssS'c95ac3d265283b30303f57ae6e651e7893dcd884'
p1568
(dp1569
g4
I10
sg5
I57
ssS'23e59f817bb2fe994e35d64bf06f0234af32053b'
p1570
(dp1571
g4
I22
sg5
I1
ssS'553fb66e75368199d8cbfeefa132cf9925e963e4'
p1572
(dp1573
g4
I0
sg5
I0
ssS'83176ae5d8916ee3879d9fa7f8ca025b84c1e779'
p1574
(dp1575
g4
I2
sg5
I2
ssS'0f3cb07fda484d77d3c1ae03dda07132e06a16ee'
p1576
(dp1577
g4
I0
sg5
I10
ssS'7f2882efd0aa7ec64412bfe30eacfd371c8c2e66'
p1578
(dp1579
g4
I1
sg5
I1
ssS'7a6bf6bae45a17ddd2896722bf904437db70a95c'
p1580
(dp1581
g4
I30
sg5
I137
ssS'eb9642ffeeab679b952e785be88916a450d317f7'
p1582
(dp1583
g4
I55
sg5
I29
ssS'cd74a130e1bc71930db4482132c48076de4af50f'
p1584
(dp1585
g4
I15
sg5
I11
ssS'2639c9df1fd1647ed003b42f45574f0cc8b43b6b'
p1586
(dp1587
g4
I11
sg5
I11
ssS'd3c44603055135c1dcaaf0a156bcc8edb944b8bd'
p1588
(dp1589
g4
I28
sg5
I4
ssS'503927fab50e967dcef305d49692b077631e68b6'
p1590
(dp1591
g4
I1
sg5
I1
ssS'3354f2df804360b4a58fe4c4aa84980b3deeab5d'
p1592
(dp1593
g4
I0
sg5
I0
ssS'61df5384faee1c38e4881a81a00183be6861ed6f'
p1594
(dp1595
g4
I416
sg5
I262
ssS'd33c5a5f05352fd3d0a57779a2fe5c473860df3c'
p1596
(dp1597
g4
I8
sg5
I0
ssS'55cca63fc6fe5bde09a31757b246c1bdc4e82b3d'
p1598
(dp1599
g4
I15
sg5
I8
ssS'b1495b12b66cdec3f2e6d2a1281a9ccf8ee2f827'
p1600
(dp1601
g4
I26
sg5
I1
ssS'9fd8d28fa2587b7bdee59d4339eba43b8a53cba0'
p1602
(dp1603
g4
I7
sg5
I0
ssS'6d845d81b50e576057b02d6a338b4e6edf578e36'
p1604
(dp1605
g4
I19
sg5
I5
ssS'799a6102edc88757ee0e35dbfc8db32bac67ad59'
p1606
(dp1607
g4
I20
sg5
I8
ssS'd5f32239fa213aa8c58cdcb8c8490c5f38c0bf21'
p1608
(dp1609
g4
I82
sg5
I17
ssS'e802c8fa0e8b85c4ac5962f824b8415a20a16e30'
p1610
(dp1611
g4
I2
sg5
I2
ssS'86b5c6a27994023a3f80974b5efb6bac6d6c52bb'
p1612
(dp1613
g4
I0
sg5
I0
ssS'6b53e3d94807fa59ef751068199f3c2b759f2f1a'
p1614
(dp1615
g4
I38
sg5
I38
ssS'918e811db5ae568449aafe401c647f286f598664'
p1616
(dp1617
g4
I7
sg5
I5
ssS'd4ed73e075549597315c52336d9a0736460aff31'
p1618
(dp1619
g4
I0
sg5
I0
ssS'd6944a6ed9f7e452b2eb079269d212816c6f2f10'
p1620
(dp1621
g4
I2
sg5
I2
ssS'aba0b5d0879795227eecf9ef23ac8deba1f7a489'
p1622
(dp1623
g4
I13
sg5
I3
ssS'd460b1640f0636ceb92a5a690a162757fa871de1'
p1624
(dp1625
g4
I1
sg5
I1
ssS'db4f495036b82dbdbd466bb6b7954018d36008e1'
p1626
(dp1627
g4
I3
sg5
I7
ssS'69ebe455d8edc0be8a9e119b3de5d62fc0914984'
p1628
(dp1629
g4
I40
sg5
I40
ssS'ac141721441674f32611313e193321b8238e88ef'
p1630
(dp1631
g4
I0
sg5
I0
ssS'a3631d0284f8f5c3338ff6ea08ed81a269ad5c0e'
p1632
(dp1633
g4
I2
sg5
I0
ssS'794b81ac0e3e3fbf984d8a00fac0a1bbbae46e26'
p1634
(dp1635
g4
I0
sg5
I0
ssS'dea26008de9647b7fb8d31149f45b2dd3e9c81fa'
p1636
(dp1637
g4
I2
sg5
I2
ssS'8f506ec644b452d7e744bfc0d8332f4ba3d01bb1'
p1638
(dp1639
g4
I14
sg5
I49
ssS'4b80e44c09e81e611f630896eb38e376d09094a1'
p1640
(dp1641
g4
I99
sg5
I12
ssS'b533cd814ba891927c5624162b9d4a2c42ba8146'
p1642
(dp1643
g4
I14
sg5
I10
ssS'94159d53d26043268084a732487b196dd44f9f3d'
p1644
(dp1645
g4
I0
sg5
I0
ssS'6e2588643722fe48e81ae32016414aa023e68146'
p1646
(dp1647
g4
I7
sg5
I2
ssS'bf3d6876c310b39d045f6338ec8b93d2b1967072'
p1648
(dp1649
g4
I81
sg5
I2
ssS'797e89c30d44408a93b59489f79e5b69c5e124d1'
p1650
(dp1651
g4
I2
sg5
I2
ssS'9979615030d97cbe26bb64e005f7dd83012f013d'
p1652
(dp1653
g4
I27
sg5
I2
ssS'618701a1cae066ff9e9fd00a6a3c3420931637d5'
p1654
(dp1655
g4
I52
sg5
I66
ssS'39c8f0480e6a676a2406dd513f38b0e3728ee9fa'
p1656
(dp1657
g4
I8
sg5
I4
ssS'd6a89691e89f1c92fa740ddc1641cc2d984c4497'
p1658
(dp1659
g4
I2
sg5
I1
ssS'15771d691d2dedadf70e1963285abe1017bd8c42'
p1660
(dp1661
g4
I1
sg5
I1
ssS'72b38372163e931b037ea8016d6635bd44414fcc'
p1662
(dp1663
g4
I27
sg5
I2
ssS'08db26f34395e2c52023a5d33139975ff47ba8af'
p1664
(dp1665
g4
I1
sg5
I0
ssS'53785b760b4da1371475af082485e636a8d1f573'
p1666
(dp1667
g4
I1
sg5
I1
ssS'ae59183507acf1c79d7f07b163acf860b4ea6e90'
p1668
(dp1669
g4
I1
sg5
I1
ssS'a171422225cfae6e063704db6483365b9dda6241'
p1670
(dp1671
g4
I21
sg5
I2
ssS'd3d49a6d249c0d911ee09816613a1e15607a2a7c'
p1672
(dp1673
g4
I15
sg5
I2
ssS'3a58ce2d33e143f96028cf62b803050759fd33ac'
p1674
(dp1675
g4
I38
sg5
I99
ssS'11852fba151b9d1bff2f262be743925052a91ddd'
p1676
(dp1677
g4
I4
sg5
I1
ssS'60a5a783e164d9095bccdbf787c6ff01ca8176e0'
p1678
(dp1679
g4
I3
sg5
I2
ssS'01660061a050c2f0df9c60b91c82f2fe89a651b4'
p1680
(dp1681
g4
I19
sg5
I0
ssS'2e642ceddec546da26ddf73960d80d4610a5afcc'
p1682
(dp1683
g4
I8
sg5
I13
ssS'75291e610360414dcaafe916764759861423a22a'
p1684
(dp1685
g4
I22
sg5
I21
ssS'10cd852a04181d95dece6e1f93d9859610c733c7'
p1686
(dp1687
g4
I15
sg5
I25
ssS'0707a2c3fce985ac05b46fee7a6405c32e3cef58'
p1688
(dp1689
g4
I0
sg5
I2
ssS'88ede68e315fb682df0d12104cfffe9e2b5b16ce'
p1690
(dp1691
g4
I2
sg5
I0
ssS'94e5f812d22bc16ad9e640fa6dba3f5cb2e797db'
p1692
(dp1693
g4
I59
sg5
I6
ssS'1ea8b6eeffa163666967fa26ae65e33cb3ace99b'
p1694
(dp1695
g4
I0
sg5
I0
ssS'c55753fb8782d36d81a3ee36646b22061d2c6d21'
p1696
(dp1697
g4
I25
sg5
I0
ssS'a044be973d5135d9667b16722208fd46a0e14cf6'
p1698
(dp1699
g4
I1
sg5
I1
ssS'07d5f4ef7293b8dc27151fc29d99d4a6b772e7be'
p1700
(dp1701
g4
I233
sg5
I195
ssS'd7804a06e5b09385973c19e88b4654fb21fa53f1'
p1702
(dp1703
g4
I27
sg5
I20
ssS'3d37cea964aee425dec69f0c906e90adb810114b'
p1704
(dp1705
g4
I89
sg5
I0
ssS'ef05be71134054abaa3aa68e4c7ea67d701e5c13'
p1706
(dp1707
g4
I2
sg5
I0
ssS'facbae4978505e9ce12832a053c41114e837bec8'
p1708
(dp1709
g4
I11
sg5
I8
ssS'08b05056af12e103c2f37569ad5091ca5fd4d787'
p1710
(dp1711
g4
I15
sg5
I1
ssS'e1683ccedb3fd310705f9f5cddc37c037ea60c3c'
p1712
(dp1713
g4
I27
sg5
I1
ssS'82c6ef644a2efb77217a23d9b8a6cfb5caffb4ba'
p1714
(dp1715
g4
I44
sg5
I4
ssS'c2f75e6b5b2fd23d7185a10d6f1929dce02a97a0'
p1716
(dp1717
g4
I13
sg5
I13
ssS'c127ef121872f92013de351d1670da64337905ea'
p1718
(dp1719
g4
I1
sg5
I1
ssS'd0e11108e62e34658ff648723f993e3de38cd7ad'
p1720
(dp1721
g4
I95
sg5
I18
ssS'db305eff574192722758f5e0b3806e93da9af4be'
p1722
(dp1723
g4
I5
sg5
I2
ssS'8fa49d6c6f4bede06586cbeb81e3f893dd6770db'
p1724
(dp1725
g4
I5
sg5
I25
ssS'6d641b0481904ec25b13d63c98042dd3f5168dce'
p1726
(dp1727
g4
I1
sg5
I1
ssS'f2d00d4026a9c2ee6038e9b03eb9a75c6a5a0d41'
p1728
(dp1729
g4
I24
sg5
I10
ssS'c00c344f3f30a5e4d485b6ec1e328090512cc3cd'
p1730
(dp1731
g4
I32
sg5
I11
ssS'75d0203dcaab646aa73afdb1646425b4cbe3bc1a'
p1732
(dp1733
g4
I34
sg5
I3
ssS'c09dbcf295cb2eb9b2a2c0febf195df9c7cce57a'
p1734
(dp1735
g4
I21
sg5
I30
ssS'eb5abeeca27645211fa77e6c3b40cccd7d96c6af'
p1736
(dp1737
g4
I80
sg5
I93
ssS'44cf7fcd61bebfb7004684edd2426865026e3572'
p1738
(dp1739
g4
I0
sg5
I13
ssS'b13ef13e8365348b957e77105fdeeeb5bde69c49'
p1740
(dp1741
g4
I0
sg5
I0
ssS'7858e9ff5b0a472f5a2e29b0300610889b03ffd7'
p1742
(dp1743
g4
I164
sg5
I186
ssS'708e538b3ec2e6610b09d6f6b6183236a3c7c049'
p1744
(dp1745
g4
I306
sg5
I279
ssS'05df58447680a54ca4f6444edae06783efe312ea'
p1746
(dp1747
g4
I0
sg5
I0
ssS'a8b64395024327479ec9060899a3d87fd9dc8c3a'
p1748
(dp1749
g4
I1
sg5
I1
ssS'b3d48abbdf673697977f59c5476008a85acb1e27'
p1750
(dp1751
g4
I79
sg5
I15
ssS'f709914da860ac9ec3d0c0dc0dcb4b207806b2f5'
p1752
(dp1753
g4
I10
sg5
I3
ssS'7404c50c2e901d40e037eabb001c8174bd5c2c30'
p1754
(dp1755
g4
I78
sg5
I115
ssS'22e37ca5352d256103c0887908890c76826bc5f1'
p1756
(dp1757
g4
I11
sg5
I16
ssS'030b5708fb2f6123acb2d1be2d562bf98a1f6a0b'
p1758
(dp1759
g4
I51
sg5
I79
ssS'a6baa5f092e933bc5b84849264df988069cee7d9'
p1760
(dp1761
g4
I0
sg5
I0
ssS'dba9f1c2ea725079905941d0ac92f0ba9af9f978'
p1762
(dp1763
g4
I54
sg5
I56
ssS'1ed485519d63e3fa9cd87cf336f39445d3488396'
p1764
(dp1765
g4
I3
sg5
I1
ssS'5a3a73283f0922e13aa9e395081b95e324192100'
p1766
(dp1767
g4
I3
sg5
I1
ssS'4ec4201c489fb4fd608b333db7f35b6933f1eaa6'
p1768
(dp1769
g4
I146
sg5
I119
ssS'67638964b9e83d8ec821e5a9bb0c64601fe413d9'
p1770
(dp1771
g4
I14
sg5
I6
ssS'a01a2c93d5993f7be820a6699936172c7bbeec9d'
p1772
(dp1773
g4
I16
sg5
I8
ssS'1c5e3c54b61140362ba55df9b5610def83d98b12'
p1774
(dp1775
g4
I19
sg5
I1
ssS'6458a674919bba9af69c62af0d123b7981f72a8c'
p1776
(dp1777
g4
I2
sg5
I8
ssS'f3f901973a7aa6f9137d9da9480d9cf15455eab2'
p1778
(dp1779
g4
I35
sg5
I22
ssS'e5b23b84ff17a2fc0c9c1015f312b7cfe9a65d3e'
p1780
(dp1781
g4
I8
sg5
I13
ssS'5e8112ef05dce3ccaac1f3cf3b8d66d6012d091d'
p1782
(dp1783
g4
I117
sg5
I2
ssS'1fbb30774758b0e4056f3617cc0d7a51ac1247fa'
p1784
(dp1785
g4
I27
sg5
I33
ssS'0b1d8904095e0da5016a6f9241b0afdb88d29f04'
p1786
(dp1787
g4
I37
sg5
I64
ssS'3d97e3ac1b9261610dc2cf2eca8d32a940518bb6'
p1788
(dp1789
g4
I1
sg5
I0
ssS'2682f50ee379e7e6d7a0c5891ba7211fc8829ab3'
p1790
(dp1791
g4
I10
sg5
I10
ssS'b8f49d042a6c3a5cda196dc76e04fd9f479957fd'
p1792
(dp1793
g4
I30
sg5
I136
ssS'844e41a1d149075483dfc51584a532150a4b4342'
p1794
(dp1795
g4
I0
sg5
I0
ssS'817ef1ed6869f8d2689d2742b024b393565a49fb'
p1796
(dp1797
g4
I7
sg5
I5
ssS'ffd49d83cbb6ac001e7244cbd5e91bfc9015c227'
p1798
(dp1799
g4
I39
sg5
I23
ssS'89498df58040296117e9601867e49b8dbe213856'
p1800
(dp1801
g4
I1
sg5
I1
ssS'6e11b6bf30bd8959ea7e1e420aa46b197542fb8c'
p1802
(dp1803
g4
I0
sg5
I6
ssS'd8566bb913bf841fa1566eee5d5e1ae03c2feda1'
p1804
(dp1805
g4
I4
sg5
I0
ssS'6146e38d1ed236427d61bfd13c097cd3d29cd017'
p1806
(dp1807
g4
I2
sg5
I2
ssS'866dd518ee3834549f079bb989682d79582911eb'
p1808
(dp1809
g4
I5
sg5
I1
ssS'75318f1fed9fc854e1d5cd04197983659f3c260c'
p1810
(dp1811
g4
I20
sg5
I1
ssS'3010d26cb196e54f83e1b9ec56648e65b598946a'
p1812
(dp1813
g4
I1
sg5
I0
ssS'87e9a713b98af5635b2fc3409e2de5dcd1aa92cb'
p1814
(dp1815
g4
I19
sg5
I5
ssS'1617a8ea349cebaaa98505b3c0c6c3f3e39768f7'
p1816
(dp1817
g4
I10
sg5
I4
ssS'206ca2098f4efa1e25f343ab84a054a87edff357'
p1818
(dp1819
g4
I0
sg5
I11
ssS'13c8cb6bf539e411f4c2913fe04648b4d947565c'
p1820
(dp1821
g4
I31
sg5
I14
ssS'e48ca93098bfd2538bcc43f74bd89b99262c0b93'
p1822
(dp1823
g4
I21
sg5
I12
ssS'1cc5ebb248cbe36ed0260e85325df0090cb8db2d'
p1824
(dp1825
g4
I2
sg5
I4
ssS'7173dd95e2d4628191705629865409fef872cea2'
p1826
(dp1827
g4
I2
sg5
I0
ssS'6c5c67b69d237d37674da5f8cb9a4ddd7d4047a3'
p1828
(dp1829
g4
I64
sg5
I3
ssS'c069eb4310c32e1fa711ea121eeac44e206cc167'
p1830
(dp1831
g4
I10
sg5
I0
ssS'9fecae53e4fabdbcadc07666d142d1c6919900f3'
p1832
(dp1833
g4
I8
sg5
I3
ssS'e4e6e9b4c7dbf1b1b669858e762fed1e2f3c0c09'
p1834
(dp1835
g4
I36
sg5
I11
ssS'08f95b4db950d92733729388a0eaf8c2eb3fb637'
p1836
(dp1837
g4
I1
sg5
I0
ssS'989b958c7d3dfaf4af4909f1c352f8c81d845cbb'
p1838
(dp1839
g4
I9
sg5
I1
ssS'17975394df655f49615739061075ba2ffd5b032a'
p1840
(dp1841
g4
I0
sg5
I0
ssS'92b1443afa064886c86377c1b22c55d524aca204'
p1842
(dp1843
g4
I48
sg5
I48
ssS'a26db5ccc7d4f1eae885df51bf9cea97b4bd8f79'
p1844
(dp1845
g4
I57
sg5
I56
ssS'2c75198fb217d7ada8516b578ddbb897e86625af'
p1846
(dp1847
g4
I5
sg5
I1
ssS'2b5ec36d23de27f5dee5ef090150a74bbd865c5d'
p1848
(dp1849
g4
I1
sg5
I0
ssS'982bfdf69aa34b039188be874c0d75c67dd74017'
p1850
(dp1851
g4
I9
sg5
I7
ssS'b4f314a6bc12978030d82ccde321f85232498236'
p1852
(dp1853
g4
I6
sg5
I2
ssS'840054357062c94b2fd24bc9e19f1498d1cfeba4'
p1854
(dp1855
g4
I0
sg5
I0
ssS'9480d099df009adabbc5153247b5f56459f6e0b7'
p1856
(dp1857
g4
I1
sg5
I1
ssS'9681d89e058a30969f6d568a71a7dd69bd289df6'
p1858
(dp1859
g4
I34
sg5
I21
ssS'4e92fa523f75143070ccb704e62d82fb4fcba23c'
p1860
(dp1861
g4
I41
sg5
I0
ssS'92eafa5179989400a2cfef2567dfa7ba6f343f01'
p1862
(dp1863
g4
I0
sg5
I6
ssS'd4cc195b05243be776eb40464a61d4fc376728ff'
p1864
(dp1865
g4
I3
sg5
I1
ssS'7ed10c2269e6a1852b2b5133957d6cf7dba504d4'
p1866
(dp1867
g4
I38
sg5
I68
ssS'e7dfc6c790e3ac97805e4e8fc15f9ece59e52d0a'
p1868
(dp1869
g4
I1
sg5
I2
ssS'5092504bd476fa24a95bf9e818f4523f9b67f4c5'
p1870
(dp1871
g4
I45
sg5
I12
ssS'f1ed6e4d50b3e3fef31a214f534b2611fe1f141d'
p1872
(dp1873
g4
I6
sg5
I6
ssS'a2272a3f7e6d21dbbfb640f26eaf0da46b952764'
p1874
(dp1875
g4
I1
sg5
I0
ssS'3fb9ecef1628a326fd6f8b8a7a35da25c72ec3aa'
p1876
(dp1877
g4
I1
sg5
I0
ssS'2f849ffcfd34dbf3d7d9b160f54ef98fb0137761'
p1878
(dp1879
g4
I40
sg5
I24
ssS'8d5db4a3ec9db6091d1536e50094eccd82cca652'
p1880
(dp1881
g4
I335
sg5
I0
ssS'77161c6367ed0adbeb6d9f457a7751918d3337c6'
p1882
(dp1883
g4
I39
sg5
I4
ssS'890c0f2357f06266d0e266e4f23bcd9e465c33a0'
p1884
(dp1885
g4
I2
sg5
I0
ssS'a08a442fa924f94e2007552e91adae16d300b946'
p1886
(dp1887
g4
I88
sg5
I88
ssS'd4004186190509d18f1becccda78c29bac09ccf6'
p1888
(dp1889
g4
I1
sg5
I3
ssS'0cbbebe7328ae8df3a77e9481059d2ac7f673b0a'
p1890
(dp1891
g4
I36
sg5
I0
ssS'cbdc9f573325933cea47f64e7eea5239d688b114'
p1892
(dp1893
g4
I3
sg5
I1
ssS'f570ad4e66f52f2d01fccfb2e63b8dbdb4a7761d'
p1894
(dp1895
g4
I27
sg5
I1
ssS'2e7d545926e7b0178e03028343f5ca02a2a11a37'
p1896
(dp1897
g4
I5
sg5
I0
ssS'93097be78874dc4c2f323837352f2b1f552cb025'
p1898
(dp1899
g4
I6
sg5
I1
ssS'cb6fc57c3f18e254a976db7e5a07cabdf5542a67'
p1900
(dp1901
g4
I5
sg5
I2
ssS'0199ae820b6438873f3e5c4ce2adbac05f69841b'
p1902
(dp1903
g4
I48
sg5
I12
ssS'c8a50c4736edb0625624204e80ee873d898bc6f7'
p1904
(dp1905
g4
I35
sg5
I0
ssS'03da989568ee42ad8107c72902774cd222308d11'
p1906
(dp1907
g4
I1
sg5
I1
ssS'bc28381384a96a09b917e71a16e6bf6e17212817'
p1908
(dp1909
g4
I2
sg5
I2
ssS'4b5aa3382df265878dd00c51e652f5f0285344e1'
p1910
(dp1911
g4
I0
sg5
I0
ssS'9722a57493902404905e934716c7eb6b26bcd8d7'
p1912
(dp1913
g4
I21
sg5
I20
ssS'abbd34f68cbea94bffb635a5286977addd735525'
p1914
(dp1915
g4
I1
sg5
I0
ssS'3d4d3d6c8cbe6c66098072e65766d3074905e417'
p1916
(dp1917
g4
I55
sg5
I55
ssS'e15bb69c1fe812451596f7d1c3acc6225d54ca59'
p1918
(dp1919
g4
I2
sg5
I2
ssS'4ad9cd4d91f6d7d0fee36aa286a059551d3c2933'
p1920
(dp1921
g4
I4
sg5
I4
ssS'4ef9c896f4f8835dc1d49c70844fbc9337b24f93'
p1922
(dp1923
g4
I63
sg5
I49
ssS'a9582e447362cac362e20c0ca4d30ec0221bfec2'
p1924
(dp1925
g4
I83
sg5
I20
ssS'9911a08d6f7d1d55cad8eb911ae831b3fba14bfb'
p1926
(dp1927
g4
I1
sg5
I0
ssS'47aab8af02f905efecc07b1398c118f53154b153'
p1928
(dp1929
g4
I12
sg5
I5
ssS'bae8340f044ed41e9b7cfde8d5a8880860862f67'
p1930
(dp1931
g4
I13
sg5
I0
ssS'7d24bf13562c03eace54dd0414abcbbe61675d97'
p1932
(dp1933
g4
I11
sg5
I0
ssS'5f03c49907c1b3c7b5fb594287871df23a13c1a5'
p1934
(dp1935
g4
I3
sg5
I0
ssS'45cb63c3d94f1b198c4e4e251eb3cc152110d2b8'
p1936
(dp1937
g4
I57
sg5
I96
ssS'152087df64cf0ce60dd518f7afbd62e68ac41e80'
p1938
(dp1939
g4
I64
sg5
I10
ssS'f365d647f04ad798a231c40e0666bccaa32eb715'
p1940
(dp1941
g4
I65
sg5
I2
ssS'71ff78a4590edabc526c23105622d867aac12857'
p1942
(dp1943
g4
I6
sg5
I2
ssS'df941928c24490610568d141980788b4b0ab382d'
p1944
(dp1945
g4
I16
sg5
I2
ssS'b8e8506a55e869bb087e42e859891ed29f741e3b'
p1946
(dp1947
g4
I4
sg5
I0
ssS'a685081ac4b8e8db719e2acea7e702a6b9093811'
p1948
(dp1949
g4
I13
sg5
I9
ssS'2aa95a8ed574568bf5fe303a739882eb69c3275d'
p1950
(dp1951
g4
I40
sg5
I5
ssS'81aa80def2a5009faeb10d94f75c4bf95bee7277'
p1952
(dp1953
g4
I223
sg5
I0
ssS'3d5fd4b0b810c42f0f779afbffffb0bd4df898c6'
p1954
(dp1955
g4
I5
sg5
I9
ssS'5c35c918a6a4b60f8dc89003d4ec14f825d8d59e'
p1956
(dp1957
g4
I71
sg5
I9
ssS'5d2fcf060013b7698b32a4a35302ac808679a513'
p1958
(dp1959
g4
I0
sg5
I0
ssS'a25af796c31e33a827d47102d83db389cab846ab'
p1960
(dp1961
g4
I22
sg5
I9
ssS'b83ef46aad8e892c2dc8e38ea6cb81480f42d8fd'
p1962
(dp1963
g4
I7
sg5
I1
ssS'3c65ae5f2f8f4d03edd14ad8b5e29ffffb38ab79'
p1964
(dp1965
g4
I1
sg5
I1
ssS'9f29a021407fd55b01fb690e381c3899479ee945'
p1966
(dp1967
g4
I28
sg5
I26
ssS'74b2456117b243cbcc5ec69d7ab932ad5a97ffe5'
p1968
(dp1969
g4
I128
sg5
I62
ssS'a239058b5b6a71c7d4baa1f676a7bedce8227268'
p1970
(dp1971
g4
I1
sg5
I0
ssS'b63c90162e44e932b9ecc64ff8fa46cf66079c1c'
p1972
(dp1973
g4
I0
sg5
I0
ssS'6aafad449461681a2c22dd19e591f0b7c35e08ed'
p1974
(dp1975
g4
I16
sg5
I1
ssS'acae0ce721d63fce5c46fa81a5297af36f3cd04a'
p1976
(dp1977
g4
I15
sg5
I1
ssS'83d0f832eac8b9f4ff343596e30b0771de58363d'
p1978
(dp1979
g4
I2
sg5
I6
ssS'd80bc3f9254044be2c82c3acfcbe282d10610bc4'
p1980
(dp1981
g4
I2
sg5
I4
ssS'fc4dd43040422206bec276cdd416254f15fcef0e'
p1982
(dp1983
g4
I2
sg5
I0
ssS'c0d23bf0d76e70c53800ac6863a708514d76699a'
p1984
(dp1985
g4
I20
sg5
I2
ssS'701d2b7cbc12d4b0dd050503f78da5577266a4b2'
p1986
(dp1987
g4
I20
sg5
I4
ssS'b4b562e8095ef98810f69e572ab719353d29e9db'
p1988
(dp1989
g4
I1
sg5
I1
ssS'29c597b8e2152096bd31d959e46953bd46811ce5'
p1990
(dp1991
g4
I1
sg5
I1
ssS'6378d7a10cddf793f904fa0109df08374d924c33'
p1992
(dp1993
g4
I22
sg5
I8
ssS'4be398afd4285efe21a589aebe41e17a84357721'
p1994
(dp1995
g4
I74
sg5
I3
ssS'f00261008c90b41b975034172d01bd47fee3df6e'
p1996
(dp1997
g4
I12
sg5
I5
ssS'dc1aad72e7593ee4edcf5196ffa7b3ab171c9e96'
p1998
(dp1999
g4
I2
sg5
I2
ssS'7d7c47127e15681f0cf614176c5b20272e5a8075'
p2000
(dp2001
g4
I0
sg5
I8
ssS'52d36b84d1dee758efe23cccb7cc5cc04ce2e7f6'
p2002
(dp2003
g4
I0
sg5
I4
ssS'47c774bfd3c05035abf03f287bdb640123d1820a'
p2004
(dp2005
g4
I10
sg5
I6
ssS'997cb119b5550539ab5726f38e5936b416ead2d1'
p2006
(dp2007
g4
I1
sg5
I1
ssS'30b7c4eb775c1b325ec8e588cbbfa76119436547'
p2008
(dp2009
g4
I76
sg5
I71
ssS'0016a643646b05dec44837caef95cb3f9135ccec'
p2010
(dp2011
g4
I1
sg5
I1
ssS'09b92c5e521532066205a866508037b57f8f7fba'
p2012
(dp2013
g4
I4
sg5
I7
ssS'435ca1bbbb8a76ed9dfaaa75b93f3ec3d212fbfd'
p2014
(dp2015
g4
I86
sg5
I40
ssS'0d65b5bdc970367415dd68bdaae912cef999d16f'
p2016
(dp2017
g4
I175
sg5
I4
ssS'c0ce7b35e9b6cbdc995540f2414e21725b07d7fc'
p2018
(dp2019
g4
I3
sg5
I4
ssS'e6c7c322d96f63911da3ced497aadaf9968852c7'
p2020
(dp2021
g4
I11
sg5
I0
ssS'3baaccc59c36c20bd68e75cccc62a9afa600b26f'
p2022
(dp2023
g4
I26
sg5
I9
ssS'613b1fa5ff17e80231d87aad2dced2547ea6e6b2'
p2024
(dp2025
g4
I1
sg5
I1
ssS'28852aa3ac9a37b50f6b0fe8c215a3c601345caf'
p2026
(dp2027
g4
I56
sg5
I22
ssS'61f5fc5135972101e347cdbd4501bf32d1bcedab'
p2028
(dp2029
g4
I3
sg5
I3
ssS'2fe3c8b7560f0c15684241165803ecd8e6f43e3c'
p2030
(dp2031
g4
I2
sg5
I0
ssS'cc5bfd7f71c90665e0ed89f47327b60dbca75d96'
p2032
(dp2033
g4
I11
sg5
I1
ssS'cc5fbd8eaccb4e112cca840dfffc25f6f82ea64f'
p2034
(dp2035
g4
I30
sg5
I4
ssS'4d20cfd473704c77f25b5c3be130900faf391e65'
p2036
(dp2037
g4
I5
sg5
I2
ssS'b3f6408cb0f823e040c2dbcf035faef972663ee5'
p2038
(dp2039
g4
I1
sg5
I1
ssS'f72cd1d74a3a7f4629b8e6b9b99550adb4f7602a'
p2040
(dp2041
g4
I1
sg5
I1
ssS'864d2f31b0d30a25d5986cb8682c5500454da6c8'
p2042
(dp2043
g4
I2
sg5
I0
ssS'8dd1cf970642481d52a97528cc0757da9b07b56c'
p2044
(dp2045
g4
I35
sg5
I44
ssS'bca2422a1001a9459982c3fbc19e39302fd76ef8'
p2046
(dp2047
g4
I42
sg5
I0
ssS'0267ac4220f87df7d27d6c6f25ede6beaf8740b5'
p2048
(dp2049
g4
I1
sg5
I1
ssS'7c7aa15f200df3e4ab7b83aa8402ddcfb7458846'
p2050
(dp2051
g4
I35
sg5
I0
ssS'dd4e026c664648fe05385fb53da7a4e9680dacf3'
p2052
(dp2053
g4
I9
sg5
I1
ssS'e7ce24cc36e4e8890f76caaa52bcd5b158c19e4d'
p2054
(dp2055
g4
I1
sg5
I1
ssS'1a4198ea9b1d5ad9f1eef59f8f3639f098f68e6b'
p2056
(dp2057
g4
I4
sg5
I2
ssS'7433d82a66de2ae537061c7393fbf15cf5171e86'
p2058
(dp2059
g4
I6
sg5
I4
ssS'f23249089f36c2a9beff3cdf45fb564f025617ed'
p2060
(dp2061
g4
I40
sg5
I1
ssS'1a9721ec74f586bccdc9d88c7b85bfa0ec34155d'
p2062
(dp2063
g4
I4
sg5
I1
ssS'a55a7dcc80669f91cc709576e634383802bf9b54'
p2064
(dp2065
g4
I3
sg5
I3
ssS'ece63ef432fc131bb3372df912c3dae7b1a8b7a9'
p2066
(dp2067
g4
I11
sg5
I4
ssS'c405b87c768780f603d17fdafbf83635eb64455b'
p2068
(dp2069
g4
I1
sg5
I3
ssS'ade1ff5ecd0365bd376001691b73ea7a594b0208'
p2070
(dp2071
g4
I15
sg5
I1
ssS'd956f9b2cac1a3801c3fa1cc93d19ff77687181d'
p2072
(dp2073
g4
I0
sg5
I101
ssS'a85b8cf05adaa8da6fe5a4511d28e101d63d0c90'
p2074
(dp2075
g4
I10
sg5
I10
ssS'74bb15850c0a984e0e1a857e905849e2353ac410'
p2076
(dp2077
g4
I15
sg5
I2
ssS'2cffd5060e35ca9aa2fbf2064c54426a8c373f51'
p2078
(dp2079
g4
I4
sg5
I1
ssS'5987a160867a6e1dc00bdece720f2d7fab8634e0'
p2080
(dp2081
g4
I0
sg5
I0
ssS'ea61e00bdcbd40cfca9ce793e3f84024cdfe4092'
p2082
(dp2083
g4
I1
sg5
I1
ssS'f3d974ded9b457dd8c4584193f98144d3dc979b8'
p2084
(dp2085
g4
I34
sg5
I13
ssS'af896e299ce5e381a928a77a9c28941cad90a243'
p2086
(dp2087
g4
I10
sg5
I13
ssS'3fb9024ad4637a56211e0b7d63f803860c70ef74'
p2088
(dp2089
g4
I1
sg5
I1
ssS'816a7c885d1db6f8504d026eaa19b06bdadaee4f'
p2090
(dp2091
g4
I1
sg5
I0
ssS'07e82b09ca7fddb1911a7b5b3036d820ac5d4f80'
p2092
(dp2093
g4
I17
sg5
I26
ssS'6895584b2b3cb9cb128804048f826d3b077d1d1b'
p2094
(dp2095
g4
I152
sg5
I143
ssS'1770e6a2d981e2de8066b5198733f97b231ce1b1'
p2096
(dp2097
g4
I10
sg5
I0
ssS'644f99bbbe7041c22f914dcbc0fbf2e68738cef0'
p2098
(dp2099
g4
I9
sg5
I0
ssS'91b96cf6eb23205029542af7a7a28e66c572794d'
p2100
(dp2101
g4
I4
sg5
I5
ssS'871a55bb4c80acfb62579a5da7235d800bcd7a90'
p2102
(dp2103
g4
I8
sg5
I12
ssS'0f44b7e0e95684fe5b2a89ad1ae8f5c4d7cd839a'
p2104
(dp2105
g4
I16
sg5
I16
ssS'be649cbfc8bfd6f51e66bbd6a22ab8870874f55d'
p2106
(dp2107
g4
I0
sg5
I28
ssS'1e7735333910a0517b4642ab45bd97d348592d8b'
p2108
(dp2109
g4
I4
sg5
I4
ssS'c53f901e1d6b4bfafa064313b242a9d23fc53890'
p2110
(dp2111
g4
I4
sg5
I0
ssS'e09f0cd302ac08ce48838a4182827ec911e1e5ba'
p2112
(dp2113
g4
I2
sg5
I0
ssS'a8a9b54ff5e9583cc0aa9fb2ad084702b6423991'
p2114
(dp2115
g4
I25
sg5
I1
ssS'a3dacfdde9eb71d5724d39618d4ed77c9a3a8428'
p2116
(dp2117
g4
I3
sg5
I1
ssS'6b2fa9e4264d85b67e7bcccfb2af9d8cab6e7f61'
p2118
(dp2119
g4
I1
sg5
I1
ssS'3f8a990f763010dbbd276b0e16538c8e0a9e7a64'
p2120
(dp2121
g4
I95
sg5
I5
ssS'f14183ee895c71cb5bdc4706433b4965df958a68'
p2122
(dp2123
g4
I32
sg5
I12
ssS'c2e8ca524793905018e0e4adc5e29e1d3b0446c6'
p2124
(dp2125
g4
I39
sg5
I0
ssS'3a8c5a1b56dd41a6e9c17100a075165e118dbe36'
p2126
(dp2127
g4
I4
sg5
I6
ssS'2fa2eee3080cbb5c5269eca940b939c6a73c2190'
p2128
(dp2129
g4
I7
sg5
I13
ssS'4b0b2d20b52ae0eccf9285d6d21daad375e4325c'
p2130
(dp2131
g4
I5
sg5
I9
ssS'36e382b1874218d466db88cb8ecd2d10ab03d1c6'
p2132
(dp2133
g4
I0
sg5
I18
ssS'7b5a3bfb99d7a4554f64e3529daaf3275052cf74'
p2134
(dp2135
g4
I23
sg5
I32
ssS'96f2ab47f5dc0baac8d4d2eac8e4c54fbbbf8d91'
p2136
(dp2137
g4
I13
sg5
I12
ssS'837d034b54004c388fc1200ff5330c2d991a54ae'
p2138
(dp2139
g4
I29
sg5
I32
ssS'358221eedd85fba954e5dd65c8863852b3faee81'
p2140
(dp2141
g4
I65
sg5
I57
ssS'28ea8b3d8d476e6e74505b6017ad915967619bca'
p2142
(dp2143
g4
I422
sg5
I77
ssS'51f139b5c236c76dc2681c79600178cb1d7a7cc3'
p2144
(dp2145
g4
I2
sg5
I0
ssS'5d56900ee2d5559a1969be7fe82952edfadcab97'
p2146
(dp2147
g4
I3
sg5
I1
ssS'e573154d56961f764f8489c0112d1f94d4ce95d3'
p2148
(dp2149
g4
I88
sg5
I51
ssS'd7294bd79062a4f47db8a761d79e6c1dd166bc72'
p2150
(dp2151
g4
I403
sg5
I384
ssS'06680b46a170ff3afd678122845f29e072fa867c'
p2152
(dp2153
g4
I6
sg5
I0
ssS'c0998ff1213b51dd112f58bf226ad679fd358af2'
p2154
(dp2155
g4
I15
sg5
I8
ssS'b194b835be4335dcca25b50c5ea79f959e90025b'
p2156
(dp2157
g4
I61
sg5
I0
ssS'f586ba7667c63b68b604ade4df85ce9014efae67'
p2158
(dp2159
g4
I54
sg5
I42
ssS'7feb1df5c9580a54f12f480769626a4e16147ded'
p2160
(dp2161
g4
I1
sg5
I1
ssS'71ad069f79a1a2fddcd89606c9236249d9b5e2e1'
p2162
(dp2163
g4
I26
sg5
I35
ssS'fdda5d29d6ec864bbb2fc151fe7155012c1079cc'
p2164
(dp2165
g4
I20
sg5
I0
ssS'18fc67e6f514daf584137e20857ebd4ef22aa3ad'
p2166
(dp2167
g4
I47
sg5
I96
ssS'cda132f17520c90c692e173d8aab98ebe3709491'
p2168
(dp2169
g4
I0
sg5
I0
ssS'b96ed75f2ac740195e43be68648813f3acf4ce2d'
p2170
(dp2171
g4
I25
sg5
I7
ssS'67af81a655bebebd387f0c13ba38f45aab82ad44'
p2172
(dp2173
g4
I9
sg5
I8
ssS'd53ae217925391a225d5677a4fb9d81781980487'
p2174
(dp2175
g4
I0
sg5
I0
ssS'6b636000eceef3ac91a3fa40911291a95b73244f'
p2176
(dp2177
g4
I611
sg5
I368
ssS'79394994c5c8c65ce603980104b81401d01b291f'
p2178
(dp2179
g4
I2
sg5
I2
ssS'c8b506f61facc24a1dd28f1421f0393d9775527f'
p2180
(dp2181
g4
I19
sg5
I15
ssS'd3b35124ecccac0a2daed6c92f9d7a8e719d8a5d'
p2182
(dp2183
g4
I15
sg5
I6
ssS'515936563ff8bea1a9764ed01eb500c35a305445'
p2184
(dp2185
g4
I17
sg5
I2
ssS'23b6b8aa5361ab380acc6e8e124e795c823c3c6c'
p2186
(dp2187
g4
I4
sg5
I8
ssS'16197bb28dcdeb4165ce4c846487997db1d55521'
p2188
(dp2189
g4
I4
sg5
I8
ssS'b1ddec4be22af451aa19d844fd513bdb9e22611b'
p2190
(dp2191
g4
I7
sg5
I1
ssS'd305dbce45e10d2f6620363feaecde884f9efdb6'
p2192
(dp2193
g4
I3
sg5
I1
ssS'c9b5a95fa26bc5b83b7688d666d4de32cf1bd867'
p2194
(dp2195
g4
I81
sg5
I47
ssS'9825a6280b9120c8fad2593618c395f4583f0ed1'
p2196
(dp2197
g4
I7
sg5
I3
ssS'8dde709251ff36378e9ab24584f97713da53a0a0'
p2198
(dp2199
g4
I41
sg5
I24
ssS'a2b025003ecb128681df8b29fd6ba8dcf614a6d7'
p2200
(dp2201
g4
I14
sg5
I0
ssS'10148fcd11ed6200ce0cd599bd315e59000a03c8'
p2202
(dp2203
g4
I3
sg5
I3
ssS'22f3b25c1898a32d81a5c4bf8c2b60d144d701f0'
p2204
(dp2205
g4
I1
sg5
I1
ssS'36795ba6d2d4fd9a06c6145fd5605053fd5b93af'
p2206
(dp2207
g4
I0
sg5
I0
ssS'fac2b3139063ae88e99b207e59be9945912484ee'
p2208
(dp2209
g4
I130
sg5
I137
ssS'c5172d8a33f3f355eac6b1aa6dc123257dba6ffd'
p2210
(dp2211
g4
I0
sg5
I0
ssS'f5f1bfb3e8acdd272ddbbd9bef9e8536e17d7982'
p2212
(dp2213
g4
I23
sg5
I16
ssS'fc44bb31f019b148d42b435745cc1e46ec97abd2'
p2214
(dp2215
g4
I5
sg5
I1
ssS'3b63bfe5dd9996c2519190bd6d6cc456328c021a'
p2216
(dp2217
g4
I1
sg5
I0
ssS'8506cd2a4577bd0a2a6cdff412201c628912c8d1'
p2218
(dp2219
g4
I0
sg5
I0
ssS'05c78c35d2fe3da814b8fd547bb322ba6b3d5e15'
p2220
(dp2221
g4
I2
sg5
I2
ssS'0d829e6d17b915421cf39897fe528ff029fe39ab'
p2222
(dp2223
g4
I1
sg5
I0
ssS'e97acdb2c314835fe52ea49e0886d97a180d0d9f'
p2224
(dp2225
g4
I1
sg5
I3
ssS'd9c0c863dfd886b61498cdc798989a67a47dbb23'
p2226
(dp2227
g4
I0
sg5
I1
ssS'2e2d04b4c270f31c1a9883e9ae41bb2d4cbca3fe'
p2228
(dp2229
g4
I0
sg5
I0
ssS'6999b05af2c2f3577c21768138f00e4d0e1cb762'
p2230
(dp2231
g4
I14
sg5
I7
ssS'704df63782db83f08ff3761920930980bd2feced'
p2232
(dp2233
g4
I33
sg5
I1
ssS'e93dd9919b263ff3e9782b64fe5f387acd8d1bda'
p2234
(dp2235
g4
I3
sg5
I20
ssS'ecd1e616e7ba45fc986063d5de3d2bc774f9d206'
p2236
(dp2237
g4
I20
sg5
I9
ssS'8b874f7dfeee1792293fe10fe6435bf381ec7d6a'
p2238
(dp2239
g4
I47
sg5
I3
ssS'5dca8e2a591baa0de387fb148046ddd887e2abb2'
p2240
(dp2241
g4
I28
sg5
I1
ssS'28b3b7b966616526b3b8977ae335307b388131f7'
p2242
(dp2243
g4
I3
sg5
I3
ssS'47a17eee2201e7c878ed75cd67c3fdae13dbe8e3'
p2244
(dp2245
g4
I74
sg5
I73
ssS'3471051ab9513a10d57cf2051837bb04b3063acd'
p2246
(dp2247
g4
I5
sg5
I5
ssS'24e5e1278c3e98c0cb1430cd04a3259a44a379bd'
p2248
(dp2249
g4
I37
sg5
I36
ssS'96be1bbc7ede4ce7c221988a3303a5d7dd46b13a'
p2250
(dp2251
g4
I50
sg5
I50
ssS'a799e7ab7f1eeaca7de3fd166d47598f78cf0250'
p2252
(dp2253
g4
I1
sg5
I0
ssS'2c23ddd29f07d8afb0c892bcde19ed5074e90700'
p2254
(dp2255
g4
I62
sg5
I50
ssS'86263c86c07cb47337a2f15174844fb60ed4d2d3'
p2256
(dp2257
g4
I38
sg5
I36
ssS'871c300c17964f7984bd054d2aa44d0bd77a5928'
p2258
(dp2259
g4
I1
sg5
I1
ssS'6490a487a4793c2595c43ce155c33ec18b18304e'
p2260
(dp2261
g4
I19
sg5
I3
ssS'689d969225d8c999eb519cadc1ba43088b53fe5e'
p2262
(dp2263
g4
I3
sg5
I1
ssS'3a0220c7df48b26bacd926c163c05a7d6a8b16a2'
p2264
(dp2265
g4
I20
sg5
I4
ssS'22181e2b6ebaf3f6c4739188fd187069e11c661b'
p2266
(dp2267
g4
I14
sg5
I2
ssS'da6a93df25266de1bb462119df112da2289048bb'
p2268
(dp2269
g4
I40
sg5
I14
ssS'c4f0d9dd4f55887a8420b8085feee55026875bb5'
p2270
(dp2271
g4
I23
sg5
I0
ssS'434f7feb490479fc2000d3214126622b6eb41d97'
p2272
(dp2273
g4
I11
sg5
I48
ssS'4fca58aa59f4bcffd112393f2b3593944e319dd4'
p2274
(dp2275
g4
I2
sg5
I3
ssS'28d96f1ac47b8b48e2bd9d42f8cd4cbb71cdac05'
p2276
(dp2277
g4
I70
sg5
I0
ssS'579ccd51bea9f0e174fa24d8ad5b18032e622e9c'
p2278
(dp2279
g4
I0
sg5
I17
ssS'dcefd4637171f85d843d94658a3170f28dba7794'
p2280
(dp2281
g4
I42
sg5
I31
ssS'e2f48476e242dcee95a6de024c937720c39ed29b'
p2282
(dp2283
g4
I3
sg5
I3
ssS'6cb500b013ed1ff1dd5e617a9db3184c53fa48e7'
p2284
(dp2285
g4
I2
sg5
I2
ssS'fcac8b27e17cdcedf3f0ee0d88ddec5954fca1fa'
p2286
(dp2287
g4
I6
sg5
I4
ssS'586c123478adbc64cdfb99f09f7808d1f4e5aeaf'
p2288
(dp2289
g4
I7
sg5
I2
ssS'385ee740836f37a0bb43847e572ff4d7fabff92d'
p2290
(dp2291
g4
I0
sg5
I0
ssS'50fa4b80dc526eedaf5c878c32c89ad5e054b59e'
p2292
(dp2293
g4
I13
sg5
I2
ssS'9f8e6f074ba7d9d060355a67a22c30a0c2cb44fd'
p2294
(dp2295
g4
I4
sg5
I1
ssS'c6950a34d09f32a907ce1f4199065e07d6f065d0'
p2296
(dp2297
g4
I8
sg5
I0
ssS'ad8c4f0e8c7096ee4ec49394ba6a7cf19b1a132a'
p2298
(dp2299
g4
I26
sg5
I0
ssS'491de0250ce7225e1f37a5a6780bc4b0e4edc127'
p2300
(dp2301
g4
I12
sg5
I19
ssS'77324b934f5707b258db1ae1b604dd9c6b2b2698'
p2302
(dp2303
g4
I1
sg5
I0
ssS'83fbfcbd73c7dec11ee4ac82a9b780faeb3e33e0'
p2304
(dp2305
g4
I0
sg5
I0
ssS'dede475c68e000beac1444210554f40e2f52255f'
p2306
(dp2307
g4
I0
sg5
I0
ssS'c2974bc419b617d2cb25caedd4316d76925cc936'
p2308
(dp2309
g4
I15
sg5
I18
ssS'e305a359a5d6a858a67f6bed14ba3d5fcef6eb40'
p2310
(dp2311
g4
I5
sg5
I0
ssS'3950486e27c67e1dc318446134cca44cc9724dc6'
p2312
(dp2313
g4
I44
sg5
I5
ssS'd9e751663ac50311533fd98b9b9b04863c91282e'
p2314
(dp2315
g4
I47
sg5
I41
ssS'09796d905b54d747ce85cff9285a820384eed6ea'
p2316
(dp2317
g4
I12
sg5
I6
ssS'15d40aca46aa8e68fcb90df4e2e843c394dfcadc'
p2318
(dp2319
g4
I44
sg5
I37
ssS'15ac580ee2dd791c93f90875e70bd7cbfa216058'
p2320
(dp2321
g4
I3
sg5
I1
ssS'62521969008d227747ba771265977b84e29cc93d'
p2322
(dp2323
g4
I7
sg5
I3
ssS'e241e9ef7ab03ef2531f96260d26205a280453c8'
p2324
(dp2325
g4
I22
sg5
I16
ssS'779f24c72a13541f7591c094bdfa02fa1534b1da'
p2326
(dp2327
g4
I6
sg5
I2
ssS'e15d72357706ef2b5d10aced64b0c5749add0599'
p2328
(dp2329
g4
I1
sg5
I3
ssS'9e12d513e9c37d9b17378a420eaa5a22252a9663'
p2330
(dp2331
g4
I2
sg5
I1
ssS'6fe44a8fb89f7605a46b70e77b5a93fc3660c0f4'
p2332
(dp2333
g4
I19
sg5
I3
ssS'4524d67223dac726c787aa5c4324bb661bea66cb'
p2334
(dp2335
g4
I6
sg5
I44
ssS'fe9f8d504b3a4f37f2dc21334412050dd3a67761'
p2336
(dp2337
g4
I37
sg5
I9
ssS'56b2fe9087b378b762e449dca1c7c7753184273f'
p2338
(dp2339
g4
I22
sg5
I2
ssS'974ff96958174bab4708395d451497f4362d54a7'
p2340
(dp2341
g4
I91
sg5
I4
ssS'6e5bd7737b21efc6c3b1ace6e5093fd4c5c45597'
p2342
(dp2343
g4
I343
sg5
I343
ssS'a7d5faec6666b2bec01a99365c1ca7c06f6e5b3f'
p2344
(dp2345
g4
I5
sg5
I2
ssS'47731cf59428185a83745ef0fee58c14b99f42d1'
p2346
(dp2347
g4
I12
sg5
I19
ssS'b4800df26928d412ba57de326d1e4f1ea6163ac7'
p2348
(dp2349
g4
I23
sg5
I2
ssS'eb03fdf578cd05b6e8ce8f6362835039d8657968'
p2350
(dp2351
g4
I72
sg5
I33
ssS'0fc5da8baded0282663f62ae1fa449d453acc7cb'
p2352
(dp2353
g4
I89
sg5
I0
ssS'eced5a1fa3c33dad9b8d69d76140c117b804c705'
p2354
(dp2355
g4
I8
sg5
I1
ssS'3b65cb823ac9a73608067a51f3970d8eed4cd5d1'
p2356
(dp2357
g4
I48
sg5
I10
ssS'516983118834ab320b2e2d7b16c64816be29322b'
p2358
(dp2359
g4
I1
sg5
I0
ssS'1dc5e9a49359a7d59fa7b5645050a1f2c839aa0d'
p2360
(dp2361
g4
I2
sg5
I0
ssS'362dfc0f11b8df1a2420c65d88d955c1b094c891'
p2362
(dp2363
g4
I2
sg5
I8
ssS'e608f465673b3a6b34b7335655ae1b236d13a0e7'
p2364
(dp2365
g4
I0
sg5
I0
ssS'89a5e73ebba2b6149b3ae7269960738b76d8023f'
p2366
(dp2367
g4
I4
sg5
I1
ssS'9b4fcb2cb2add72aaeeed7c9225067cadea2371b'
p2368
(dp2369
g4
I8
sg5
I195
ssS'f43e15e0f6f91bd920f2d336afdad6688932fa0e'
p2370
(dp2371
g4
I204
sg5
I0
ssS'ddb4c3780adf3d4cca72770dcf52de107f044940'
p2372
(dp2373
g4
I26
sg5
I4
ssS'92d9a631611bcdd048b545d59caa21331fec6c8b'
p2374
(dp2375
g4
I0
sg5
I38
ssS'7de71ac6368676f098cdd37ad8d5dffe79a82b10'
p2376
(dp2377
g4
I4
sg5
I1
ssS'7062462e5b26132f5d479bfdaef68222dba0b04b'
p2378
(dp2379
g4
I41
sg5
I1
ssS'ce92a70e5b87b1c2b5ea8da4361e4fd99a63084e'
p2380
(dp2381
g4
I56
sg5
I9
ssS'4ab63a1857ea86c681f6aebfbb12d65133d388c1'
p2382
(dp2383
g4
I1
sg5
I1
ssS'2793dec02f862d03ef23092a03c5f833b795d96d'
p2384
(dp2385
g4
I105
sg5
I4
ssS'481654202ba1e5400b3c75c4d8b71ad911faebb2'
p2386
(dp2387
g4
I6
sg5
I6
ssS'7e60b24b1090bf4751f25066610501f2c4720627'
p2388
(dp2389
g4
I44
sg5
I79
ssS'87ea7bf5ab4fb377878494060f6824ef2acab942'
p2390
(dp2391
g4
I0
sg5
I1
ssS'41a102e0f4091ed18e607f2580fe5f60233ae8e7'
p2392
(dp2393
g4
I192
sg5
I129
ssS'9ff64c05eba629886c4c437731840014ee1f840b'
p2394
(dp2395
g4
I2
sg5
I2
ssS'3c11801b02bb385e70b8c510cff54bacf4f529a8'
p2396
(dp2397
g4
I5
sg5
I6
ssS'76ec3fb4f732c17a37e2ece518fa877aeaa790bc'
p2398
(dp2399
g4
I46
sg5
I49
ssS'69b65500f7655e4341ccff6f174eea432dac7bc3'
p2400
(dp2401
g4
I44
sg5
I0
ssS'3b2a642a2d7a438312f6d0bd30ce7a109bcac240'
p2402
(dp2403
g4
I25
sg5
I22
ssS'fa57bd304f5924586b6c46076c83f1c0f1dc11ee'
p2404
(dp2405
g4
I0
sg5
I1
ssS'49c9dcfd103fdf28b37f686a14be755ed1ff1058'
p2406
(dp2407
g4
I3
sg5
I2
ssS'd65e7cd75d368a075ff271c8320e94ebf2f2d9b1'
p2408
(dp2409
g4
I269
sg5
I218
ssS'b1491b2e6d24b7ee46758cec5aeca1a2ec52f981'
p2410
(dp2411
g4
I15
sg5
I10
ssS'72cb2ddff884b7dc03dd8c8365b260caca4e80d8'
p2412
(dp2413
g4
I23
sg5
I1
ssS'2457ff92c02f7c98f0d488d3d82b3df2c04e367d'
p2414
(dp2415
g4
I49
sg5
I2
ssS'e7f584ce57c76c55d5d1e1f3754be9a9b7018ac0'
p2416
(dp2417
g4
I2
sg5
I2
ssS'fa48604bac2b22dd06e9261ab2b2371569e46c61'
p2418
(dp2419
g4
I31
sg5
I5
ssS'e0d56873c5a8837ca8c11346db368dd33bdab42e'
p2420
(dp2421
g4
I7
sg5
I1
ssS'317c6a6e8aacc1c56dc2fdeaca18dcdcdfd86398'
p2422
(dp2423
g4
I10
sg5
I8
ssS'ec32865ac025104c4bb200e2b6561e8da9b3bb83'
p2424
(dp2425
g4
I121
sg5
I11
ssS'bf50f31227d8bb3e0750fb24f0f6b982d7cc4027'
p2426
(dp2427
g4
I2
sg5
I1
ssS'8bc5d1807664bb5474be7ffee15b9bec9526a8b6'
p2428
(dp2429
g4
I10
sg5
I5
ssS'b5a1cb8ff3255178070caa1178bc52a9055113df'
p2430
(dp2431
g4
I16
sg5
I12
ssS'63fc12da6604f558315fbb7602b82ad1bd21c078'
p2432
(dp2433
g4
I8
sg5
I4
ssS'bdc3ee631b172affb56213b957acbe81b2a0c2d8'
p2434
(dp2435
g4
I2
sg5
I0
ssS'bd5057970b2941e2da843a68490de107c63f958a'
p2436
(dp2437
g4
I1
sg5
I1
ssS'eb477e693f4e8eba11e7bf9180e4419ad2f9c5df'
p2438
(dp2439
g4
I0
sg5
I0
ssS'26277818675efa0aebb2a9eb617d516ced87d283'
p2440
(dp2441
g4
I53
sg5
I7
ssS'10f72783077d5ceaa90944e19e54acb5af9bc0ba'
p2442
(dp2443
g4
I5
sg5
I8
ssS'975cecee7a11c34da5cce5df05571566ac978bda'
p2444
(dp2445
g4
I12
sg5
I5
ssS'460ed96d06bf2b1c1c3167a6f6336312657fca00'
p2446
(dp2447
g4
I1
sg5
I0
ssS'e931c49a7a22d0939dfaea6bf55b485afc6448d3'
p2448
(dp2449
g4
I5
sg5
I4
ssS'32c29818821259f9799ebcea91ad54e92c843d1b'
p2450
(dp2451
g4
I0
sg5
I2
ssS'739f62fd426ce9ac6a305a6ff58a48c9d0e7d0dd'
p2452
(dp2453
g4
I25
sg5
I16
ssS'695cf7d57469fefbbab76414e2188c25556d4650'
p2454
(dp2455
g4
I71
sg5
I154
ssS'f28836c5ce16b64e5dea8cbc467d22df7faa586b'
p2456
(dp2457
g4
I9
sg5
I38
ssS'a1874fa7b631d7a4538682ccc8242f489c1f3721'
p2458
(dp2459
g4
I112
sg5
I82
ssS'4aefce4616e48f68b0d222511202fe0db3550888'
p2460
(dp2461
g4
I0
sg5
I20
ssS'0d91bc7550005785b46d920a595e8f793bf30f6b'
p2462
(dp2463
g4
I1
sg5
I3
ssS'7e78c1ed62d1f907134285eeb7795889916ff32d'
p2464
(dp2465
g4
I1
sg5
I0
ssS'92b7e5176d7b49fadfa5cec99c98a4f8c28e45b6'
p2466
(dp2467
g4
I1
sg5
I1
ssS'42c584aa47ff89310744b280336714ab0c39092d'
p2468
(dp2469
g4
I27
sg5
I28
ssS'70804951b18eafe365c9e2b8551ff6a62f738ef8'
p2470
(dp2471
g4
I57
sg5
I19
ssS'9b2b36d6aa61ae17aa32230e36e164384a3b8162'
p2472
(dp2473
g4
I3
sg5
I0
ssS'ab89ca89272a8329051414e381e209cd19c9ca54'
p2474
(dp2475
g4
I5
sg5
I1
ssS'386a880632679c320bc57a3a0b5d4d548d92408b'
p2476
(dp2477
g4
I3
sg5
I2
ssS'7f8285bf99817a1dfda7917542be5a431a3a738c'
p2478
(dp2479
g4
I4
sg5
I0
ssS'af4186a370bf3139f231c1bedcbe7b5cf9f3046b'
p2480
(dp2481
g4
I14
sg5
I2
ssS'c403bc41e2511b534f2dbda5662fb807897eb484'
p2482
(dp2483
g4
I3
sg5
I2
ssS'abc3840521086b2124b5561621ae4bdedf394a9f'
p2484
(dp2485
g4
I5
sg5
I0
ssS'a2f53f58489b7d2669232ea5e0634d710b4152dd'
p2486
(dp2487
g4
I1
sg5
I5
ssS'f8f3f1f45203e93b3436bc3ba26dc2218674ab73'
p2488
(dp2489
g4
I1
sg5
I0
ssS'23dbb7c237fb7cf963c809bd33a3c3d2361a6102'
p2490
(dp2491
g4
I7
sg5
I5
ssS'53ebb724247cbef2355a795afa253823c7cb0579'
p2492
(dp2493
g4
I2
sg5
I1
ssS'19e5185a619a47b857b868b34d787e42206e1bea'
p2494
(dp2495
g4
I19
sg5
I5
ssS'eddab7fd2df1a6c7a99c7c8e739313fa3a4169c8'
p2496
(dp2497
g4
I147
sg5
I0
ssS'b19a46a539edc8b7108add480fbd62445d421188'
p2498
(dp2499
g4
I106
sg5
I0
ssS'0bd84938bb037b70cee901157880df4bf9dd7f87'
p2500
(dp2501
g4
I89
sg5
I4
ssS'af0e3f5658097a21b78e3008854fa02ddbfc0ab3'
p2502
(dp2503
g4
I32
sg5
I0
ssS'd939e51dda17dbe9d7f181b9fea699c77b20512b'
p2504
(dp2505
g4
I10
sg5
I5
ssS'2ec6ae811ff52ed61c43db078b2b84985e45d706'
p2506
(dp2507
g4
I84
sg5
I76
ssS'7f5f10532e26f99139b409323ec380061dd8fab8'
p2508
(dp2509
g4
I1
sg5
I1
ssS'726e6581b623841a4f74792aebef01663f47641f'
p2510
(dp2511
g4
I34
sg5
I48
ssS'11bad6e288e4da559d45110046d380a9d9c54d6f'
p2512
(dp2513
g4
I0
sg5
I0
ssS'5dce31bcbdfedf8b82823ee897b815865e63c38a'
p2514
(dp2515
g4
I17
sg5
I1
ssS'1d0c9785626507643fdb2216071902d4d2d358e9'
p2516
(dp2517
g4
I7
sg5
I1
ssS'1de5f5715a0480f383a1efef0643c5f01a1c2964'
p2518
(dp2519
g4
I15
sg5
I3
ssS'1cb0066ff2df47303d693053feeeb5d9475ce980'
p2520
(dp2521
g4
I1
sg5
I0
ssS'1bfd055441923d806b533eca4676db9408845cf3'
p2522
(dp2523
g4
I50
sg5
I47
ssS'fa89464e61ca7636123c6cd267d3730ea5f61f30'
p2524
(dp2525
g4
I0
sg5
I0
ssS'c3de2291e6c674e4a467563c890736d63e4c9d87'
p2526
(dp2527
g4
I7
sg5
I7
ssS'bd6225143f1861ef1fb558e22153c11e73909c1f'
p2528
(dp2529
g4
I2
sg5
I0
ssS'320d0ae58cde934193f83428fb1149f097a4bec2'
p2530
(dp2531
g4
I1
sg5
I1
ssS'd110bcf2de4b8bc48e41638cf430f17c5714ffbc'
p2532
(dp2533
g4
I24
sg5
I3
ssS'3ea47e58341dee3534b4e24d1094b42e354636ef'
p2534
(dp2535
g4
I1
sg5
I0
ssS'faf2ca0a71ed302086fab2b602000baabebda1d1'
p2536
(dp2537
g4
I24
sg5
I0
ssS'59c7540204a437f05f7391b8906f10d92dc84a63'
p2538
(dp2539
g4
I10
sg5
I4
ssS'16e13e67cd6b79c903cd7042291f49c2661fb1a3'
p2540
(dp2541
g4
I17
sg5
I1
ssS'a387f48ebb3674f7d5359d77a673390ba32ee085'
p2542
(dp2543
g4
I11
sg5
I3
ssS'dc5c28c42a73d091f20d63fe8a6a9014caefda8c'
p2544
(dp2545
g4
I11
sg5
I3
ssS'98f5d9269b638952cb2ef38e2a424af676f5b35a'
p2546
(dp2547
g4
I0
sg5
I0
ssS'f76f6e4e796542fcc6196b5727e802cde0759aa0'
p2548
(dp2549
g4
I3
sg5
I1
ssS'4ffe3abbc1c0d138b803000624b6d20f88fd42ee'
p2550
(dp2551
g4
I5
sg5
I5
ssS'354658a06decf091f9aa42e511d12bd72cea01cc'
p2552
(dp2553
g4
I1
sg5
I1
ssS'13d62e91b318a0e96be977717a8f2f3d73d4bcc6'
p2554
(dp2555
g4
I37
sg5
I38
ssS'b5df0e61a3aa9af80bb512cb3a9707735d39fed8'
p2556
(dp2557
g4
I1
sg5
I0
ssS'a41e674dfb79761dca01dd7f6ad4df3770ee337d'
p2558
(dp2559
g4
I5
sg5
I0
ssS'6f4674b0d8fde3effb5e5ffc3bb2f08e4238c3ba'
p2560
(dp2561
g4
I13
sg5
I2
ssS'bb8f7f0f6a7bf8440b16f5c17724a5b197b5e205'
p2562
(dp2563
g4
I105
sg5
I122
ssS'1aca7ac14eb78a65fa6b6cceb76b3a3e7a9cf711'
p2564
(dp2565
g4
I4
sg5
I6
ssS'5083822149d6545b18325f8577038c422b7c6719'
p2566
(dp2567
g4
I1
sg5
I1
ssS'2066c9fa61a6797ef3ffa891acf0b1e33db41506'
p2568
(dp2569
g4
I1
sg5
I0
ssS'3910d36689c85e15fd4d82d25c2abc521b667818'
p2570
(dp2571
g4
I14
sg5
I12
ssS'1fd67174a0769c467108236362ba53d98753a06c'
p2572
(dp2573
g4
I49
sg5
I54
ssS'a4e3901403aa98c112c268e60d1ed2029d5041d3'
p2574
(dp2575
g4
I18
sg5
I7
ssS'd80f2f5cfbc6baf71ae2aec43563b833c25b637e'
p2576
(dp2577
g4
I2
sg5
I1
ssS'bf8e5410afed79c243466e06c61bc5c994dda00f'
p2578
(dp2579
g4
I3
sg5
I5
ssS'22d5df3a8cac4dbfc4fc7108f5e909d0df0bd8a6'
p2580
(dp2581
g4
I2
sg5
I2
ssS'7192ba41c3e22b12096d5e8946c465b77c6eb347'
p2582
(dp2583
g4
I25
sg5
I32
ssS'6e0c4c11ca742c6df9b7b96f8dc17f72ddf652e9'
p2584
(dp2585
g4
I3
sg5
I3
ssS'41a0c77cab88a54787d49913030bebf482fa014c'
p2586
(dp2587
g4
I3
sg5
I5
ssS'83697ea500e316742897635ea97389f8a7a0c694'
p2588
(dp2589
g4
I44
sg5
I37
ssS'360a81a2dd5ff98ed0b8fc45f899f546a81b6d32'
p2590
(dp2591
g4
I2
sg5
I8
ssS'69041de75ae6b40cc06c90c87276ca77089e67a0'
p2592
(dp2593
g4
I3
sg5
I1
ssS'a978262b5169a63377849088d142dd6b312187e2'
p2594
(dp2595
g4
I114
sg5
I41
ssS'56255971eb9954545e5953b30edc69b6de972122'
p2596
(dp2597
g4
I9
sg5
I17
ssS'0c584a911ae6133a700d1c318587cbe15ef58125'
p2598
(dp2599
g4
I8
sg5
I11
ssS'13fe47ebb5d5a8f8964b79a5bfe87073d2b21b60'
p2600
(dp2601
g4
I1
sg5
I0
ssS'c165de0db2952304d62d62113a2b6cd98f27f456'
p2602
(dp2603
g4
I23
sg5
I0
ssS'409aff824196f4c32e73ae961bdb189f1eae6173'
p2604
(dp2605
g4
I2
sg5
I4
ssS'805e1f799feee267b43d682f455efae7e11b0517'
p2606
(dp2607
g4
I27
sg5
I37
ssS'49e14c536022b0f16888b3096e6d5a462518ceeb'
p2608
(dp2609
g4
I10
sg5
I1
ssS'9600d6e467aa84baa49faee4b7213c71d44d6f0a'
p2610
(dp2611
g4
I30
sg5
I7
ssS'34503f135c853c8ae8a56bf478cc5d5508837b75'
p2612
(dp2613
g4
I5
sg5
I3
ssS'196fd3458e32f0d4ba38a34b9ec8cf786cd50f12'
p2614
(dp2615
g4
I0
sg5
I0
ssS'2444ab4b230d7d466cae383fe2225f4c5c5fe0e0'
p2616
(dp2617
g4
I54
sg5
I1
ssS'b517a25fe08f75ebf5a6856af8c7fd43c26a0c4c'
p2618
(dp2619
g4
I1
sg5
I1
ssS'829d18b7b8c1494c3020e84952071c0b1a2323a4'
p2620
(dp2621
g4
I4
sg5
I3
ssS'26c5c3e1849e814e1a258ad685e18befbb2b54b0'
p2622
(dp2623
g4
I3
sg5
I3
ssS'b069117dec0da305efe9c1da065e49acdbf8888d'
p2624
(dp2625
g4
I0
sg5
I8
ssS'15267a0623a1bc798add06154fb5bf874c067a36'
p2626
(dp2627
g4
I28
sg5
I9
ssS'696fe640b6ad273ccc6affe2f0b878717fdb1e48'
p2628
(dp2629
g4
I1
sg5
I0
ssS'bcd9bfbaa4a2f3562950ea7d4a46336ddbd84372'
p2630
(dp2631
g4
I2
sg5
I2
ssS'14502c5254e47d15c3165147e3cfda62c1cfa964'
p2632
(dp2633
g4
I100
sg5
I77
ssS'ced3d9de8f8bdefd4d99924fda4879b6fa511dde'
p2634
(dp2635
g4
I42
sg5
I2
ssS'e15d7f3457f22f07e7fc7a449198504153c64754'
p2636
(dp2637
g4
I37
sg5
I4
ssS'd3ad058e8c3b03e60d94facecaed468d5b33c516'
p2638
(dp2639
g4
I9
sg5
I7
ssS'f458ad694e1cedb71dd3e5f52c2050d6b406f471'
p2640
(dp2641
g4
I1
sg5
I0
ssS'025c9cc00c537f15f827c7b9698b9e58f8d813bf'
p2642
(dp2643
g4
I37
sg5
I8
ssS'bee310f81739f58cf8568b1e32b0634ff05c8d82'
p2644
(dp2645
g4
I175
sg5
I19
ssS'58b658be265730ebf9e35a9bfa5c95882a951192'
p2646
(dp2647
g4
I16
sg5
I111
ssS'32d79ab7ef80eb56d9ec7cdb2e1e419e7c430097'
p2648
(dp2649
g4
I51
sg5
I10
ssS'fd8a5e4c8b7121b2e054d191779043d6ab7f34d0'
p2650
(dp2651
g4
I14
sg5
I0
ssS'cef0d67e61af3f27b539c7b5492c8723f6787fe2'
p2652
(dp2653
g4
I16
sg5
I3
ssS'38f6d99e811a49ecf7814cebd82d49b40bec90bb'
p2654
(dp2655
g4
I14
sg5
I2
ssS'7b9e7036a4577a6538096d517b081cf060ae78f6'
p2656
(dp2657
g4
I0
sg5
I1
ssS'7aa580e7a1165023adab061534e9414c40adb803'
p2658
(dp2659
g4
I7
sg5
I1
ssS'8ec025fa36c9c627bcdd6da7fab56271731d47eb'
p2660
(dp2661
g4
I56
sg5
I8
ssS'31f21cd2a45be5f8e7d198fb8605b9122051f8e5'
p2662
(dp2663
g4
I22
sg5
I3
ssS'1a3ae545d823189b2fb44a4ba255f4a1a4e3d109'
p2664
(dp2665
g4
I1
sg5
I1
ssS'29922c39dbdcf3ac1ddfaf204e6730758e5d87e1'
p2666
(dp2667
g4
I16
sg5
I5
ssS'a94d1314624be5c09732f5af47df437bf58ecd26'
p2668
(dp2669
g4
I31
sg5
I38
ssS'927527ffc31f381c12a95925be1ffd98976a72d2'
p2670
(dp2671
g4
I4
sg5
I4
ssS'536f3efaaa298115a93fc34a7909c8c4c4260ca9'
p2672
(dp2673
g4
I74
sg5
I49
ssS'e0aadfb79c2e7b577924f717e8458200488c0e32'
p2674
(dp2675
g4
I71
sg5
I0
ssS'25e0960986903a5442d95a1519a4cfcd4a479176'
p2676
(dp2677
g4
I7
sg5
I8
ssS'67225db1ecfbfabb386b4c85a371095786eb127a'
p2678
(dp2679
g4
I7
sg5
I1
ssS'7f9be147ac7399b5d640777bb4946d447f5ebcb3'
p2680
(dp2681
g4
I139
sg5
I138
ssS'caab7d661559dec3583fc1f9013f330d2f350b3b'
p2682
(dp2683
g4
I28
sg5
I4
ssS'dc9c3a4a59c343c84de2fb46f3a55edb969f8530'
p2684
(dp2685
g4
I13
sg5
I2
ssS'dfc2123f55970cc56747a4f8dbcc18bea62dd639'
p2686
(dp2687
g4
I18
sg5
I56
ssS'957735efa408c22a8c6702f42d076d3b3458f9b0'
p2688
(dp2689
g4
I41
sg5
I36
ssS'bb33f156b666712f4f71652736ece9a412298d0a'
p2690
(dp2691
g4
I608
sg5
I133
ssS'4994d925b0f8aeac339abb4f18afa199dd784f75'
p2692
(dp2693
g4
I0
sg5
I0
ssS'3586b1dd3432b27fd15515e1d4afd2421c5c433f'
p2694
(dp2695
g4
I12
sg5
I1
ssS'3fbcf48d8cd9e07cdff74efa60f6b7933eb0bfc2'
p2696
(dp2697
g4
I85
sg5
I100
ssS'5d39c45124f91b5dc4aff6236dea4acba666199e'
p2698
(dp2699
g4
I0
sg5
I0
ssS'dd0fdd0c463310479d6e652ddcb038fedaa97d1f'
p2700
(dp2701
g4
I4
sg5
I24
ssS'82cd36095b2115521c8461c71a5523a73d6b9461'
p2702
(dp2703
g4
I20
sg5
I0
ssS'402d9298ad25d8ddd9f139a2e34b5efc0e72b7a1'
p2704
(dp2705
g4
I381
sg5
I55
ssS'f8a7e95569ad5eee9564e788eedd80a6a72726c8'
p2706
(dp2707
g4
I19
sg5
I22
ssS'b9cb3bd8ba8f22fb9e2917d11c4fe210914d8f92'
p2708
(dp2709
g4
I0
sg5
I0
ssS'2808c3cf65a2660c4c28232ca48501cee7ce57c2'
p2710
(dp2711
g4
I20
sg5
I0
ssS'0ae8fc046952ec2cb56758012873e823f7584c9e'
p2712
(dp2713
g4
I1
sg5
I1
ssS'75041cbb5eeb84a162113eafb813beb008d74963'
p2714
(dp2715
g4
I24
sg5
I4
ssS'222a0f04a76af6358f542f559b15913e521f3ec9'
p2716
(dp2717
g4
I16
sg5
I9
ssS'4e8cd2c99958b9158962454e2ccb552d18896e0a'
p2718
(dp2719
g4
I9
sg5
I1
ssS'e498840fb1952b8c41ed86b975efdc2d33a7cff7'
p2720
(dp2721
g4
I25
sg5
I1
ssS'cf8e176839c071849fd6b5188d42b0f851d520d1'
p2722
(dp2723
g4
I2
sg5
I1
ssS'4a74eabf068918ce449d51d670935b2e189bf20d'
p2724
(dp2725
g4
I31
sg5
I0
ssS'573b900773d249fbb2858c1a19db3f1434abbd42'
p2726
(dp2727
g4
I41
sg5
I1
ssS'1ef45205b0fcbe81f164c270270315f17db1352f'
p2728
(dp2729
g4
I1
sg5
I0
ssS'490583096ca34577e83a0afcce4a30fe03b78f2f'
p2730
(dp2731
g4
I2
sg5
I3
ssS'6099799cb3747e222dc89695b64716f55b0ea981'
p2732
(dp2733
g4
I7
sg5
I7
ssS'a38a3a5f8f85dcf07d482c204a3994bb7017eebd'
p2734
(dp2735
g4
I17
sg5
I17
ssS'24a4ce568c3112913a22cae91a91396822b0cce9'
p2736
(dp2737
g4
I6
sg5
I0
ssS'8797877044b4accea9942cdd94dc3157e6322296'
p2738
(dp2739
g4
I1
sg5
I0
ssS'b3176f3c546126247add99dc2ecdd58516b52b34'
p2740
(dp2741
g4
I9
sg5
I10
ssS'984c9f6969719c1738dc8df11fda896645ff5d19'
p2742
(dp2743
g4
I22
sg5
I19
ssS'6329346e5836e553ab8f96f9d540e907a5d5efdb'
p2744
(dp2745
g4
I1
sg5
I1
ssS'3592657a129019e1b88532da8efaf12a53835a91'
p2746
(dp2747
g4
I1
sg5
I1
ssS'e6b1c9d70f221c1832f1da9d140ff42321530968'
p2748
(dp2749
g4
I2
sg5
I0
ssS'8f393e4b93ded1ec71aa3da07a8bdd67c35cc99c'
p2750
(dp2751
g4
I6
sg5
I4
ssS'261799287afe967a08c8b78eda8cffcf41070b25'
p2752
(dp2753
g4
I14
sg5
I3
ssS'2fe56a4fca03260b6d5a429eed4445716f745e0d'
p2754
(dp2755
g4
I11
sg5
I5
ssS'dff51382354688607a259b28cf0b8611c7c1b5ee'
p2756
(dp2757
g4
I2
sg5
I2
ssS'7e24ff63d4e2a8b029547e205176d989fd054034'
p2758
(dp2759
g4
I58
sg5
I27
ssS'69343a67a50314697b6148ef7495131cb113ea7f'
p2760
(dp2761
g4
I0
sg5
I0
ssS'99974751cd6c7fbb54b8b607f7960bfc188e677e'
p2762
(dp2763
g4
I7
sg5
I4
ssS'ca7e16f74e1715947d3ae652707e48908b2f27b1'
p2764
(dp2765
g4
I80
sg5
I7
ssS'95ce9a2cd967b1ed17222bd1d19a53d3ad843985'
p2766
(dp2767
g4
I1
sg5
I1
ssS'0f580df4b28ea60de24f329fb333f05b4e36cfd3'
p2768
(dp2769
g4
I19
sg5
I1
ssS'cf3d173db56f2081133a8a9d1670c9a6f2c8689c'
p2770
(dp2771
g4
I15
sg5
I17
ssS'b66616ab605fab7d430166753927f2b2954d6cbd'
p2772
(dp2773
g4
I13
sg5
I5
ssS'9e3c9ccbd79b3c1e73c53fdcf16b8f5a99377d91'
p2774
(dp2775
g4
I6
sg5
I2
ssS'786b3db05b7d6d5a49aa94a89593b8bb2a220e10'
p2776
(dp2777
g4
I18
sg5
I4
ssS'7e023e37d581eafedd76bed5d48c17449aa4b7c9'
p2778
(dp2779
g4
I50
sg5
I13
ssS'eee06d06b0420a829de08b91a6e91eb2da1a3166'
p2780
(dp2781
g4
I3
sg5
I3
ssS'a7224b469c27d77a7c960e9136af2c67cecb6ac8'
p2782
(dp2783
g4
I7
sg5
I7
ssS'3c579ec31e996a143df2e33657c30eae0553c576'
p2784
(dp2785
g4
I0
sg5
I0
ssS'7d2885d7854c75efd7ae2576e04c072c6f6b261e'
p2786
(dp2787
g4
I2
sg5
I49
ssS'efb72b8f11528cff73739023b6e2273d5c5b022d'
p2788
(dp2789
g4
I16
sg5
I4
ssS'adbeee2e2b84758d9dfd065f4c5d9810d1594950'
p2790
(dp2791
g4
I18
sg5
I0
ssS'b4f738c7c621c80512c93b58a00b9cb0af092a23'
p2792
(dp2793
g4
I47
sg5
I11
ssS'db5221b2d703ac3eed16706066f121a11ee16bd5'
p2794
(dp2795
g4
I1
sg5
I1
ssS'8ef1977b3876e9f7d158bbbfcb0dd6cabfbf47d8'
p2796
(dp2797
g4
I9
sg5
I9
ssS'23731ff0a3d4b8d4fd9f678d8ba4c00a6df7500a'
p2798
(dp2799
g4
I30
sg5
I12
ssS'741e50193acac6336763ae4fc20e0b1f30f11203'
p2800
(dp2801
g4
I10
sg5
I328
ssS'7eb850fec1ef934c3ca965bd79ef1784a50ba5fc'
p2802
(dp2803
g4
I2
sg5
I3
ssS'206b4f4494e4ac4f5fe98a85381c63da24901970'
p2804
(dp2805
g4
I3742
sg5
I297
ssS'441e188938ffc7065611fbe96898cb9d52701fa2'
p2806
(dp2807
g4
I37
sg5
I461
ssS'8d30f527c35205d30ca435f9c1afb32f4e96de8c'
p2808
(dp2809
g4
I26
sg5
I26
ssS'b0fdfe55e8428f3a9a141f70632607d6bf0d9bb2'
p2810
(dp2811
g4
I2
sg5
I2
ssS'c1e4bfb5ee4e870ade5997312126217db7354b0d'
p2812
(dp2813
g4
I19
sg5
I19
ssS'f9b467c0760002e1268a6f040b5876ad756fe524'
p2814
(dp2815
g4
I13
sg5
I6
ssS'b94b983211b7bd019a70e2e1ab19b9c5fffe141d'
p2816
(dp2817
g4
I58
sg5
I0
ssS'9b425408b3f40f5afad498854b458b557bf532ad'
p2818
(dp2819
g4
I36
sg5
I1
ssS'66d12360591ea2e46f9190c99d32d33b3d09a63d'
p2820
(dp2821
g4
I2
sg5
I1
ssS'ac3e82e9bd8678086325a71a927a06bbc43d415e'
p2822
(dp2823
g4
I73
sg5
I55
ssS'39a761f8b8ea3fb5213c2db047eef2726643b8ee'
p2824
(dp2825
g4
I2
sg5
I1
ssS'5021eeedaf6b45f1fd288ce6b42aa8d34cb709ba'
p2826
(dp2827
g4
I6
sg5
I6
ssS'68efc111d35ab4a1bf31e0c95ee188e019bf3e37'
p2828
(dp2829
g4
I12
sg5
I2
ssS'8abf328539e0e5f1dbafe70b773bfebd28afca77'
p2830
(dp2831
g4
I2342
sg5
I1971
ssS'4dcb033eb06229ece6e0d6084caf28549bb52097'
p2832
(dp2833
g4
I392
sg5
I2
ssS'1602965b4ef3ce54807de425bfc5bb2073d0c4d8'
p2834
(dp2835
g4
I2
sg5
I3
ssS'6dceb642a3876c2bc169f59dfb686435c259cbb1'
p2836
(dp2837
g4
I33
sg5
I12
ssS'd3d9bcbc91dfb60ee88b1a6667db92fd00172d67'
p2838
(dp2839
g4
I207
sg5
I207
ssS'9fcd7480ba412bd49bd072e961683e97c307ef3a'
p2840
(dp2841
g4
I218
sg5
I8
ssS'92129b62bca4bc5ffe281df548ddcffbf9e0ac9f'
p2842
(dp2843
g4
I11
sg5
I6
ssS'e7fe516fca8cac42ed3a6fb4c6c55192c4062cb9'
p2844
(dp2845
g4
I12
sg5
I3
ssS'5a3b55258c3674a8f44c0bdc30c7516ceffd74eb'
p2846
(dp2847
g4
I4
sg5
I2
ssS'b766418ef467fa4c6284713fef487181550ac064'
p2848
(dp2849
g4
I19
sg5
I6
ssS'c29e2ac52a50c52b62c1726d6927e6b80437f6de'
p2850
(dp2851
g4
I1
sg5
I1
ssS'ebdaae2e1ef7b6447927e0471da86885e89e0f78'
p2852
(dp2853
g4
I15
sg5
I0
ssS'c3982af7cd3592aee76b9f7d9a443964592ec4bf'
p2854
(dp2855
g4
I13
sg5
I0
ssS'fee972d79bba2c16e027c7de4f0c4b5d872a714d'
p2856
(dp2857
g4
I3
sg5
I3
ssS'ab497993c0d7a8edd61c4c3c50d5ab249d50e48a'
p2858
(dp2859
g4
I3
sg5
I0
ssS'a2bd8b504115d9d20d620b4657f88050833652d5'
p2860
(dp2861
g4
I8
sg5
I4
ssS'ffc680b293480ad3037f64f212d35b49456d27a2'
p2862
(dp2863
g4
I2
sg5
I0
ssS'9e37f67a7866b52650a289dd0171d45335916b99'
p2864
(dp2865
g4
I0
sg5
I0
ssS'b03b77239045d87e62d36aac3cf91697af090286'
p2866
(dp2867
g4
I18
sg5
I18
ssS'80abd40da687c4719c9e8d4f04c8947dc24c9f0e'
p2868
(dp2869
g4
I9
sg5
I13
ssS'8c725fb10814d57d731616b1b689668a3aff4d7b'
p2870
(dp2871
g4
I2
sg5
I1
ssS'3cb6ffe887497bd37af6dd57ed28b98de102ae65'
p2872
(dp2873
g4
I53
sg5
I52
ssS'0adbb4f00809a2f7a3e61299f8e2c8bd6a816bed'
p2874
(dp2875
g4
I661
sg5
I661
ssS'2cadeaebd227ab907115c4beae29849b3a09aed8'
p2876
(dp2877
g4
I0
sg5
I0
ssS'58d20acfb4ece77271f16b6a6543b61facfa4762'
p2878
(dp2879
g4
I7
sg5
I2
ssS'c8879cc2029b31f1223ddb36907b978f3aebd1ff'
p2880
(dp2881
g4
I16
sg5
I14
ssS'36856a5f1a1c358309cb888d670a898bbfe014cd'
p2882
(dp2883
g4
I4
sg5
I4
ssS'fddcfb5dd4832c82f151a8bba4b8b4c9596126d0'
p2884
(dp2885
g4
I1
sg5
I0
ssS'bc3725a6930824eb6b840b5801b7c62fac75d0d5'
p2886
(dp2887
g4
I27
sg5
I23
ssS'7502df8e288009a52324537c7c3adc517f2d8fed'
p2888
(dp2889
g4
I1
sg5
I1
ssS'6e74cf4827956ab7c2df84b95e3d56a46e20d223'
p2890
(dp2891
g4
I32
sg5
I3
ssS'd3802dd08edd91d75bf39d9941248274ec65fb71'
p2892
(dp2893
g4
I1
sg5
I0
ssS'4824cc633ad4bd3b6477cb621b38790fb3ff75da'
p2894
(dp2895
g4
I26
sg5
I0
ssS'3e4869a60e5b1e4cf9ebfaebd9dfe2586adcf320'
p2896
(dp2897
g4
I132
sg5
I4
ssS'f1b841f0f0e7794d007ef1e81165faf1e42c374c'
p2898
(dp2899
g4
I2
sg5
I2
ssS'602ec7f66c3866ca8044ed4ff2cf9f22f9243822'
p2900
(dp2901
g4
I3
sg5
I3
ssS'2e13d989dbf9a097c679e4e1ca71e59fc9e5524f'
p2902
(dp2903
g4
I75
sg5
I95
ssS'26ba7aab420892e1f03f3838b1c5b67cc9f99a91'
p2904
(dp2905
g4
I8
sg5
I2
ssS'ddd080bdf7bdce0cfe07724207d2ea184212aa0f'
p2906
(dp2907
g4
I9
sg5
I8
ssS'e7c5a99cc8a8f6828d0c7e2cd1293c19a4c9aed9'
p2908
(dp2909
g4
I1
sg5
I1
ssS'2f376caab0fc53db02c4a7179886c344e7dd814c'
p2910
(dp2911
g4
I11
sg5
I11
ssS'923f16f388f50577d524c41e4a3b874772f7d61f'
p2912
(dp2913
g4
I3
sg5
I3
ssS'011cfcf1dca29cedb3032fcb7ae2534ab76e6c0b'
p2914
(dp2915
g4
I0
sg5
I0
ssS'f985a16172f289d4cde5b324fdd38e6e59b72d64'
p2916
(dp2917
g4
I15
sg5
I0
ssS'1c0faa2329eace8099cec54c3d5c1645cb879630'
p2918
(dp2919
g4
I4
sg5
I20
ssS'41aa1086a294c003fb50ef82d9bbbb4e1b17d113'
p2920
(dp2921
g4
I0
sg5
I0
ssS'8fc39027df6b67006a5f0856e3f0869814522330'
p2922
(dp2923
g4
I7
sg5
I0
ssS'51c1ee879f391b0cfa64016c5b3a8ddbb8b55ab6'
p2924
(dp2925
g4
I17
sg5
I0
ssS'454c449ea4d1423d5f9c7a20a27c9e3a5a1404a7'
p2926
(dp2927
g4
I57
sg5
I71
ssS'982e777342ee3effddb0b4907c62453ed91c518d'
p2928
(dp2929
g4
I10
sg5
I5
ssS'cc60d739c5e32561a55ca82a5b452fba4b79b6f6'
p2930
(dp2931
g4
I215
sg5
I18
ssS'dbb87cf7db0124edefab3aa68f2569f86236ebf8'
p2932
(dp2933
g4
I1
sg5
I1
ssS'653e89d04baff8fba4ce3add0457c27e5dc32d81'
p2934
(dp2935
g4
I20
sg5
I16
ssS'1b943acfb8ede52a1e7251c81e13b727fc42da0b'
p2936
(dp2937
g4
I1
sg5
I1
ssS'ebeb9ef360ababc9b7b5b46488fa1bdd80bb4e61'
p2938
(dp2939
g4
I31
sg5
I14
ssS'd802f3242eec1ae2341b9ea019f801107a5f08e8'
p2940
(dp2941
g4
I8
sg5
I8
ssS'c5a587f1a894975845f05cece930b65f432e38fa'
p2942
(dp2943
g4
I36
sg5
I7
ssS'632f61b2d181dc7e9fe922965ae111f76444f407'
p2944
(dp2945
g4
I43
sg5
I3
ssS'2ea4dfbdbad28b51ee51c9050af0dff025b62cef'
p2946
(dp2947
g4
I25
sg5
I0
ssS'7bfb5e83b162d2126c9929b6d863724176269b6d'
p2948
(dp2949
g4
I2
sg5
I2
ssS'e09802e9b976642c086faa7c57fadaffc6bcfd94'
p2950
(dp2951
g4
I4
sg5
I3
ssS'b9dc9c0006fad5f53404b9a674c1e14d19073bfb'
p2952
(dp2953
g4
I39
sg5
I0
ssS'6b93a161956ac2d91b2f3b4f88e4cde5cadb1ab4'
p2954
(dp2955
g4
I4
sg5
I0
ssS'9527b030bc58ee4c5c32bb9d97126bfbeb79afdf'
p2956
(dp2957
g4
I1670
sg5
I1648
ssS'3ef9b6c7c46966f90463e9e6f09ab1f6c4e691c7'
p2958
(dp2959
g4
I3
sg5
I20
ssS'2a0023a1299ebeb7814d26f40024f7544961e9cf'
p2960
(dp2961
g4
I4
sg5
I5
ssS'e46c2238d1188cd0d3a270516ffbe85a845f8928'
p2962
(dp2963
g4
I2
sg5
I0
ssS'4077f9a81dc9125b32cb25f6abf5905ad5e2df04'
p2964
(dp2965
g4
I5
sg5
I0
ssS'033b797d4357cd77f2eabfb544921c4c26c38d17'
p2966
(dp2967
g4
I13
sg5
I8
ssS'b7f26474486c4eb25bd903864c35ad31dd6b9292'
p2968
(dp2969
g4
I4
sg5
I0
ssS'd0b5acdfebcdda5c949584c32a8cbc0f31d5cf25'
p2970
(dp2971
g4
I1
sg5
I4
ssS'143223c00ca3cf56f96ed7f0a7bcfcadedf7c181'
p2972
(dp2973
g4
I12
sg5
I1
ssS'2d2df6ef93772693f82ea132d38fffafc0d4886c'
p2974
(dp2975
g4
I1
sg5
I1
ssS'1ce036d0e4a8f5db257aaf3e2dc810ea33b1a39a'
p2976
(dp2977
g4
I4
sg5
I2
ssS'22722a563be489993abacca214d3b231ff249e36'
p2978
(dp2979
g4
I2
sg5
I2
ssS'cbe90eb90cec7de08e37bc0e79253fc70d2abbea'
p2980
(dp2981
g4
I5
sg5
I4
ssS'7bbae9019bd7474f66aa2ab878cbe3565f6dd516'
p2982
(dp2983
g4
I5
sg5
I5
ssS'fe10f8726eedc0f4bfa4b2aad898489db4221120'
p2984
(dp2985
g4
I1
sg5
I1
ssS'a4522cf7115a3a1e7cc714d4446cd1a226dab480'
p2986
(dp2987
g4
I90
sg5
I3
ssS'0d408f6cb9ab6b1072597123154040b265aaada2'
p2988
(dp2989
g4
I2
sg5
I9
ssS'a71332002adabe8fdb7536c96da00d40b630cdf2'
p2990
(dp2991
g4
I12
sg5
I11
ssS'd1cfb559d5944e6116df435d179b9cf3bc791a91'
p2992
(dp2993
g4
I13
sg5
I20
ssS'7e14e8859d00833d6b304307c42a997dca8347b0'
p2994
(dp2995
g4
I0
sg5
I33
ssS'65d88ad62128b838089051ad729782b2b67643b1'
p2996
(dp2997
g4
I0
sg5
I0
ssS'9acb34a890f19509b78f3b17376b977672f7c1fc'
p2998
(dp2999
g4
I1
sg5
I1
ssS'ae0507568126e2b75fac7909806a6d4846cad0cc'
p3000
(dp3001
g4
I1
sg5
I11
ssS'ca49e5aecc1bf0f556527dc80b176cf0385a8a7d'
p3002
(dp3003
g4
I1
sg5
I0
ssS'c04f962a6c166c49885698910cd55cdc8d0678f7'
p3004
(dp3005
g4
I0
sg5
I0
ssS'892aa090a539ba5f97772f8af459c0ac36e3cb14'
p3006
(dp3007
g4
I4
sg5
I5
ssS'f2d11a2251f17479da72a71b645dd4aae7f10d65'
p3008
(dp3009
g4
I11
sg5
I0
ssS'63d6e01d9670bf857346046993ebf23c62b3534b'
p3010
(dp3011
g4
I26
sg5
I2
ssS'3e9d8e5bfac1ec9287c75cd8e1754d1749a2aa48'
p3012
(dp3013
g4
I5
sg5
I1
ssS'd622c7f249e211fa8469283cd9ce221f87cbf26b'
p3014
(dp3015
g4
I11
sg5
I11
ssS'cda1d5c20bd30334df07ebd0cdceb796b7e2af34'
p3016
(dp3017
g4
I34
sg5
I6
ssS'a3786d6edc8dd57d24f7f847e2d2b4b55dda2caa'
p3018
(dp3019
g4
I16
sg5
I0
ssS'a8cac9e97d7dd8e9e540240775240bbd552af914'
p3020
(dp3021
g4
I1
sg5
I0
ssS'fa8afbebfb9442c23e13bcda6f1f93411936e3b0'
p3022
(dp3023
g4
I11
sg5
I1
ssS'97c3f5dddd151494effe5150663f83c71e77354c'
p3024
(dp3025
g4
I47
sg5
I14
ssS'cda9dc4ad0e2cc075553d133dd0fdab468d614d7'
p3026
(dp3027
g4
I2
sg5
I1
ssS'0a9d9ae43791213da38dd669802d6f5632cc447b'
p3028
(dp3029
g4
I1
sg5
I1
ssS'39fdd0de8bca4264c7329aa3de947bbc99432a0d'
p3030
(dp3031
g4
I36
sg5
I13
ssS'8c3ce1817c23b2461a6ea5626f92214050f3f936'
p3032
(dp3033
g4
I0
sg5
I1
ssS'c363a4f5ea187e7a11b04fcbae74f72ffb66eac2'
p3034
(dp3035
g4
I5
sg5
I1
ssS'2a68684744693e6fa3ed2064ac6a31e30377ac42'
p3036
(dp3037
g4
I7
sg5
I2
ssS'1e71a650d592cee9a829244ab2ed207cc6a9ddab'
p3038
(dp3039
g4
I10
sg5
I12
ssS'f293a83d04ae5471b8e974aa994af062ebb3116b'
p3040
(dp3041
g4
I32
sg5
I28
ssS'ddf3926618305cbd0964bd0654a2bd1568205e51'
p3042
(dp3043
g4
I1
sg5
I1
ssS'1715cb1a4892d1edb088d842e29d33219f070558'
p3044
(dp3045
g4
I40
sg5
I1
ssS'b0a68ff25f6d01910b969fa95b4e611b72c48f59'
p3046
(dp3047
g4
I80
sg5
I4
ssS'd223b425ef20dbe133971dd364991623692945a6'
p3048
(dp3049
g4
I1
sg5
I1
ssS'0f47d84443b7e459eb23afeee9bc0e5c02e4560c'
p3050
(dp3051
g4
I0
sg5
I1
ssS'44c584702ed7ae46ac50a8accf55b5a2698505d3'
p3052
(dp3053
g4
I1
sg5
I30
ssS'256f14f6c0c9cf1a1c84ae0b1fd038123fb41586'
p3054
(dp3055
g4
I11
sg5
I13
ssS'378ce876960987b0ad3dc83bdfe803718c96f605'
p3056
(dp3057
g4
I10
sg5
I8
ssS'7ef2825be4eaf208df22226de3419ec591553bdf'
p3058
(dp3059
g4
I211
sg5
I1
ssS'6fa9f3d235f92e1b4f37f947fb475cd6ae7b6375'
p3060
(dp3061
g4
I10
sg5
I3
ssS'9e066881ffaacc4df1d7d470df0324ea57ee5aff'
p3062
(dp3063
g4
I1
sg5
I1
ssS'e556fa2424be3df11c92a18548ea868004e8adb8'
p3064
(dp3065
g4
I3
sg5
I4
ssS'94ee18738092cd150a0ca41d86121638d0390cac'
p3066
(dp3067
g4
I12
sg5
I8
ssS'0653f464058d36b599848f3c3d5de4dcd8f869ab'
p3068
(dp3069
g4
I5
sg5
I1
ssS'ea1f3c714637ee810c169345c678520caa4b0456'
p3070
(dp3071
g4
I75
sg5
I39
ssS'19dc09cab4fd36f036174aa33ea967e07bab96c8'
p3072
(dp3073
g4
I0
sg5
I3
ssS'53b38e74e90a13e2f40d202f39904c1e5f2fadda'
p3074
(dp3075
g4
I22
sg5
I0
ssS'f5cb10b553086ed8fc49cf0213418a8469e1c5c8'
p3076
(dp3077
g4
I11
sg5
I212
ssS'fdb061ed3b5104c06366dd13eacd449b9032ed0c'
p3078
(dp3079
g4
I13
sg5
I10
ssS'2fb5a5694dd57cf94ce56b7929a627283eec41bd'
p3080
(dp3081
g4
I10
sg5
I0
ssS'2e8c48123419e4aafc91e1f35bc9b3f35541cb68'
p3082
(dp3083
g4
I1077
sg5
I70
ssS'85517b01e745ef0e1b8bd6603fd0305ac4567902'
p3084
(dp3085
g4
I10
sg5
I5
ssS'4fb746350ad957b3e9f44d9410fe8b04ac6fb3fe'
p3086
(dp3087
g4
I7
sg5
I13
ssS'35bfe023ac0dc796585f01b59018449c68cfb83d'
p3088
(dp3089
g4
I23
sg5
I1
ssS'9e65cf919eaeba6fb5c4e9b823b9d429be7fa0eb'
p3090
(dp3091
g4
I2
sg5
I1
ssS'9427929322c30b7640523c4611c72717904227cc'
p3092
(dp3093
g4
I38
sg5
I38
ssS'f7ef0d9e62d30015e5d978bca7aee844564069b9'
p3094
(dp3095
g4
I6
sg5
I1
ssS'040ce065183bc2545f5b71e03f686dd08d03bccf'
p3096
(dp3097
g4
I8
sg5
I5
ssS'f4dcfca7263b085cb14c88fd3be6b928d9fe0704'
p3098
(dp3099
g4
I2
sg5
I1
ssS'fffbcac19d3f073550823fe233d2294fdb3ba7c5'
p3100
(dp3101
g4
I266
sg5
I258
ssS'd93fed3b4b233e9294f9d38edb00d965e1cf3325'
p3102
(dp3103
g4
I33
sg5
I69
ssS'6d886c1d78f0aaee65aa3443a5763f4214a00dc2'
p3104
(dp3105
g4
I0
sg5
I0
ssS'ae6981362b3c696fc831a1dd3c78515cfb53f8af'
p3106
(dp3107
g4
I4
sg5
I0
ssS'5e09987dae3ba174fc0b6a5e64f3cf242b63a836'
p3108
(dp3109
g4
I3
sg5
I3
ssS'5c66024331500205f55080e79ab1402d49bfb3fb'
p3110
(dp3111
g4
I33
sg5
I23
ssS'346ab431e3348d8af8b82e13685156019f07d78f'
p3112
(dp3113
g4
I17
sg5
I2
ssS'267ed99da4f0482d4a964fc98dc6ad14d4bf77cb'
p3114
(dp3115
g4
I31
sg5
I55
ssS'e56ab1ea46bbea42ae2514237fc2f7edc914ebf2'
p3116
(dp3117
g4
I13
sg5
I8
ssS'72adcb766f6ba1911ff13be7fc624650f5952c4f'
p3118
(dp3119
g4
I17
sg5
I7
ssS'fc5c916b68953364f03df49918c1a4c6218f4601'
p3120
(dp3121
g4
I19
sg5
I8
ssS'e1b66de78193b910707b665f1623d67dde86ac2f'
p3122
(dp3123
g4
I95
sg5
I2
ssS'db7ea8451a98b437ee635e99d83944f2a9d3acc2'
p3124
(dp3125
g4
I0
sg5
I0
ssS'd44fe26af14e049bb82f09a7c008ca00cb95b860'
p3126
(dp3127
g4
I1
sg5
I4
ssS'0cfa2ee15094154c323db8d28fb25fde6c2363ef'
p3128
(dp3129
g4
I2
sg5
I1
ssS'dd818a5d9f0b4c66dd78e0291c265a71ac59ea58'
p3130
(dp3131
g4
I1
sg5
I11
ssS'570939bfa6a9a4fc294770bc63ec0bebea99cf95'
p3132
(dp3133
g4
I6
sg5
I3
ssS'fdbbafb781d93fb452e3d72d3e2d881899ac98fd'
p3134
(dp3135
g4
I2
sg5
I0
ssS'38723d055dab450a4f7ed808614104d7d701fb99'
p3136
(dp3137
g4
I17
sg5
I6
ssS'84fc589494c8148bef2cee129e3356daa152e382'
p3138
(dp3139
g4
I93
sg5
I68
ssS'a598f9a04aacece6e86248993999ffacd5d0634d'
p3140
(dp3141
g4
I1
sg5
I1
ssS'477b5ee2a3d0594504ca9fc2fe0f0f9cbeccd01b'
p3142
(dp3143
g4
I14706
sg5
I14742
ssS'af0121dd62d033491c15bdc2d40bb9166c2335b2'
p3144
(dp3145
g4
I1
sg5
I0
ssS'dedb0fc5fb17855928adb682a829aff10bbbb92d'
p3146
(dp3147
g4
I2
sg5
I2
ssS'7fca037b165f065a0c09f0eb59435f275771678a'
p3148
(dp3149
g4
I17
sg5
I17
ssS'a70b0d60efb4cd77b057480dacd870ceebdd9084'
p3150
(dp3151
g4
I1
sg5
I0
ssS'479a8ee987e2d75489cd2e6c2849d1bc7c3c1ec4'
p3152
(dp3153
g4
I6
sg5
I5
ssS'84e339ea6d65a2597068700814c073d66871b33a'
p3154
(dp3155
g4
I1
sg5
I1
ssS'515a38f8bfba3c4e59892f98018121848b8924a1'
p3156
(dp3157
g4
I51
sg5
I32
ssS'ce60927f99f49791af24644a9e674fd39146e858'
p3158
(dp3159
g4
I0
sg5
I8
ssS'fea0076c211dc1ba718b08e9e6e0f917ab0dbc20'
p3160
(dp3161
g4
I2
sg5
I7
ssS'cd08d8724ec41f4630b143a62f0d4e5479ab0607'
p3162
(dp3163
g4
I71
sg5
I6
ssS'8a5120a0b27d76a8569c07d47b811c407e291080'
p3164
(dp3165
g4
I1
sg5
I1
ssS'ec4ce3ab0dc8d3e48867ccdc3d928d2486d59599'
p3166
(dp3167
g4
I110
sg5
I42
ssS'd5ab86bbe2baf4a07d0f3fc00a8b6389ffd6d2d2'
p3168
(dp3169
g4
I16
sg5
I1
ssS'6be37a84801ce92e283a9b2820f4322021d4786d'
p3170
(dp3171
g4
I17
sg5
I4
ssS'143353b04f0da46dbbc9cf71dd2999ec497645df'
p3172
(dp3173
g4
I3
sg5
I3
ssS'01c8b0e3b980e6d9a343b75e98a1ad0e5b5bee84'
p3174
(dp3175
g4
I15
sg5
I3
ssS'bd176e6e891aaed722f85fa0180e555c98c9823b'
p3176
(dp3177
g4
I16
sg5
I3
ssS'480e6d53210b4c160b4347cbb4987d92842a5c45'
p3178
(dp3179
g4
I16
sg5
I0
ssS'6ee97e80c164b543c05935e96b3ac7fb3284c300'
p3180
(dp3181
g4
I0
sg5
I0
ssS'9ae7562f92f13aceda2b5c0389dd37955ca9e066'
p3182
(dp3183
g4
I31
sg5
I27
ssS'f85f5be10e3b6061a38d6e6e39a942c212f2358f'
p3184
(dp3185
g4
I0
sg5
I17
ssS'8d17e5b89dd9996de4fb308ea1d60038b315dd07'
p3186
(dp3187
g4
I13
sg5
I10
ssS'e1ed150407b1a14d07371d654516a685867735cf'
p3188
(dp3189
g4
I23
sg5
I22
ssS'48072a8b4223734ce084200c0496c0bed60d8f4c'
p3190
(dp3191
g4
I1
sg5
I2
ssS'462af82a642c437fd113b3be487c28bb435f3ac8'
p3192
(dp3193
g4
I61
sg5
I5
ssS'72b944561f45370c50bc91a558ee28fcadeac839'
p3194
(dp3195
g4
I19
sg5
I15
ssS'c639f03b302dda84825061ba35a68e2037f4c951'
p3196
(dp3197
g4
I9
sg5
I0
ssS'aad942e0c263e7f745f486fd77da51551f5ea71a'
p3198
(dp3199
g4
I1
sg5
I0
ssS'48063025fe56a5c2683a5f9f269aed30a4a71dbf'
p3200
(dp3201
g4
I1
sg5
I1
ssS'54e9d81866989389dc19bac1a103764421f35b4f'
p3202
(dp3203
g4
I2
sg5
I0
ssS'fc6e8a520c80909c206d817c48d76af332648523'
p3204
(dp3205
g4
I1
sg5
I1
ssS'31b062e6a35340be66ee47aeab9a2135cd04ce27'
p3206
(dp3207
g4
I1
sg5
I0
ssS'd0fbbc462a8c3520a59cf72c694a1ed26c88eafb'
p3208
(dp3209
g4
I2
sg5
I0
ssS'1851f372f12e162e74664b5b43ee8dbaa3813f7e'
p3210
(dp3211
g4
I0
sg5
I0
ssS'82142837563bb867a0c613738ea0719a5b5e9d80'
p3212
(dp3213
g4
I18
sg5
I9
ssS'ea2c98310d103dfa9bf596d9c54a873e401356cf'
p3214
(dp3215
g4
I17
sg5
I8
ssS'd1d39ddfc70ddb0fce9ab7795f5ffb1085cf0069'
p3216
(dp3217
g4
I14
sg5
I14
ssS'c275490891316c2ea9d395b6477f040fd98c63ab'
p3218
(dp3219
g4
I5
sg5
I5
ssS'c943c1d98f2c9b38f6319fb17d75af34bdf256c2'
p3220
(dp3221
g4
I1
sg5
I1
ssS'03f3ea786885d794d3cdeaa82df4ce36d60d68e1'
p3222
(dp3223
g4
I16
sg5
I0
ssS'8f81d3701ff7f277a32ea571468ad6d972e64470'
p3224
(dp3225
g4
I61
sg5
I0
ssS'b791f43548cb4069d3c6f81d4a475540ebe60a58'
p3226
(dp3227
g4
I1
sg5
I1
ssS'eb06d27fc1abcbb6e7466f4b03d4b286ccfb8121'
p3228
(dp3229
g4
I0
sg5
I0
ssS'70ebf75c07f2c93360263897fb463cf5d2380848'
p3230
(dp3231
g4
I1
sg5
I0
ssS'6c224ce95ce1c5b1c6e6209d620313a09caf0491'
p3232
(dp3233
g4
I26
sg5
I1
ssS'05357ec3a8bcc8c70c69eb6d89f2a8b9a5b5a634'
p3234
(dp3235
g4
I0
sg5
I5
ssS'f6757ce0b81f0db3a216a15f36c77c0c92f2b8ce'
p3236
(dp3237
g4
I6
sg5
I2
ssS'28f7720b4b1957adde9ca97fdb1e633b5ec3b100'
p3238
(dp3239
g4
I15
sg5
I2
ssS'2d7a87b404761c8493b1aa23963a21b553511455'
p3240
(dp3241
g4
I3
sg5
I0
ssS'6ac08a007866ae11d8f398245dfc05cee806b236'
p3242
(dp3243
g4
I43
sg5
I42
ssS'6aaf4b3373de16a10f6f981782129c9665644f51'
p3244
(dp3245
g4
I8
sg5
I4
ssS'6b59dfa123bb3cfb7474ba321f3ea813bf07e3c8'
p3246
(dp3247
g4
I11
sg5
I13
ssS'af8c25383d12952fc3a1a04509cf6f914174d0ce'
p3248
(dp3249
g4
I4
sg5
I3
ssS'a5573655fadb9a0dda989a737b13c8718cf801fa'
p3250
(dp3251
g4
I0
sg5
I0
ssS'f79eb19b03d509b007bf6641048c06fa05540b67'
p3252
(dp3253
g4
I56
sg5
I43
ssS'3f128de0ba6e2273cb0f0fda5343a0d724fbb827'
p3254
(dp3255
g4
I14
sg5
I37
ssS'374f1301ea6678d04011a629343d703534960bb4'
p3256
(dp3257
g4
I1
sg5
I0
ssS'f19c445cf15e40d383ea7bff70b00242a4686691'
p3258
(dp3259
g4
I26
sg5
I50
ssS'240a0268fa57fecba83686f43e80cfbd1490424d'
p3260
(dp3261
g4
I2
sg5
I2
ssS'4ad973131db13205aec86eff4bdbfdeff190b8c8'
p3262
(dp3263
g4
I32
sg5
I34
ssS'dab9f6f138256792df18aee8217e77b1c979068a'
p3264
(dp3265
g4
I1
sg5
I1
ssS'11a308e0212d45b0d24b3384d39e8c0e6f5b254f'
p3266
(dp3267
g4
I0
sg5
I0
ssS'24a6624acc5d4c63109be78e0874d8cdf7117656'
p3268
(dp3269
g4
I1
sg5
I3
ssS'2b71d191001f8adc96ae0edd03a4fb3367376a9c'
p3270
(dp3271
g4
I3
sg5
I1
ssS'b83323454ac16a1a137450acac1983e27468e6ac'
p3272
(dp3273
g4
I1
sg5
I1
ssS'ef5069bec5663622a33f0071206fc8a50b732fdf'
p3274
(dp3275
g4
I151
sg5
I9
ssS'83ae53c8d3fb82c2e376610d5b19109674e93a05'
p3276
(dp3277
g4
I1
sg5
I1
ssS'7a17ba37ce7a52fc82069814507c9fb65787368b'
p3278
(dp3279
g4
I59
sg5
I3
ssS'31d927b66dd52d2861dbfd47d8793e1d16490be9'
p3280
(dp3281
g4
I2
sg5
I1
ssS'5f77186d9301a1509410748616885cf85962e462'
p3282
(dp3283
g4
I4
sg5
I3
ssS'f827b42355c1971b7344d407901d1d7a513cf9cc'
p3284
(dp3285
g4
I94
sg5
I1
ssS'7f59a6102182d40b765cc9058c3bbf8c9c8d0079'
p3286
(dp3287
g4
I61
sg5
I4
ssS'109dc2640c1e01a83f8076b52321bcdec033af08'
p3288
(dp3289
g4
I4
sg5
I4
ssS'296184150ce01a12c6598585a24dc6f7fcdc45bc'
p3290
(dp3291
g4
I1
sg5
I1
ssS'39bca36401136c3489332b053530b49cef9662e9'
p3292
(dp3293
g4
I38
sg5
I8
ssS'cf5e65dcb14798d10166f2e56c8c06a1217a613e'
p3294
(dp3295
g4
I0
sg5
I1
ssS'69785463e45d8600bf8cced31be26baa8e0e5404'
p3296
(dp3297
g4
I2
sg5
I0
ssS'b2cf945f7cdd02628d15f8e69fcb8aade6604558'
p3298
(dp3299
g4
I5
sg5
I3
ssS'4d42b7b4cfd05629d0a704a514ade8a30da09c8b'
p3300
(dp3301
g4
I41
sg5
I2
ssS'9d090ce96e3f3177708d792613fd66f343309bc0'
p3302
(dp3303
g4
I24
sg5
I1
ssS'0421f6558f7acd1ff10f66249f443af1fc22a518'
p3304
(dp3305
g4
I35
sg5
I42
ssS'a6775279b2006fb6f27a0fbb86a35262020e550f'
p3306
(dp3307
g4
I57
sg5
I22
ssS'209ac5e51f3a7d1ee8f07dad17b6d35cba70137b'
p3308
(dp3309
g4
I16
sg5
I0
ssS'd5be6c1926d6fa02b49b320faee5edb1e04f9fae'
p3310
(dp3311
g4
I17
sg5
I8
ssS'58f6de8ae99a134a6880105d5da33290451fb67c'
p3312
(dp3313
g4
I98
sg5
I11
ssS'0b9211efae4ca1b29559a81ae82aed6f0a42d262'
p3314
(dp3315
g4
I0
sg5
I0
ssS'c1a86392878950b51b05bdbd655fee9828949a3b'
p3316
(dp3317
g4
I24
sg5
I24
ssS'645b0ce18fdb082112da1e6e6c78bf681f2c5af6'
p3318
(dp3319
g4
I23
sg5
I4
ssS'f7c086284ac028e59c3dcffc674a5b6ed47c086e'
p3320
(dp3321
g4
I16
sg5
I9
ssS'872a87ae09603674f5173b6c551ab171e899693b'
p3322
(dp3323
g4
I30
sg5
I9
ssS'60ffd2a62a327289dc915a2ff9401ff38285cbe8'
p3324
(dp3325
g4
I175
sg5
I353
ssS'ca96ad7fa177c50159da3244c3922f9d334d3ba2'
p3326
(dp3327
g4
I2
sg5
I1
ssS'36cfe6846b316ae35c1a229de295d7f702b69614'
p3328
(dp3329
g4
I18
sg5
I0
ssS'1527165f2b2324aff85bdca7d33bab37534829ed'
p3330
(dp3331
g4
I36
sg5
I6
ssS'503a1c5b75bf3ff62506653a8696b5cedd55f536'
p3332
(dp3333
g4
I1
sg5
I1
ssS'eb879f79ce08c6ab0c122dbc7e8b717fc7010c2b'
p3334
(dp3335
g4
I5
sg5
I3
ssS'59664a4f325772118f9a7f6b4e38696d3211cde6'
p3336
(dp3337
g4
I1
sg5
I0
ssS'401631ff4e15b37f763e15e9d6be8c791194bfa8'
p3338
(dp3339
g4
I67
sg5
I12
ssS'fafb97934e7121ddd0e1426ac164f1a2158f3f2e'
p3340
(dp3341
g4
I13
sg5
I4
ssS'42cb54487a993b61ab6c9a70100f09e16ea51bab'
p3342
(dp3343
g4
I71
sg5
I11
ssS'663da9ca37bd4292d292919ec6e3f10e663d13ab'
p3344
(dp3345
g4
I2
sg5
I2
ssS'9f2d2fa0d07faee617acaa840809e8954fb64627'
p3346
(dp3347
g4
I4
sg5
I3
ssS'2a7730321badeea31a2742d454aa2780f281ab37'
p3348
(dp3349
g4
I7
sg5
I1
ssS'641b51c84a6271543a8bb45d27aea963bda119a1'
p3350
(dp3351
g4
I53
sg5
I78
ssS'6643172162d6f06963ef02bdf200731cb30a0c8c'
p3352
(dp3353
g4
I37
sg5
I3
ssS'2a9fac63ae0f8a7d47a8c593f7e31e28e11865e6'
p3354
(dp3355
g4
I9
sg5
I2
ssS'0758b049e10d7cbe95dd55a922656298f2122c6d'
p3356
(dp3357
g4
I23
sg5
I25
ssS'0398f79f554bb963944c8c2a053af075d7b87941'
p3358
(dp3359
g4
I22
sg5
I13
ssS'f6e38fa0349e1407b273134f7289c94eedbe8889'
p3360
(dp3361
g4
I18
sg5
I3
ssS'11886551cfdcf969f0a661f8ab63c1fa1a6dd399'
p3362
(dp3363
g4
I38
sg5
I6
ssS'b019aed4d3831f321d77ba3b40ae997f55e50301'
p3364
(dp3365
g4
I4
sg5
I2
ssS'ff4d9f48ab3bf59939a917cd95d6433ac827cf8e'
p3366
(dp3367
g4
I0
sg5
I0
ssS'42cccc0b87261c1f9659a0afe03536c3c3a3734d'
p3368
(dp3369
g4
I1
sg5
I1
ssS'79dc5ed3a1de105fdcd32060e94aa31657bfb2cf'
p3370
(dp3371
g4
I32
sg5
I8
ssS'3fc6f0048df6f0c6900896d88bbf8dc7f5b06836'
p3372
(dp3373
g4
I266
sg5
I265
ssS'215f5df431c2d213bfeb250f575dbec806678149'
p3374
(dp3375
g4
I20
sg5
I3
ssS'76759105d52a7600a56c34aff0f57b1d7ab710a3'
p3376
(dp3377
g4
I146
sg5
I7
ssS'a9e5aa99d683f8e7daebbc065bb363290cd9580e'
p3378
(dp3379
g4
I0
sg5
I0
ssS'26fe1fad35707c03677c63b5d947fe67aad7e48e'
p3380
(dp3381
g4
I1
sg5
I19
ssS'6069c07821751586b6e13e0f34ea6c2a92705723'
p3382
(dp3383
g4
I16
sg5
I0
ssS'cd39af0ef8fb8c1d4f9c9c3cfe2cdf86760ef09a'
p3384
(dp3385
g4
I573
sg5
I564
ssS'a103a4687a98c3e9fab8dea79f42f74065673219'
p3386
(dp3387
g4
I0
sg5
I0
ssS'7fe6eff8b7bec34bf04226fae8e68bad11900e42'
p3388
(dp3389
g4
I178
sg5
I50
ssS'155a65f2872fbe870e08505209f9f890264f564d'
p3390
(dp3391
g4
I0
sg5
I0
ssS'179594db3d8f91a7b506dcee8a0adfde5df3eec8'
p3392
(dp3393
g4
I9
sg5
I0
ssS'c58fe3bd95ee5035f364377062342df901410192'
p3394
(dp3395
g4
I14
sg5
I14
ssS'89eaec7549dd358ee0e223c38925dabf33a71143'
p3396
(dp3397
g4
I8
sg5
I6
ssS'90d83aab32afe1dc9ac9651efb1994b17d22ca37'
p3398
(dp3399
g4
I56
sg5
I20
ssS'5be7030e9f546b88e0204fbac7de2419e8fd1754'
p3400
(dp3401
g4
I1
sg5
I0
ssS'26b13aaabaf9ef3cd4e94913d03b8ca397cda13f'
p3402
(dp3403
g4
I11
sg5
I49
ssS'04aeb4eba1a14c04060e3e94089e4084de2cbd77'
p3404
(dp3405
g4
I4
sg5
I3
ssS'6fcae3c779991e1277ab27de27c0142751578ce9'
p3406
(dp3407
g4
I1
sg5
I1
ssS'788bb41c9eb1078237724933e3d33ca98419c41f'
p3408
(dp3409
g4
I9
sg5
I2
ssS'c3a6e1f8eb0fdf8c236d26de70d7a18e453d1df1'
p3410
(dp3411
g4
I87
sg5
I2
ssS'0106a6f7c677b68166e914fb3d138769cee12498'
p3412
(dp3413
g4
I1
sg5
I1
ssS'6c459025809092ff6cab20a073c6cb039f21e17f'
p3414
(dp3415
g4
I6
sg5
I3
ssS'f5d2b0108fad46fbb26861f2f29b206bd7c4005b'
p3416
(dp3417
g4
I5
sg5
I1
ssS'a71f853825c707c2b160424ebb8cc74d7aa48952'
p3418
(dp3419
g4
I16
sg5
I6
ssS'b9254514cbaac0cbd2cec8d1d4070d30b7a84dac'
p3420
(dp3421
g4
I13
sg5
I1
ssS'dd4c51f7bf27617cc4ade8f34ef78d8c9ddde2f5'
p3422
(dp3423
g4
I1
sg5
I1
ssS'071dc35be425fdb7a33c8296eb09682a82a75960'
p3424
(dp3425
g4
I8
sg5
I8
ssS'c6734674fdc4f37a168dd80cf202587ab6c83ad7'
p3426
(dp3427
g4
I4
sg5
I69
ssS'093593a42b502e1741e2f88d8744092c19887e72'
p3428
(dp3429
g4
I2
sg5
I4
ssS'29eddee404cf7726629295ade8f4ccd41583dad5'
p3430
(dp3431
g4
I0
sg5
I0
ssS'ea956b782ee9296e2ddd77aa0a63a051e5f1ff17'
p3432
(dp3433
g4
I12
sg5
I3
ssS'cc82173edccce5db67908e0a248c7b7c8f4166f2'
p3434
(dp3435
g4
I0
sg5
I21
ssS'64cc6f43d6e411abdb98a6436168ca6e563db504'
p3436
(dp3437
g4
I16
sg5
I10
ssS'f0b791418cf528307d6aede7cd1e998a79216e8f'
p3438
(dp3439
g4
I0
sg5
I9
ssS'a5c7c11d1fb5c5ce2095ddaa7d199eeeaaf10f9b'
p3440
(dp3441
g4
I3
sg5
I0
ssS'04292fa253f27116175b224eb2ed5b5d9b278f7f'
p3442
(dp3443
g4
I2
sg5
I5
ssS'3c5e69c0af5196e8e28b5fdaf7b6ad530291d87d'
p3444
(dp3445
g4
I7
sg5
I1
ssS'd8a0484049c86d49a1a596ef4bbda7084e1a7d40'
p3446
(dp3447
g4
I0
sg5
I0
ssS'e8d6515c15f4cc14113a9cba4ee60ebc463b70cb'
p3448
(dp3449
g4
I13
sg5
I12
ssS'a1f71d6f1c39ee8b3130105e6ceb224dd9ffc78a'
p3450
(dp3451
g4
I0
sg5
I0
ssS'8152a52b1f17c5c838b7cc1687b074afa051817f'
p3452
(dp3453
g4
I17
sg5
I1
ssS'd689f81af7e1760e0d38b55b4c676c351e75a3ea'
p3454
(dp3455
g4
I11
sg5
I0
ssS'24c1fb27e7cc025748e2e8406939c5bff82f13b0'
p3456
(dp3457
g4
I8
sg5
I5
ssS'328fa2e1b8d6e7a0dde737308b98e24249b36bd0'
p3458
(dp3459
g4
I0
sg5
I0
ssS'290b8359fbb4960b479798e6dbb53b7a1afba773'
p3460
(dp3461
g4
I0
sg5
I0
ssS'20fec97948c53cb61e01a7ce0569f708082ff8e2'
p3462
(dp3463
g4
I19
sg5
I2
ssS'845d6cc7e3794f92ae65c480285b3a0670d0d1da'
p3464
(dp3465
g4
I7
sg5
I1
ssS'48b2a7ccd271a0584c344c88928bcdbed335ceb8'
p3466
(dp3467
g4
I11
sg5
I14
ssS'476a0c264158dbe158c9a09706060c9265365bf6'
p3468
(dp3469
g4
I0
sg5
I0
ssS'621b279e63fa62334b753f74736e36d363b70ccd'
p3470
(dp3471
g4
I19
sg5
I31
ssS'be0d03c9ca3b89400ec896752e9e1fc220ae593f'
p3472
(dp3473
g4
I14
sg5
I3
ssS'97d85fd9851b2a82c0932f1e23af9307bff1879b'
p3474
(dp3475
g4
I13
sg5
I10
ssS'7bc1c0efee0f361fcd7d2042a440ba5fecb67f2a'
p3476
(dp3477
g4
I13
sg5
I7
ssS'950739b820902f9dc33160d0aad23fffdd8d5441'
p3478
(dp3479
g4
I25
sg5
I3
ssS'a5825d8072d8745dd9e301bdf6f4f1548087be7f'
p3480
(dp3481
g4
I3
sg5
I1
ssS'8ff5f7ed4041dcffbc265d8a50345c34581dd6e5'
p3482
(dp3483
g4
I1
sg5
I1
ssS'e9ddb83591ba90c1c9ce049067ee5eb48ead1981'
p3484
(dp3485
g4
I52
sg5
I35
ssS'47f2c71b8868e8c70056fc71938fb413fbce5a47'
p3486
(dp3487
g4
I0
sg5
I0
ssS'412614cf37145d56a0c9caf2d131d40cbea5e7fe'
p3488
(dp3489
g4
I2
sg5
I1
ssS'fb9de009d05656e580528fb86e0d2d13ce1c104b'
p3490
(dp3491
g4
I304
sg5
I323
ssS'9bac12c6d5bc33e01a67980ddf9c3fb7eb3c09e1'
p3492
(dp3493
g4
I176
sg5
I0
ssS'b8b28f0a31e57edfdd31c9026c1d04e181d0f4b5'
p3494
(dp3495
g4
I5
sg5
I1
ssS'46dc65e8fdb2cfa2b254ad824a5b072808df6bad'
p3496
(dp3497
g4
I1
sg5
I1
ssS'45f6bd332eb480f78707f57d2014b58f35aefdd5'
p3498
(dp3499
g4
I1
sg5
I6
ssS'235d2a18b0bf345c04d54dbcd4443f202231e253'
p3500
(dp3501
g4
I65
sg5
I11
ssS'7fe17123d663788de91441e32d50baf0458f4e5a'
p3502
(dp3503
g4
I56
sg5
I5
ssS'f4bb870e8f5a072804107b10ac8f9b6ebe0b12df'
p3504
(dp3505
g4
I5
sg5
I2
ssS'4db19dddf4110b7ae380efc83be5e489ba922884'
p3506
(dp3507
g4
I13
sg5
I1
ssS'c545eec3bdb7b5a82cf13f6abc4b47caaa278ac0'
p3508
(dp3509
g4
I19
sg5
I3
ssS'80b938b1272424f2e937861e210e9f92dd519e03'
p3510
(dp3511
g4
I721
sg5
I616
ssS'0af2571f46c92e31569f2829a78c9ca90716343e'
p3512
(dp3513
g4
I21
sg5
I23
ssS'1d36a2b30403fc71fb8c4803caae3cdd4d6ffb74'
p3514
(dp3515
g4
I3
sg5
I2
ssS'1f6e4d633932f938224dbdf40fb29efb41ba0c10'
p3516
(dp3517
g4
I1
sg5
I0
ssS'416bfee13f588210483de5d102df48ab83d70391'
p3518
(dp3519
g4
I9
sg5
I8
ssS'adf6bebd18e93599fb1188440876f97eb3ac6786'
p3520
(dp3521
g4
I12
sg5
I2
ssS'9a32f50ca14360d63e5b5f146b288834a10b5e09'
p3522
(dp3523
g4
I1
sg5
I1
ssS'48ae5588ea98868445fa9774a0c5da8bcd79d821'
p3524
(dp3525
g4
I67
sg5
I0
ssS'82b6c1508a3228a4b3f00c24ce1a4c9d90f36749'
p3526
(dp3527
g4
I107
sg5
I5
ssS'e228063fdc08bfae83a68c1bf1e2f423cf492fed'
p3528
(dp3529
g4
I6
sg5
I4
ssS'ef82ddcffab157d42b0d689ba4cf88ec08b3c692'
p3530
(dp3531
g4
I16
sg5
I2
ssS'5b7da58601276b3ff3dd74261dfb8327511f6c5f'
p3532
(dp3533
g4
I4
sg5
I103
ssS'bbb58cc5f191a461db061530fae0ed83edd49505'
p3534
(dp3535
g4
I1
sg5
I1
ssS'f0271f597c2d75e5e8927c6116a24c365cbdaa12'
p3536
(dp3537
g4
I12
sg5
I4
ssS'8b74c1c07d154ed80a65ea5af7c689870f19c70f'
p3538
(dp3539
g4
I51
sg5
I55
ssS'5308c0f2b05d3742878ae28c36d5fe4b6d52833e'
p3540
(dp3541
g4
I1
sg5
I1
ssS'739b1f509e286413d7e52fcf6cfb7145324710c6'
p3542
(dp3543
g4
I2
sg5
I1
ssS'fad98b55992aca8a25ff1cb0532699c832347424'
p3544
(dp3545
g4
I1
sg5
I0
ssS'51539300dbf6071c963acab72ecb7e52ee5c4e21'
p3546
(dp3547
g4
I7
sg5
I1
ssS'1fc60192e18c45dd5f2d2c7ffa40f2e7659399b6'
p3548
(dp3549
g4
I7
sg5
I2
ssS'a7092cb6c3248ddd2b3330922204fb504bd4accd'
p3550
(dp3551
g4
I45
sg5
I51
ssS'aa04c0be7ff8ae4734f354a0d13707b33916649a'
p3552
(dp3553
g4
I48
sg5
I1
ssS'2e7a4fb6e384bd34575514fb527416f55f0dc2c1'
p3554
(dp3555
g4
I7
sg5
I4
ssS'a4ef77d7b58988fdbf072aac2a6ca6d177d23ec1'
p3556
(dp3557
g4
I6
sg5
I1
ssS'90edc8acdbe2476c4fd79d651aaa5e82e7ed2100'
p3558
(dp3559
g4
I4
sg5
I4
ssS'97e87624bc6f90130ec03d8cceef17fa9159b629'
p3560
(dp3561
g4
I1
sg5
I4
ssS'1602d9989ce74773bd5d7f2d0d76861eb210d227'
p3562
(dp3563
g4
I5
sg5
I4
ssS'439dea370cdb048a0871510dae9818ec7fbaa5c4'
p3564
(dp3565
g4
I2
sg5
I1
ssS'64ea2049c068a1e99bc036a650af94f22c76c796'
p3566
(dp3567
g4
I40
sg5
I131
ssS'4c763efc2dcfe7972f29f276930435fb46d2f091'
p3568
(dp3569
g4
I2
sg5
I1
ssS'3b75bc7254dbccc139635c2b7ccf52b12a8eef19'
p3570
(dp3571
g4
I177
sg5
I0
ssS'cab07fed23090b5964f4744f454837384bc7c112'
p3572
(dp3573
g4
I46
sg5
I47
ssS'ec938b0a86f82a5c1732af6614573aea5b4f0556'
p3574
(dp3575
g4
I12
sg5
I4
ssS'd24bf389227bab39364587762a9eb344eb27d3bb'
p3576
(dp3577
g4
I2
sg5
I0
ssS'32ea15226ef3c3c197d5d0ebd7ccbec38aea376b'
p3578
(dp3579
g4
I0
sg5
I0
ssS'bc29458ac9e5be50f71d95aba725a15ce78b7887'
p3580
(dp3581
g4
I10
sg5
I8
ssS'3104378356fde252168db05dd5a7ffac9183f5d3'
p3582
(dp3583
g4
I52
sg5
I18
ssS'a73ee39ee8abb46d5785f890295aa128766927ed'
p3584
(dp3585
g4
I10
sg5
I12
ssS'f4e7d089a9d2bfa57cee1211825f4666b09567b2'
p3586
(dp3587
g4
I0
sg5
I1
ssS'e592c4398ef1368eca60c0a2f94c9e7e29e1e9cc'
p3588
(dp3589
g4
I104
sg5
I20
ssS'811a115ec550b825ea60b29d9f343c6c65126be8'
p3590
(dp3591
g4
I7
sg5
I6
ssS'5cac2cdb427eed2bb3790154ede1da5577d87660'
p3592
(dp3593
g4
I408
sg5
I200
ssS'fe7022ef14ba57902bda4fc02c356c0d07662c85'
p3594
(dp3595
g4
I36
sg5
I0
ssS'0ef9c937732cc29fdf063f896a090ec10287dea3'
p3596
(dp3597
g4
I16
sg5
I1
ssS'9d26618568c10a131275bc1c91238d22bac088d5'
p3598
(dp3599
g4
I12
sg5
I0
ssS'ee90bd3e2c4ab12f6670f19cef43124d1950e8a3'
p3600
(dp3601
g4
I72
sg5
I61
ssS'49e868601fc9a4fe0384d28daf2855aff49f2b20'
p3602
(dp3603
g4
I13
sg5
I0
ssS'722511f8ced4d95d87e3ac450be56462bd68c58f'
p3604
(dp3605
g4
I2
sg5
I2
ssS'd07b2201b20e01f668afa71f57343dcc563ddfab'
p3606
(dp3607
g4
I40
sg5
I10
ssS'b502edb4284599f806582f6a5d45c872cedd235a'
p3608
(dp3609
g4
I5
sg5
I1
ssS'11187f5a3adb390329b628acf658d11245dc5bfc'
p3610
(dp3611
g4
I4
sg5
I4
ssS'8ce08d4219ffcf7f140a616da2b1f087e7bcb651'
p3612
(dp3613
g4
I5
sg5
I0
ssS'43f27a00205f5b9b4a341a2c2e3f645dffe14904'
p3614
(dp3615
g4
I2
sg5
I0
ssS'3b511138b0ff9b15f3029f09b42314025fd9814f'
p3616
(dp3617
g4
I3
sg5
I3
ssS'8926cc5b29d6c62e7bf29ce03accae1bc91e11c6'
p3618
(dp3619
g4
I8
sg5
I2
ssS'947a015ac1112f2b974f0aeeed13f09ac675eb77'
p3620
(dp3621
g4
I251
sg5
I7
ssS'dad12edb3afc2275f18fc9aeea1e9b483bc85c99'
p3622
(dp3623
g4
I3
sg5
I2
ssS'771966d7b5682fd62fe78dddd36c6e372112d1e1'
p3624
(dp3625
g4
I8
sg5
I6
ssS'e6e527687c34a57cb4411f8be216908cbe370965'
p3626
(dp3627
g4
I26
sg5
I1
ssS'a694b5dc211c707a0ee6ce4e459f2aed47e23bb4'
p3628
(dp3629
g4
I0
sg5
I0
ssS'9c4f0d37b058f52e2624e06087968e3f86b7f780'
p3630
(dp3631
g4
I61
sg5
I26
ssS'ad6e9dd2cd843eb8bab7eee8f9779e2a1a1261e9'
p3632
(dp3633
g4
I149
sg5
I73
ssS'ca2d0c372f58ffae84ee41fdc888a75124aa65ef'
p3634
(dp3635
g4
I18
sg5
I0
ssS'7d1c379c32dec4b7fe162b036a0eacfd81592ba3'
p3636
(dp3637
g4
I111
sg5
I117
ssS'8fee5a129ed320346cce0f2a522ee20792e4c852'
p3638
(dp3639
g4
I22
sg5
I4
ssS'817abfa1a7904102843ff5c2420134d11cf01ebf'
p3640
(dp3641
g4
I1
sg5
I3
ssS'236111323d59b98d3b1a231296273c7d2dfc239a'
p3642
(dp3643
g4
I1
sg5
I1
ssS'eb4cfdf7d5ab13616fda66c17ba3f822d7ef82ac'
p3644
(dp3645
g4
I14
sg5
I3
ssS'96d83666d3b4b04587fc6803ae38ba5b72607de9'
p3646
(dp3647
g4
I1
sg5
I1
ssS'9f8aee71c9b15fa93a55a6f50cb53458bc864c8e'
p3648
(dp3649
g4
I64
sg5
I64
ssS'81a37d033676e3dccaab611bb723cf9eb08ec460'
p3650
(dp3651
g4
I33
sg5
I16
ssS'9dae9fed0713625183ed1c780f93b0023fac92e1'
p3652
(dp3653
g4
I16
sg5
I0
ssS'893bcc5d6e063e512e320122559703e4c1b15811'
p3654
(dp3655
g4
I17
sg5
I1
ssS'dd80a5356ff1ea3adb1154217f1c87746c722401'
p3656
(dp3657
g4
I6
sg5
I7
ssS'61a85fcbb39d7a633635fe5802e0d517a4453394'
p3658
(dp3659
g4
I5
sg5
I2
ssS'9d295ea6bb4850473b84aa0c4575b3d666869719'
p3660
(dp3661
g4
I11
sg5
I11
ssS'be694f811f7df89c4fcc672ef09c0e1fc499cf23'
p3662
(dp3663
g4
I1
sg5
I1
ssS'24d608a0c412c6ec02770361627565f34c3a851f'
p3664
(dp3665
g4
I4
sg5
I0
ssS'57a087f7555dfda286f3bd81c4712d126821306f'
p3666
(dp3667
g4
I8
sg5
I4
ssS'e1e66a66c2ae02b667d85817e48475e73f4f951b'
p3668
(dp3669
g4
I0
sg5
I61
ssS'73721b28765c81764b5aec7bc9dc0b4d43db79d3'
p3670
(dp3671
g4
I42
sg5
I26
ssS'7bdca3882c495ee02a00cac6397fc3d827303464'
p3672
(dp3673
g4
I1
sg5
I0
ssS'3fe2b276e01ca2c09675dffa789b839086f88587'
p3674
(dp3675
g4
I0
sg5
I1
ssS'c7d1bb49f8268e6781289396bbb39def4c0a3134'
p3676
(dp3677
g4
I1
sg5
I1
ssS'1dfcd74a23c67b014052989c69558d4410633f01'
p3678
(dp3679
g4
I4
sg5
I0
ssS'f1da32b6ab1f65d748116a188b8964ac37c0ccec'
p3680
(dp3681
g4
I10
sg5
I0
ssS'9a7cc0159266d0ef9679c37cd5ac7926692f41e7'
p3682
(dp3683
g4
I3
sg5
I3
ssS'712b9ea501fcea3dce78de05e83083bfa31a7510'
p3684
(dp3685
g4
I0
sg5
I178
ssS'70eee287db89d4f9ded5d86123d01c80d78e10d5'
p3686
(dp3687
g4
I155
sg5
I33
ssS'48137d9b3331ed39e740887dca7ee51679640517'
p3688
(dp3689
g4
I67
sg5
I10
ssS'2118b5f1b4fa5612903c3c8b4cb30c1c6b759aa8'
p3690
(dp3691
g4
I1
sg5
I0
ssS'c26264de06f038b7fd41f54ecfbaef4694755814'
p3692
(dp3693
g4
I5
sg5
I0
ssS'e2fb500ca122ca77cca21ff3ef159b5be40b87c4'
p3694
(dp3695
g4
I27
sg5
I1
ssS'58bb9c4ddbd26c179f08444cb4286d627e50b47c'
p3696
(dp3697
g4
I10
sg5
I1
ssS'0f59fea9baf829f2b178bd176878d0cecda90dee'
p3698
(dp3699
g4
I120
sg5
I1
ssS'a1e0abc6d9d7b9c2929774ae00d6c79de60d5289'
p3700
(dp3701
g4
I0
sg5
I1
ssS'0a4c7b22c678f4c16713199111518b8f832ac3d6'
p3702
(dp3703
g4
I8
sg5
I1
ssS'89566d4cb6b32f4a01025b52e929ca439dd81e2a'
p3704
(dp3705
g4
I2
sg5
I370
ssS'433a5b874cb8bff40c26451a75586be512707bab'
p3706
(dp3707
g4
I38
sg5
I34
ssS'31541c11ec78ccecb045d80fcb87ff0b0c696b39'
p3708
(dp3709
g4
I0
sg5
I0
ssS'0b17691a885059f9936c98c0048931daee7ef558'
p3710
(dp3711
g4
I5
sg5
I0
ssS'6193b56b752c81a011419feb026f8fd5d22d8163'
p3712
(dp3713
g4
I8
sg5
I0
ssS'62d9f8debf26f221b0a552600d651f2b24542eef'
p3714
(dp3715
g4
I23
sg5
I0
ssS'eea89b7424b013b0139726c141471a527473c108'
p3716
(dp3717
g4
I13
sg5
I0
ssS'9d94babb2e968c5a343218a48684a9529cbab568'
p3718
(dp3719
g4
I237
sg5
I181
ssS'40f96b34571794b296586f7a1df6602d597e0a2d'
p3720
(dp3721
g4
I11
sg5
I0
ssS'7d8cca3173cdb7bd8137679ce16d1aa55beb4f96'
p3722
(dp3723
g4
I2
sg5
I0
ssS'c7744105ffc547156b9d014909fc2574e6d63f22'
p3724
(dp3725
g4
I26
sg5
I2
ssS'4dfc38b476a4ad1f1f8603f7e6ea58db14951dd9'
p3726
(dp3727
g4
I11
sg5
I10
ssS'590733980d27814aa290312b3ba242781d6529d6'
p3728
(dp3729
g4
I169
sg5
I204
ssS'6700d0d86153d051c1e7c36b86e06408eb93fc38'
p3730
(dp3731
g4
I7
sg5
I1
ssS'4e7d9fee4080d2e0db67a3e0463be8b196e56a95'
p3732
(dp3733
g4
I188
sg5
I9
ssS'b0e4d3f16d3226145c95997f6419cab560ec81c2'
p3734
(dp3735
g4
I43
sg5
I37
ssS'e348d6396a6849cc2b73397dce92c3d1a7921802'
p3736
(dp3737
g4
I22
sg5
I4
ssS'f9fd32902a2920bfb4679bc542f9a11689f38fc1'
p3738
(dp3739
g4
I955
sg5
I41
ssS'be5bca1fd51171bce389f028af3feb89f8a6d034'
p3740
(dp3741
g4
I4
sg5
I4
ssS'3d74bd39cf0066e2712e07c225d65924f6f70d1c'
p3742
(dp3743
g4
I1
sg5
I1
ssS'b4aa50e3fa95cbca2ed6b78a5f7896b942fc393d'
p3744
(dp3745
g4
I4
sg5
I3
ssS'87108e5c35aea7c5b37e1a3eeb35fa52edeff750'
p3746
(dp3747
g4
I43
sg5
I3
ssS'71ab4c8d7bedf563ac4a17a87f4db4ca082102a1'
p3748
(dp3749
g4
I0
sg5
I0
ssS'd2233ed24dbc9da086dafee775eb695c333da324'
p3750
(dp3751
g4
I35
sg5
I39
ssS'9d8800ca5703f364518240016aaed8e5434b2472'
p3752
(dp3753
g4
I8
sg5
I0
ssS'a77489d20c536d3e4c92d637286fa9e7fb626813'
p3754
(dp3755
g4
I5
sg5
I4
ssS'f3b2c768529575e2e0e3f241c474f9383836bfd2'
p3756
(dp3757
g4
I0
sg5
I0
ssS'52ae161026cdc83721d5c4af7d34a9f9131966f7'
p3758
(dp3759
g4
I29
sg5
I5
ssS'684ad5df32f62b1e928430edf6ecb8fdfaee98aa'
p3760
(dp3761
g4
I6
sg5
I16
ssS'ecaabfb7faca38d1e5c4afdeceefd21a552801dd'
p3762
(dp3763
g4
I40
sg5
I2
ssS'd742ec145ec1bbf1024843b295da5af1e54f9ea3'
p3764
(dp3765
g4
I30
sg5
I2
ssS'314ad09be6c99de4e6902fb06fab8cff512a5a23'
p3766
(dp3767
g4
I14
sg5
I1
ssS'c737d8aa9f431b954bfa0b4085821038abfc606b'
p3768
(dp3769
g4
I11
sg5
I10
ssS'6d8a4fd359609daeb0067b37df0250446ba07e4d'
p3770
(dp3771
g4
I2
sg5
I3
ssS'1100458bb85aadbf49ad5c08ec43f75995bac1f5'
p3772
(dp3773
g4
I19
sg5
I20
ssS'988e26b822a31d6c88015de604a4b53aec4717d0'
p3774
(dp3775
g4
I99
sg5
I47
ssS'3f39e88629cb81d4307d1251718feedf633c4b5b'
p3776
(dp3777
g4
I1
sg5
I3
ssS'97a1dcea92a20cbf9f80069f81e73fe043d08516'
p3778
(dp3779
g4
I3
sg5
I1
ssS'6c99c192b93da49a56b98a5888ccfcdb66b2c75d'
p3780
(dp3781
g4
I57
sg5
I63
ssS'55024a5a7907b00450de77decb8ac0d14b68fb33'
p3782
(dp3783
g4
I15
sg5
I14
ssS'47f9f0d9530710dabd9b2ff18a24ed6208848c0a'
p3784
(dp3785
g4
I4
sg5
I0
ssS'0391c3f7e0f84ffb374e7ec9062707b80174290c'
p3786
(dp3787
g4
I223
sg5
I5
ssS'91aca6ca2219b635e602a9c12210f4f523dcef3c'
p3788
(dp3789
g4
I14
sg5
I13
ssS'59a568cd53279fd176826de2d904a469f57a1eea'
p3790
(dp3791
g4
I69
sg5
I0
ssS'cf909524c43015917b36392b7cf5fcc104fafdfb'
p3792
(dp3793
g4
I3
sg5
I2
ssS'7d63b41d5a4b0bff2743b22b238244157e20054d'
p3794
(dp3795
g4
I3
sg5
I2
ssS'b71845b1a454e4abda861ddd99f4767bcc7c4d54'
p3796
(dp3797
g4
I6
sg5
I6
ssS'4cdfc82457a0962c2dcb1ebc2a1129d4e4863170'
p3798
(dp3799
g4
I17
sg5
I15
ssS'7e4353f0c2859fde9f3454ff4f251deb4bb9566b'
p3800
(dp3801
g4
I22
sg5
I7
ssS'87d60c5819b9e56886cbd9a3af5488440bd5f7de'
p3802
(dp3803
g4
I3
sg5
I5
ssS'ecb3de082c77db8493f0cc760209bcc160536b9e'
p3804
(dp3805
g4
I0
sg5
I0
ssS'3a5d8d83c57ef15fae6a5cfc0a2769097090eb32'
p3806
(dp3807
g4
I6
sg5
I2
ssS'febc44c74bbbac0494db8382890898510cc94fc3'
p3808
(dp3809
g4
I6
sg5
I2
ssS'e79a8fc5fdf8a5ea25a56bc28e06e034541e18fd'
p3810
(dp3811
g4
I3
sg5
I3
ssS'd272438213e6235f642d864085b10768b501cade'
p3812
(dp3813
g4
I60
sg5
I1
ssS'44f0065f7cd7224c917573fc7fc7a10c7d91e799'
p3814
(dp3815
g4
I370
sg5
I370
ssS'c8e2d65dad10030fb0d795221b4ec7a6097bb4e6'
p3816
(dp3817
g4
I0
sg5
I0
ssS'9da8e2ad041f750b193bd08c4ec7b483db46e513'
p3818
(dp3819
g4
I8
sg5
I1
ssS'3d463da455e33e7ddc53a295b6a33db7b9e4288b'
p3820
(dp3821
g4
I23
sg5
I2
ssS'4bfaddf6f803fb68ae82e43ec8cd8a78cce558db'
p3822
(dp3823
g4
I3
sg5
I0
ssS'1db8ac401fb68d8d860bc071865f6d880148d7e0'
p3824
(dp3825
g4
I1
sg5
I2
ssS'15e9c4e353f7bb7c4d1df6b4aaefa0d6156e4943'
p3826
(dp3827
g4
I12
sg5
I2
ssS'8c4664e8196db5518cd2288ffa690ae79f9bc493'
p3828
(dp3829
g4
I119
sg5
I70
ssS'0b26a57949bd8594bd4355083eedabe94f83e90d'
p3830
(dp3831
g4
I3
sg5
I1
ssS'a9a6b776c05376d59bf3a456cff870fce7a148c6'
p3832
(dp3833
g4
I1
sg5
I1
ssS'f3a1972f9ad7b26e0fbc250d752d90d78bb0c88d'
p3834
(dp3835
g4
I0
sg5
I2
ssS'45b717c5efa3f1db37a558b2bdebd3516f5b5135'
p3836
(dp3837
g4
I34
sg5
I29
ssS'7f42ca82ea6ff2039c9e100959091c643f688728'
p3838
(dp3839
g4
I1
sg5
I0
ssS'9c0e2aa622a8d8f85fae48d6795b4bfabe1ccaa4'
p3840
(dp3841
g4
I13
sg5
I15
ssS'9141245a2965c249c0fdcc0c5b2e7af4aa9ecaa8'
p3842
(dp3843
g4
I20
sg5
I0
ssS'f49b3d6aceacccf9e1451c181a5fb3d49b78935f'
p3844
(dp3845
g4
I6
sg5
I5
ssS'1b3a23614a3648978e8ed6258280f661caf73690'
p3846
(dp3847
g4
I506
sg5
I245
ssS'28935075abccecdfab3de2e0dd7fdf42cdae9992'
p3848
(dp3849
g4
I2
sg5
I1
ssS'd86326d3cae3058b21968b8d026e94262a3b07f9'
p3850
(dp3851
g4
I4
sg5
I1
ssS'8a71646692b2834eadea65fd0ff840a4e27a3aea'
p3852
(dp3853
g4
I1
sg5
I3
ssS'81eaf2cf9a021e4ac1684a4b67bf11d87d9be3f0'
p3854
(dp3855
g4
I4
sg5
I9
ssS'e484faf3f3e197bc69790619e1a8e587ec2c34dc'
p3856
(dp3857
g4
I40
sg5
I77
ssS'b4d36f2b922509fd15f3fd37829495da2f2c92b6'
p3858
(dp3859
g4
I10
sg5
I0
ssS'5c2bdbb44c6092ca31f9924592ef8dc9ef1ed083'
p3860
(dp3861
g4
I10
sg5
I7
ssS'dc5837fbf93e656ec158b072fa2f9520084eb0d1'
p3862
(dp3863
g4
I43
sg5
I30
ssS'8ab0334f87a0ad60820272b672d93a9ebfe41a10'
p3864
(dp3865
g4
I5
sg5
I4
ssS'48311880746d16b473098ee9ae6d0cb75181d5cc'
p3866
(dp3867
g4
I12
sg5
I24
ssS'8e3b5d62213094977ab95f0ef2d11dae0ba0d98e'
p3868
(dp3869
g4
I9
sg5
I2
ssS'bb6e0b330dbc439295f5435c96a65f7fad3a7574'
p3870
(dp3871
g4
I2
sg5
I2
ssS'813ea6fd7863fcc9f67dcd1deaddd226c12eed77'
p3872
(dp3873
g4
I2
sg5
I3
ssS'ee38728de2375ed2cf04ec6b344c2ca85da07505'
p3874
(dp3875
g4
I1
sg5
I0
ssS'ae223fa514a2178d36da5121a1d87d626cf143fb'
p3876
(dp3877
g4
I11
sg5
I1
ssS'73132467e6511a690d10f5d82e7c69cecfb56c63'
p3878
(dp3879
g4
I0
sg5
I1
ssS'dafc8c716aedb846f3aee4fd13b5d71fcf4430d4'
p3880
(dp3881
g4
I13
sg5
I13
ssS'b875d266d255e4039b6ac4599db9ab0c84af022d'
p3882
(dp3883
g4
I15
sg5
I6
ssS'3dcb8ed17e9dd97ae1c39e5d9f743cf5e46861d1'
p3884
(dp3885
g4
I3
sg5
I4
ssS'e00142f8665c4d9df48d13f4841093ea4bced7cd'
p3886
(dp3887
g4
I22
sg5
I9
ssS'4800e2da897bb5ebabdb59ab70b1797228a79fbb'
p3888
(dp3889
g4
I1
sg5
I1
ssS'38b409accf2568a9e1f948c22ba9a5ab8d6cad14'
p3890
(dp3891
g4
I7
sg5
I7
ssS'7ec66f514de82b7a0b941dfb012403e92ee6e419'
p3892
(dp3893
g4
I2
sg5
I1
ssS'bee28356ae911a585ef3f28d6a5df695490581ed'
p3894
(dp3895
g4
I1
sg5
I0
ssS'30b1e9197a3ceb9d882bb80d998937eb42c69710'
p3896
(dp3897
g4
I31
sg5
I0
ssS'8f893af779865ccd985655c1ba172bddffde1486'
p3898
(dp3899
g4
I2
sg5
I2
ssS'1b25fbaccb69651a11e220fc9e50e86cd3ac8d64'
p3900
(dp3901
g4
I1
sg5
I1
ssS'2f88b3eb44b6e895f45dd45c709e29a8f365e04f'
p3902
(dp3903
g4
I0
sg5
I0
ssS'c6631372e49a3e99e1f85e35f36fcb00dd914529'
p3904
(dp3905
g4
I79
sg5
I63
ssS'379579fb327d88db7bbd669d067d97b0b7af1174'
p3906
(dp3907
g4
I31
sg5
I9
ssS'2feb5d5efe0e44b7c677a4774ea999a05182ea84'
p3908
(dp3909
g4
I2
sg5
I1
ssS'26054ab2b003b13fac7e7f509cec3dff42083ec9'
p3910
(dp3911
g4
I1
sg5
I1
ssS'1467ad2fc844ac35275cec9d715a73a6cc6e4f33'
p3912
(dp3913
g4
I0
sg5
I1
ssS'ae69fcaa8bfd589f45644a09b4ef25be710f801a'
p3914
(dp3915
g4
I47
sg5
I47
ssS'd5b47398e5e321cb74299a8aabc1fa959ca5397b'
p3916
(dp3917
g4
I5
sg5
I5
ssS'4351fb36e059d150ebeb9334dc6047fffbd1c20a'
p3918
(dp3919
g4
I10
sg5
I7
ssS'8112d82466590a50f49edbcc21795243dc11b244'
p3920
(dp3921
g4
I53
sg5
I58
ssS'06995a518498e39ad35573bc8cf9486dfe125700'
p3922
(dp3923
g4
I1876
sg5
I304
ssS'a3c4912cc66e6a042d92491b780eb6355ee4fd49'
p3924
(dp3925
g4
I1
sg5
I1
ssS'31fd52cee82429f55674d3232d2f5c9eb45595af'
p3926
(dp3927
g4
I337
sg5
I236
ssS'f40f50f3cd60c6d5c8e3202e5a8a47e07f864ebc'
p3928
(dp3929
g4
I1
sg5
I1
ssS'78bc8f2e6163461ee15fec53c7d5e28a24507829'
p3930
(dp3931
g4
I33
sg5
I47
ssS'48f1599827ecc948fea50619e0b2725187f298a4'
p3932
(dp3933
g4
I2
sg5
I0
ssS'b3e292683da4d30ec1cb77ae02ddb610df82aadd'
p3934
(dp3935
g4
I38
sg5
I38
ssS'18168efe72de77ef6033340ab38c5de4c10668f1'
p3936
(dp3937
g4
I1
sg5
I2
ssS'9657a5666a998c096da5446d362fdd0685a48299'
p3938
(dp3939
g4
I897
sg5
I552
ssS'677d720fd78572bc0cd9520dc0f6a6f494eb7db8'
p3940
(dp3941
g4
I0
sg5
I2
ssS'0f41127903d544b14b68bee99d8752258b031125'
p3942
(dp3943
g4
I3
sg5
I19
ssS'6f2ec796dd5765f9356482fff5b08a547d9951e9'
p3944
(dp3945
g4
I3
sg5
I1
ssS'48781518fd521b3804733e5c5eb692f540012cb6'
p3946
(dp3947
g4
I4
sg5
I1
ssS'd3bc7c82ad96d7289e663bb3fbd9050ac47a5483'
p3948
(dp3949
g4
I2
sg5
I1
ssS'ea3b7d744c1ae3e6d8121e4d777228f4f4426de1'
p3950
(dp3951
g4
I271
sg5
I0
ssS'e3272214736449a585620c00ebfd80286f3a5500'
p3952
(dp3953
g4
I38
sg5
I0
ssS'92540f3edf27c6c5f7b3c875a62345eff358aa25'
p3954
(dp3955
g4
I225
sg5
I0
ssS'0192992e090f07686b94dbfc6aee819348e0802f'
p3956
(dp3957
g4
I54
sg5
I125
ssS'5cc59dfa6b84d377a289dfce76562bea42259c79'
p3958
(dp3959
g4
I0
sg5
I1
ssS'fb09403ab49b207da3aa9a9b3f738af0085c031e'
p3960
(dp3961
g4
I108
sg5
I4
ssS'798b4f5beb99dede89a432a11732f917691d51b0'
p3962
(dp3963
g4
I1
sg5
I0
ssS'629bddb398245c0cc0c8f93b66e835ce7cc6b718'
p3964
(dp3965
g4
I7
sg5
I6
ssS'153b68a18cc1f0fb9604f1f6a6bdeb90df88f207'
p3966
(dp3967
g4
I1
sg5
I1
ssS'fc3a5964e02ba86565d359a02aaef55d90462dc4'
p3968
(dp3969
g4
I0
sg5
I0
ssS'1f3de3597ac6a60a8eddbad85ec6ef5870cd6e8e'
p3970
(dp3971
g4
I1
sg5
I1
ssS'49bdf8277887ee440ffb57ad92582e1ab1d229ba'
p3972
(dp3973
g4
I4
sg5
I3
ssS'48200b3276dd642c1f2f1c42fd89f39433731609'
p3974
(dp3975
g4
I13
sg5
I6
ssS'b6e07faee478d330d82a8920f5484aee208f4204'
p3976
(dp3977
g4
I9
sg5
I3
ssS'08bbf64ec88f61b785639bf1126cab47d5951505'
p3978
(dp3979
g4
I161
sg5
I1
ssS'9609f63ee0c5cd1f52283fea5d1ae8c184f849b0'
p3980
(dp3981
g4
I3
sg5
I41
ssS'3ff0b47f2637b4da5b5c4f4eb921f769cb11dd26'
p3982
(dp3983
g4
I17
sg5
I19
ssS'5f1220455b6ee85ea4a28f3a4175431949cf847d'
p3984
(dp3985
g4
I6
sg5
I6
ssS'403a13eb005df0c88f1345b4de37af83c1f654b6'
p3986
(dp3987
g4
I21
sg5
I3
ssS'667abe5f90a878550ec6e9f00b6b5dc3254c6f5a'
p3988
(dp3989
g4
I249
sg5
I194
ssS'90704dfbf9a0c21a0169f92f7e1a8ddcfcce186a'
p3990
(dp3991
g4
I2
sg5
I0
ssS'e84e6ed52a188d3753e03b39354edcdd68d666f1'
p3992
(dp3993
g4
I9
sg5
I0
ssS'046ec2d77239635a8c58cfe6cb16b28ab69714d3'
p3994
(dp3995
g4
I15
sg5
I25
ssS'e5633fa2ad81df237b5a4b64a09904ae7ae3895e'
p3996
(dp3997
g4
I202
sg5
I22
ssS'e9c208da68b0dc9b3654ac9fab8b8e38fb44f357'
p3998
(dp3999
g4
I16
sg5
I12
ssS'719515b4246e43e7238f80fa79869bc514faf15a'
p4000
(dp4001
g4
I578
sg5
I2
ssS'0ea46878c067f8d8bba90b847dd5a201fb872fa6'
p4002
(dp4003
g4
I13
sg5
I25
ssS'903d2fbc85aeb14e9dc521c20982ef989fc91b77'
p4004
(dp4005
g4
I15
sg5
I12
ssS'7f263c79e19db7cfc39455e9016c33aa30b02db5'
p4006
(dp4007
g4
I76
sg5
I62
ssS'a92f96d8e1c2540c7b6bc17750df01928f861d0e'
p4008
(dp4009
g4
I39
sg5
I15
ssS'326f84469c40d5f6ca656036f5212bba4ce09c34'
p4010
(dp4011
g4
I7
sg5
I0
ssS'e867e2ee30ea52426c144bac6b5d54077b2b2368'
p4012
(dp4013
g4
I18
sg5
I13
ssS'bf919348a823a573ebbb7c435626172ba21b7c3c'
p4014
(dp4015
g4
I29
sg5
I2
ssS'07229f497338c842daa860b161363b8d1f2175ea'
p4016
(dp4017
g4
I15
sg5
I11
ssS'c889378f70116bc4babbefcde5b467c753b2e807'
p4018
(dp4019
g4
I1
sg5
I1
ssS'3f1c25eb1c9897656bab55b210b00b56af3dcdc2'
p4020
(dp4021
g4
I34
sg5
I0
ssS'8a3b6f56c772b93954a7f9dc83ec07432dab7d79'
p4022
(dp4023
g4
I10
sg5
I0
ssS'47d0a62f1ea54d295386d743b8fbfc8de048e078'
p4024
(dp4025
g4
I0
sg5
I19
ssS'fcc912553a1759f6608c6b2c07a971cd9be5f1a5'
p4026
(dp4027
g4
I15
sg5
I2
ssS'3a626baccb85e1e6dda35a83cc7db069a3d43b12'
p4028
(dp4029
g4
I3
sg5
I6
ssS'ce0be59ad5e233c5c981c96fdb4a3449010e4d8b'
p4030
(dp4031
g4
I5
sg5
I11
ssS'ccb797f42d040d371cce133ab7251721086e7575'
p4032
(dp4033
g4
I3
sg5
I0
ssS'3720745311e75222322d5586fee3d03170104f7d'
p4034
(dp4035
g4
I10
sg5
I12
ssS'6c37319f1c1327627719a855eefc3806671c2160'
p4036
(dp4037
g4
I55
sg5
I4
ssS'558ff686832d1634c1fceac7897524f3c23be502'
p4038
(dp4039
g4
I6
sg5
I1
ssS'e1be847b36ea5d057c11630150799bf06c8192f2'
p4040
(dp4041
g4
I24
sg5
I15
ssS'08c53a9416870b320eae50490dd5ceef0321c580'
p4042
(dp4043
g4
I44
sg5
I0
ssS'bdaa04935b1170ff0768c1acabd6bc77e1e42488'
p4044
(dp4045
g4
I19
sg5
I2
ssS'fd6a2ceb64dced5892af3ee6d72dab1725cd7f95'
p4046
(dp4047
g4
I3
sg5
I9
ssS'2db080a1ea411d124468bac5ddd7f5801f2992c4'
p4048
(dp4049
g4
I6
sg5
I18
ssS'414bcb7c671f17dec543c225e5b9e0b3c726267f'
p4050
(dp4051
g4
I10
sg5
I11
ssS'077579a01c73a9dc5b6ebe9be99fc7343fc9d537'
p4052
(dp4053
g4
I22
sg5
I0
ssS'6f3e3dac14b10a86793aed9003c3110dd1a3ce9f'
p4054
(dp4055
g4
I4
sg5
I0
ssS'331b873c7ff69011297de77ff72d1fbb90758f22'
p4056
(dp4057
g4
I357
sg5
I357
ssS'cc45664f714822e7d6443bf6d2a96d4efdd484fd'
p4058
(dp4059
g4
I37
sg5
I0
ssS'54556be81068cc38e37fb4fcccc126d50de5d405'
p4060
(dp4061
g4
I1354
sg5
I1849
ssS'ceadbe15e3373f96e43a6c0398783a8c14b91eea'
p4062
(dp4063
g4
I2
sg5
I0
ssS'70b05d23a03218cd16bcde339f4ba50dc4a8f27a'
p4064
(dp4065
g4
I23
sg5
I1
ssS'616a5be4d2dee8f16683306ac5bcc62c65c638fd'
p4066
(dp4067
g4
I7
sg5
I57
ssS'2e6e3585ffc0afdd9b4b3e7e80ef53d59f4c2612'
p4068
(dp4069
g4
I0
sg5
I0
ssS'a709fa17650d83d0caea78981e65454cea69f27a'
p4070
(dp4071
g4
I37
sg5
I5
ssS'2e0df240db0cf677b0821371af7c2dfc021452ab'
p4072
(dp4073
g4
I40
sg5
I5
ssS'6fba2eca13450d4949bc2925b3a0f4aa3157d968'
p4074
(dp4075
g4
I103
sg5
I0
ssS'c3a35e56eba274335c448a5eed634f2fa5783893'
p4076
(dp4077
g4
I5
sg5
I3
ssS'428a600c636e28cf77f42fdc961048eb5cfd620c'
p4078
(dp4079
g4
I29
sg5
I20
ssS'9d4e5f00e4e4222ec6e225fc7598245b6329ddc2'
p4080
(dp4081
g4
I1
sg5
I0
ssS'7278409ee6e578c1f40204b062def17d704a08e6'
p4082
(dp4083
g4
I22
sg5
I2
ssS'b8dc84f2fc08bdfd82f852ecb3b98e7cf7547ec9'
p4084
(dp4085
g4
I441
sg5
I437
ssS'2bf7e926b234bf8376a63f672380d2f1ae8eeb8d'
p4086
(dp4087
g4
I160
sg5
I127
ssS'26d4c4de343ba74ae46838a7b4995dc180202652'
p4088
(dp4089
g4
I14
sg5
I0
ssS'fad5973bcd2adcb418f8f501c3d5a08f13409707'
p4090
(dp4091
g4
I0
sg5
I0
ssS'9f7ff47fc512274aaf11e08af8f52cc6bf654100'
p4092
(dp4093
g4
I5
sg5
I5
ssS'90c104bb41603105874362c4d1cc91d4389a9be5'
p4094
(dp4095
g4
I1
sg5
I1
ssS'965f9b34c23db83df403f2d7466be0fc607fbd94'
p4096
(dp4097
g4
I7
sg5
I19
ssS'ed82d0d515da88a8d0b659ac30aec9d245a077d7'
p4098
(dp4099
g4
I0
sg5
I0
ssS'46a54b9eff186b56a4a32b8267e2e4ad2257cc1b'
p4100
(dp4101
g4
I54
sg5
I43
ssS'2938c902aa7da95c4ca38e86165673e8b6dedbce'
p4102
(dp4103
g4
I0
sg5
I6
ssS'3cb28ab8f0b7afcecf06f317d6ec9f3e8b7b5da9'
p4104
(dp4105
g4
I2
sg5
I2
ssS'f2669e25832de281f4a798a97a4bb136f7292648'
p4106
(dp4107
g4
I4
sg5
I1
ssS'6cfe211df3515188ef893afeabbdc25298839302'
p4108
(dp4109
g4
I1
sg5
I1
ssS'a1dcb2d18a65be6034459832c91bc5eacbee3c1e'
p4110
(dp4111
g4
I108
sg5
I36
ssS'bd0b957f0e4b64024847dbc6d9b650d575ee8584'
p4112
(dp4113
g4
I9
sg5
I1
ssS'f5b157f004d4f17d1cf81bcf1fa3f9860d9a92eb'
p4114
(dp4115
g4
I8
sg5
I2
ssS'c51469ffc3a812961a0f546ad7977c6a695a79c0'
p4116
(dp4117
g4
I7
sg5
I0
ssS'2f9dc118e314135f0d684ea30817b318155b9d4c'
p4118
(dp4119
g4
I4
sg5
I1
ssS'666abf4a568618488dfbd14146a1927674056e27'
p4120
(dp4121
g4
I81
sg5
I76
ssS'd052e7e223d32c7afbe8d8a19ff3747025f59982'
p4122
(dp4123
g4
I0
sg5
I0
ssS'749fbf9140215c195ee1658da2bcfd243d7a59e9'
p4124
(dp4125
g4
I2
sg5
I2
ssS'0790b5662730f1678ae9cafd938652d7a3f883dc'
p4126
(dp4127
g4
I8
sg5
I0
ssS'b034963ee5e51b66faa04c9f7bb4a63b65046020'
p4128
(dp4129
g4
I43
sg5
I44
ssS'3fd2d186808aebcc4388d2468317ae9766be80ea'
p4130
(dp4131
g4
I1
sg5
I0
ssS'94520560b047a12b5e277fd73400491e8dc1172d'
p4132
(dp4133
g4
I244
sg5
I216
ssS'c85af9cce2a3115da3dfaa45d61e3be2d1f51ab4'
p4134
(dp4135
g4
I1
sg5
I54
ssS'aa80c6894d0e0396f0b19b8a099e05621f700bc6'
p4136
(dp4137
g4
I2
sg5
I0
ssS'5a9c849d47a296190f7f4167e4422d3e334ed519'
p4138
(dp4139
g4
I3
sg5
I1
ssS'e9fe6cb05b0dc868250a93edf98b8d0a31a39b6e'
p4140
(dp4141
g4
I12
sg5
I0
ssS'39092fc9ddd63abc462532136f28b169331abb0f'
p4142
(dp4143
g4
I2
sg5
I3
ssS'51a0032656216d64d5770a95cba27e7cc246aaf2'
p4144
(dp4145
g4
I1
sg5
I1
ssS'494664168fe9545f0d6b8a8cb1a7d3141383c842'
p4146
(dp4147
g4
I3
sg5
I0
ssS'd50adc982550a95ab43943da715fdf50f9183a9f'
p4148
(dp4149
g4
I4
sg5
I1
ssS'878a5e61470f5ba3cdafa00e0a2a22a49122de22'
p4150
(dp4151
g4
I96
sg5
I52
ssS'22fe1b121351f7a01d70b4146e8603f3ccaa8f08'
p4152
(dp4153
g4
I1
sg5
I0
ssS'70a0a3880add96b6754d2ba38f675031dd418531'
p4154
(dp4155
g4
I0
sg5
I4
ssS'9ee1f58ba91a52148829a781f3bfcff6f659139e'
p4156
(dp4157
g4
I1
sg5
I23
ssS'f749f5a6b71c1e468eea31080afc7e9d7288d031'
p4158
(dp4159
g4
I0
sg5
I1
ssS'eafbf498897724534f550336d843ddb3feeb2591'
p4160
(dp4161
g4
I7
sg5
I2
ssS'dce072e7bd83d3553a47650b41f2e82c06663da2'
p4162
(dp4163
g4
I1
sg5
I1
ssS'd9e966254f371804952dd804aad056607cc9ea01'
p4164
(dp4165
g4
I2
sg5
I2
ssS'a07a3669e328c528d1153de9ee8c4fb1ddec6826'
p4166
(dp4167
g4
I26
sg5
I22
ssS'8acda2c1adf4f7c073ae2d2d3ef671182ef5137e'
p4168
(dp4169
g4
I1
sg5
I1
ssS'6039b45145e7380dafda2e6aa117e0d34cfd1ba7'
p4170
(dp4171
g4
I3
sg5
I1
ssS'f8c69f357b1849ce3b0fb5b32e823778e110cb46'
p4172
(dp4173
g4
I55
sg5
I14
ssS'8184560b39c985d14405a782bdfd628684be5200'
p4174
(dp4175
g4
I3
sg5
I2
ssS'2b287e9b12a77bc3030ec5115be03deaccbf0e20'
p4176
(dp4177
g4
I10
sg5
I2
ssS'1c5cab5ce9c6bf5c2a161748d03a5fa44a69e15e'
p4178
(dp4179
g4
I52
sg5
I0
ssS'16fb756f57ff43f0a8cf5b379c0dbcf5f576f80a'
p4180
(dp4181
g4
I43
sg5
I0
ssS'becc6f94a4ff8d0859c3a1c3f0a13f65528f84cf'
p4182
(dp4183
g4
I27
sg5
I2
ssS'ddaee4d861130890fe512644e14a87ef7866baa7'
p4184
(dp4185
g4
I55
sg5
I53
ssS'4025b052d02bdcbe2d8da93bccb56e8bcc9ec112'
p4186
(dp4187
g4
I39
sg5
I0
ssS'c585c526fd1455787cefcbf08a735095ff5d7038'
p4188
(dp4189
g4
I7
sg5
I15
ssS'3e6ef99928137a396a6ee9c75351f4194b2471e8'
p4190
(dp4191
g4
I23
sg5
I1
ssS'9138d98458f67719a6c1ee24f8a10f5ac13cf526'
p4192
(dp4193
g4
I9
sg5
I12
ssS'60beb83a9e4c544e6d9a0691812a63a31251e191'
p4194
(dp4195
g4
I1
sg5
I1
ssS'242a537c12af07aae4a1e1cc10fe728bf0ebe36b'
p4196
(dp4197
g4
I280
sg5
I275
ssS'604d3350bdecc014232800d2d9dac0f12bf0fb5d'
p4198
(dp4199
g4
I22
sg5
I5
ssS'83d5bbb3cc7204dc3d2d93e36ae86a61d33d3025'
p4200
(dp4201
g4
I1
sg5
I0
ssS'9bcd4a50572f56aa9b9f78ec78d4bd1a7d330575'
p4202
(dp4203
g4
I1
sg5
I1
ssS'2b30ab777278358f754c6e7e2d5f761f76274d17'
p4204
(dp4205
g4
I63
sg5
I0
ssS'e484101e2a1cae0d2fe13155b7f2337ae271dd7a'
p4206
(dp4207
g4
I22
sg5
I11
ssS'31c0d835f3e67024a8bafefc75202476aa2a040a'
p4208
(dp4209
g4
I0
sg5
I0
ssS'b554b94723b9e0e21e47c4c83c1f41d3fb3a5281'
p4210
(dp4211
g4
I2
sg5
I0
ssS'd5d10fbbde855dd63b229a611ee0e315f65358dd'
p4212
(dp4213
g4
I0
sg5
I0
ssS'6f6e5f5b85a0f61b985d4d6b4116baceb5dbe2bb'
p4214
(dp4215
g4
I0
sg5
I2
ss.