(dp1
S'242911bee64daf6405390137549d5592bdee657a'
p2
(dp3
S'insert'
p4
I0
sS'delete'
p5
I0
ssS'd8a8c1e3b9ec56f4e0aeada53949c67f1cc1e40e'
p6
(dp7
g4
I1
sg5
I1
ssS'0f7cee3e0cf387bf45d89a6630b8bb5a36290294'
p8
(dp9
g4
I13
sg5
I10
ssS'0d57452f9a1ae2455763fee8c7869d07265cdce8'
p10
(dp11
g4
I0
sg5
I0
ssS'9398f481080ffa34276f0da6775afd6989b485ca'
p12
(dp13
g4
I43
sg5
I3
ssS'4efe7ed811d6d8de8583717a9a3c2044b4659fc8'
p14
(dp15
g4
I1
sg5
I1
ssS'a2584cf2372ce29f34c69a02ebe1453be44e9107'
p16
(dp17
g4
I2
sg5
I1
ssS'4d6fbf6831402c8833da0b08ae12552e08bb23ee'
p18
(dp19
g4
I1
sg5
I0
ssS'ba0f800cbb5b13a6a29a9c7c37ea644fb8360663'
p20
(dp21
g4
I82
sg5
I57
ssS'5b88fda678975ac9b9101f5ce82d0e452e83c7b3'
p22
(dp23
g4
I1
sg5
I1
ssS'9da2741962b4407d3cf01e365be37614e5d93140'
p24
(dp25
g4
I28
sg5
I12
ssS'638544f2d293519cd454777e34ef165006c18e7c'
p26
(dp27
g4
I4
sg5
I0
ssS'1285e4bcbdbcf3c28eced497c8585892f3ae1239'
p28
(dp29
g4
I0
sg5
I1
ssS'1d18f5230db255c84f12f37f113c641dd6dd2837'
p30
(dp31
g4
I70
sg5
I11
ssS'63d2f2c0b162b6b5e8f1de5e8f075f56075a3667'
p32
(dp33
g4
I0
sg5
I0
ssS'09c01ecff306c3683bc81ec75a12a365f425e04e'
p34
(dp35
g4
I9
sg5
I2
ssS'8750d138bad6baba9c198c6699efd40792976349'
p36
(dp37
g4
I7
sg5
I3
ssS'288595fcc53f7ad619b584e365b003031bbc88d3'
p38
(dp39
g4
I17
sg5
I304
ssS'd65fc037d3d363e828dfe4bac881ec8c32c804b4'
p40
(dp41
g4
I1
sg5
I0
ssS'085a547a60236b880744853d31a32a20ec13bd01'
p42
(dp43
g4
I1585
sg5
I13
ssS'09f4a78d1543bffc07cfc8055313d1d9efb01b25'
p44
(dp45
g4
I3
sg5
I0
ssS'2a2c8c87c601bd47789af60f33a77b2e77451010'
p46
(dp47
g4
I8
sg5
I8
ssS'd7445026c421172cd1509cee5aaeb56167ca3ae7'
p48
(dp49
g4
I6
sg5
I1
ssS'f133167e58c02d76c6ea2a7bf373bd6ea51aa625'
p50
(dp51
g4
I7552
sg5
I7552
ssS'887f5924807a6134dccd4ba070bc5d40c7e77b5e'
p52
(dp53
g4
I13
sg5
I7
ssS'ed9c58294814d058552a34c68a19c9e699c45638'
p54
(dp55
g4
I0
sg5
I0
ssS'70c91ca23875156a101648ad9c7f4acf64355ef1'
p56
(dp57
g4
I24
sg5
I5
ssS'548bc52a5af253c855f9b2e863abaec47f1fc363'
p58
(dp59
g4
I20
sg5
I21
ssS'55f98f3805b7ee47f467696ca34126513c13506f'
p60
(dp61
g4
I0
sg5
I0
ssS'b84c6837f41e4a591d7d4d2524fa76211a736b0d'
p62
(dp63
g4
I0
sg5
I0
ssS'f385a9f340de22b3679c105ffc4ede3c8e541fe3'
p64
(dp65
g4
I11
sg5
I0
ssS'23f1cf03ff97293663fd3701086a1650d054469f'
p66
(dp67
g4
I6
sg5
I5
ssS'409e549b650a0e0313acefec25bda50a13ce0875'
p68
(dp69
g4
I4
sg5
I1
ssS'e65aa75d56f041e8cb86ec222e9931518b233c94'
p70
(dp71
g4
I5
sg5
I0
ssS'e336278b0bf7f3e5893e75dd30a24f504d1b58c4'
p72
(dp73
g4
I12
sg5
I12
ssS'f6e86696a2a212ec57dc2caf70097276ed5f0227'
p74
(dp75
g4
I2
sg5
I2
ssS'447b6933240e9e2e4ccd0d1b99f7149e4cc13196'
p76
(dp77
g4
I0
sg5
I0
ssS'45224cccf5c85501e0eb19ea5e45b72cb35cd33a'
p78
(dp79
g4
I0
sg5
I0
ssS'3cf95d5eb61109daaba7152a106b14cc87dee973'
p80
(dp81
g4
I0
sg5
I0
ssS'c037efb44aebde18eea4680feb134677c230d38e'
p82
(dp83
g4
I1
sg5
I1
ssS'afbea4d2ea6a71b64d622dd1eb3f87a86203b6e4'
p84
(dp85
g4
I1
sg5
I1
ssS'0c129c93529b133492590708ae92000fa362907f'
p86
(dp87
g4
I35
sg5
I33
ssS'3d7adde9144a94b7178477fb7e9599324c058e27'
p88
(dp89
g4
I1
sg5
I0
ssS'dd99bfdaf20cc540141da15fe20ec61c48423d68'
p90
(dp91
g4
I0
sg5
I0
ssS'cff61485befe1bcd2b1953574252aebcc53c91c2'
p92
(dp93
g4
I10
sg5
I12
ssS'd6fd36d7aee13e340ae3c9861d95acc9c6c641c2'
p94
(dp95
g4
I1
sg5
I1
ssS'c7568769c2939b8d065f27b137b9af1a82f03337'
p96
(dp97
g4
I6
sg5
I6
ssS'5ab626b68c035e0b34a4a4d4d92558796b87a1ec'
p98
(dp99
g4
I5
sg5
I5
ssS'22e033fae49babfeeffe24e2e2dfa720ae7a92e4'
p100
(dp101
g4
I2
sg5
I2
ssS'9bdbdfc13b3f51e1d58c1a26d15f5c52ff4d2f6a'
p102
(dp103
g4
I7
sg5
I7
ssS'a50c4ef35d530b5535dba29cd32007ea6155db44'
p104
(dp105
g4
I62
sg5
I13
ssS'9969ab302d417b5917e533584456ca061432ab10'
p106
(dp107
g4
I0
sg5
I0
ssS'e756d7de4cf173ddb058a35450494f314c3a57f0'
p108
(dp109
g4
I2
sg5
I2
ssS'e736cc92bcaab2346047887e138d8cfe07f5722b'
p110
(dp111
g4
I0
sg5
I0
ssS'54e4a0a83456935065cf95e83cc97fa07c7c8616'
p112
(dp113
g4
I1963
sg5
I14
ssS'45d91b5449b05f1843eb5308d80fe4f429f19500'
p114
(dp115
g4
I7
sg5
I2
ssS'713daa3240fa7d95c6f916dee7923c8e806adfb3'
p116
(dp117
g4
I0
sg5
I0
ssS'3dbc1085f983a5b4cb8fd97cab873d1ca9cdae14'
p118
(dp119
g4
I4
sg5
I2
ssS'10cf37e55b89fb6eb92cf639130dd8dcdc01e7ce'
p120
(dp121
g4
I35
sg5
I2
ssS'57c5e92f4dae1fbf88be37e6599b4b2be9405eba'
p122
(dp123
g4
I1
sg5
I0
ssS'762f12f964c44f46f802f8c85ddf6411a726b6fe'
p124
(dp125
g4
I13
sg5
I6
ssS'f006aad044a6f099e2c20e69a9b285eaed044df9'
p126
(dp127
g4
I2
sg5
I2
ssS'6a2741cc7347ba23fb3ab3870c72be2056b8d4c5'
p128
(dp129
g4
I0
sg5
I0
ssS'c91757764b67601da60160eb6d6b20dd3c8656c1'
p130
(dp131
g4
I1
sg5
I1
ssS'cbb32f47e97397f1376beff94b4fd47a1895495a'
p132
(dp133
g4
I2
sg5
I2
ssS'43b1b4959de7748401953005bb64f2673c7f8213'
p134
(dp135
g4
I239
sg5
I14
ssS'cc1643f7f3582999f1cc6c13b51e39a605937ea3'
p136
(dp137
g4
I106
sg5
I2
ssS'92af4f526ec46b3cf8ceafc74aa74b04960b2bfd'
p138
(dp139
g4
I0
sg5
I0
ssS'5c3cd0a4e3b207f12b179f763de67aed6d8e235c'
p140
(dp141
g4
I31
sg5
I14
ssS'1a283a516e40b52b1ceff4a0410aa6905f932312'
p142
(dp143
g4
I4
sg5
I4
ssS'95dc03e48576fd2474029582ffaf51a5ca0b5ebe'
p144
(dp145
g4
I5
sg5
I5
ssS'a96ca338c9a9669bf4d748a845bbe6099e4f47fb'
p146
(dp147
g4
I1
sg5
I7
ssS'4d224930032082203d4819e19ec18f8a0e810d97'
p148
(dp149
g4
I92
sg5
I83
ssS'8e163840fd575f8ce428efb1d25a427a2f77a005'
p150
(dp151
g4
I9
sg5
I1
ssS'a81b82de0d0c1e799174072bb9ccbb00fcc9a7c4'
p152
(dp153
g4
I2
sg5
I0
ssS'f4ece1308f3dd8bb55a16016607b9d58924607b5'
p154
(dp155
g4
I15
sg5
I0
ssS'19bae9646f0b050818bead9746372c760cf29e62'
p156
(dp157
g4
I7
sg5
I5
ssS'5f67b3c95460950dd0334b092f6f6553d7b85286'
p158
(dp159
g4
I0
sg5
I0
ssS'c4f279983faf541dc503938858a4d8a6d6c12988'
p160
(dp161
g4
I1
sg5
I31
ssS'9add15015594b1e45c86d1edfcb354981adbfb9a'
p162
(dp163
g4
I3
sg5
I0
ssS'81bfd6e89b212dd7780020e4cc6ac2a7cf58c86d'
p164
(dp165
g4
I6
sg5
I1
ssS'd8f9f7078a12cf2c4a65c85255d15a5413f6f279'
p166
(dp167
g4
I19
sg5
I0
ssS'e5321170ac177b75d6d90b639a6a889d9c1f0dd9'
p168
(dp169
g4
I23
sg5
I4
ssS'05fb7bce1692ff8e57ff4fc1be1aaf6edf578d89'
p170
(dp171
g4
I0
sg5
I0
ssS'085d844bfd79ecbf36d957232f88a26ccdbf5ee4'
p172
(dp173
g4
I6
sg5
I0
ssS'a347aedaac7f207c0c012dd406fc2f6262f42e93'
p174
(dp175
g4
I0
sg5
I0
ssS'd4c9cfb978e3f086405645fe86ce62d087251ddd'
p176
(dp177
g4
I0
sg5
I11
ssS'caab6e535527e07256476c0f74b3bba284df0426'
p178
(dp179
g4
I3
sg5
I0
ssS'795c0963790705142ab807b999078279a421c334'
p180
(dp181
g4
I9
sg5
I19
ssS'1e82bb9e72a041199ca2bda018135f2b76328cf8'
p182
(dp183
g4
I156
sg5
I61
ssS'2b4da30c1107ff8c8c72f51ce72e7c043f9e358b'
p184
(dp185
g4
I10
sg5
I5
ssS'bf9cfca4d18ec9f9f3f0df9d31a1d8b02366dbd1'
p186
(dp187
g4
I7
sg5
I2
ssS'b4bd7f06d1622a43c84bcfcb3336ae61b240424b'
p188
(dp189
g4
I14
sg5
I0
ssS'963ddc3b85711d72eacb6a2d7fe709f874787ecd'
p190
(dp191
g4
I1
sg5
I1
ssS'b89e9691e321bc11f30a216f8cd1c18291962aa2'
p192
(dp193
g4
I0
sg5
I0
ssS'0ab00b948be0096cbb71642c27d554b5f3666914'
p194
(dp195
g4
I20
sg5
I0
ssS'93175161527b23fb5418674aa5c04db90d89e18b'
p196
(dp197
g4
I1
sg5
I1
ssS'bc56ab75e28069dbfa51f16699c65a9944d73ca4'
p198
(dp199
g4
I1
sg5
I1
ssS'6c60937c94e0fb6d81fb3f00bccc2fafe9453816'
p200
(dp201
g4
I7
sg5
I0
ssS'90123e2ab37f0bf2ced213743a8f5b3ac3cb3917'
p202
(dp203
g4
I57
sg5
I57
ssS'a5c6f0dd7213d848f63a9e83bb760ffd18511d84'
p204
(dp205
g4
I3
sg5
I0
ssS'560e2e3a368b6b8cada032f933008f198a16e5b0'
p206
(dp207
g4
I2
sg5
I1
ssS'75f47436ad71f81783ba9c916eba43b1f533dfdd'
p208
(dp209
g4
I2
sg5
I1
ssS'59bdcf852ef1bef483217e6615ddd5eaf96f5a73'
p210
(dp211
g4
I3
sg5
I0
ssS'63723b1ff861a505ee4141d59c04d6787439fd95'
p212
(dp213
g4
I0
sg5
I0
ssS'18f991ccd562a376526ccf174a4037dbc206c4a7'
p214
(dp215
g4
I2
sg5
I2
ssS'7f885b74406dfc0e1f63d5b46fa6ee5595a47bd5'
p216
(dp217
g4
I1161
sg5
I543
ssS'40a175409240348c7931ab559d40825cf7a2f8fe'
p218
(dp219
g4
I1
sg5
I0
ssS'097772e06312975406e55c583b637bcd16abc159'
p220
(dp221
g4
I2
sg5
I2
ssS'660d5f8fcca0c4119e89190a2b4c362ec6ea40b5'
p222
(dp223
g4
I0
sg5
I0
ssS'b26fe19992d25634bbe4c3f6c27ba2a2182e51ea'
p224
(dp225
g4
I1
sg5
I0
ssS'0b77fa563fb002076755c678c2f1263d0c04dd10'
p226
(dp227
g4
I0
sg5
I0
ssS'75ea37892d204d8a67216aa1a291b8f6ccb698d1'
p228
(dp229
g4
I2
sg5
I2
ssS'ddd2029d3030f828f29eb158dda0bc35a9f0bc4f'
p230
(dp231
g4
I665
sg5
I5488
ssS'75c484c39911cfec33eb4e90a1f303919cd8fe74'
p232
(dp233
g4
I0
sg5
I0
ssS'98dc8bf2717a75be77f7da062f74fba7bdb5bc45'
p234
(dp235
g4
I0
sg5
I0
ssS'17f59796dab9c05e534d2521141c97e5fefc034e'
p236
(dp237
g4
I6
sg5
I4
ssS'ccd4f4be571f63825700accf6790764e7b41b164'
p238
(dp239
g4
I4
sg5
I1
ssS'2a7e3c6ef8ab878d813c4ffc3153d9c0f7434bc2'
p240
(dp241
g4
I2
sg5
I0
ssS'25fa869ffa59bc826cf91fb10d93685af48e8fc7'
p242
(dp243
g4
I6
sg5
I6
ssS'd1fe3ad3713788eaf5924b502fab19529cb77de0'
p244
(dp245
g4
I22
sg5
I13
ssS'fbb9abd9803ef198b9fc43966e1df6b59e386922'
p246
(dp247
g4
I27
sg5
I0
ssS'e8ba0d1b9af6d9b3933e566fb7f630147e792f72'
p248
(dp249
g4
I213
sg5
I3
ssS'7b470be28ab696e85c80e28824ed1230131432fe'
p250
(dp251
g4
I4
sg5
I10
ssS'4e8d1bfe4b69541e138a5be011a01f9d904c9b6b'
p252
(dp253
g4
I0
sg5
I0
ssS'27dbddcd12805fda2508c193ff30a590fb8a4a8e'
p254
(dp255
g4
I2
sg5
I1
ssS'd75b2058c40530a550c4d6d3a478f865f2d34d5a'
p256
(dp257
g4
I3
sg5
I2
ssS'bb2e97a6f150aa15cf722cf730f147f280227089'
p258
(dp259
g4
I23
sg5
I1
ssS'a2eeb4b7b5770178635164758a9955d42077f169'
p260
(dp261
g4
I1
sg5
I0
ssS'92e3796700b788cb961b3ed18866f1ec6ebb6526'
p262
(dp263
g4
I21
sg5
I4
ssS'd457e5f3ce54ebc3e410d707c320567fc781c5f4'
p264
(dp265
g4
I4
sg5
I2
ssS'1300eb3d1676b51bce9478cb762de9982a866e86'
p266
(dp267
g4
I2
sg5
I2
ssS'3ab503529fbe3cc20bd9e8d449bcae914430ddd8'
p268
(dp269
g4
I107
sg5
I1
ssS'4b842ba1b28c60b692582e64819db24fa9ecdc80'
p270
(dp271
g4
I6
sg5
I7
ssS'6b41b3087594e65a97173dc223e50b02ad0428f4'
p272
(dp273
g4
I0
sg5
I0
ssS'600592d0b58a228bceb1406f552ba28d962c7fc9'
p274
(dp275
g4
I3
sg5
I3
ssS'08842a271bc7dc285bc4b657474bb1ca2a1d7041'
p276
(dp277
g4
I4
sg5
I1
ssS'a8ea73bc75d49d8a36d112c6c97da7ce5a428a25'
p278
(dp279
g4
I0
sg5
I0
ssS'4faa7e4ef741c4bce57c4fa8db2adf5d7c51c3ef'
p280
(dp281
g4
I6
sg5
I0
ssS'8023f8c4d7538181810e06b7c223401fc0c14bb5'
p282
(dp283
g4
I4
sg5
I0
ssS'6b6c099b4186b3af40f40a333284867d6cd4d839'
p284
(dp285
g4
I1
sg5
I0
ssS'4e397eca08af0358f44cfa0cf3180f5bf6a743d2'
p286
(dp287
g4
I109
sg5
I58
ssS'2993cda097979ade20f2500a669c9e37149ae9df'
p288
(dp289
g4
I7
sg5
I3
ssS'915ec398945394c46d304d8c787551b8d3e0e472'
p290
(dp291
g4
I2
sg5
I1
ssS'4c707faa68145739f4862dd407305d22c9dd1969'
p292
(dp293
g4
I2
sg5
I1
ssS'07a4d2256c15a616a92419832f5e4eed540b4e98'
p294
(dp295
g4
I2
sg5
I1
ssS'00829d8fafa5b75eb7316662318ab437642e0010'
p296
(dp297
g4
I39
sg5
I7
ssS'2e6812c3d990f153d239b26f3e69668571f13520'
p298
(dp299
g4
I1
sg5
I0
ssS'23f402d9b6268136c3e316c752ff6c5757d68c1b'
p300
(dp301
g4
I2119
sg5
I0
ssS'ee96422d26e7a65c48ddcd6d207fa2f9da32856b'
p302
(dp303
g4
I3
sg5
I3
ssS'749a57948a5cf59d31b1d4a1cec34f69b2b82bce'
p304
(dp305
g4
I16
sg5
I7
ssS'2a5fce805299eca16133a92df0c832c02341321a'
p306
(dp307
g4
I0
sg5
I2
ssS'55a87d473676963974d9558ddf20de5a9b16644b'
p308
(dp309
g4
I7
sg5
I0
ssS'a0d0f28ec759bc1d83b71fcbd227da897353c0ac'
p310
(dp311
g4
I2
sg5
I0
ssS'bcf6658b2b5d4ce8f1508cf721275a837892e043'
p312
(dp313
g4
I13
sg5
I0
ssS'ac336da64dafa23028e54d5dbe2660b8398b7d7c'
p314
(dp315
g4
I4
sg5
I0
ssS'c047c51ba9f99e641802df4342f120f7b01ca960'
p316
(dp317
g4
I2
sg5
I4
ssS'7606dd7e5fb935c86988318a9589e93d115d42eb'
p318
(dp319
g4
I9
sg5
I0
ssS'afaa4a05068dc109bf13fe4b24da0ec9967005a3'
p320
(dp321
g4
I31
sg5
I3
ssS'313657d0d082b157170de36b6c3d6f8c7d8a783c'
p322
(dp323
g4
I0
sg5
I0
ssS'2b35e7b2a302c8396177d3f44cb998d2b8d715de'
p324
(dp325
g4
I10
sg5
I9
ssS'0b2bdad187da6c665def2c4a57d6963d2fca3b4b'
p326
(dp327
g4
I6
sg5
I1
ssS'be872ce1fa182d59755b614b67cd29e9b5edfcf3'
p328
(dp329
g4
I1
sg5
I1
ssS'717782218aa5bbbfd8dd0d3a246537a1a588cfde'
p330
(dp331
g4
I0
sg5
I0
ssS'85d9ad63496407b391442798b39fbdb72f37b741'
p332
(dp333
g4
I2
sg5
I1
ssS'08fc9db0394e60687145202ecfb04a4a367defc0'
p334
(dp335
g4
I0
sg5
I0
ssS'9235eb5c27c962d72ac2e5a33b647a5086b22bc6'
p336
(dp337
g4
I1
sg5
I0
ssS'f7786b54e86e6897bba66819fbfca91fd44fb13f'
p338
(dp339
g4
I0
sg5
I0
ssS'8e92bb79cca359f2d01af3879a853012d0696fbd'
p340
(dp341
g4
I0
sg5
I0
ssS'635a66546720e109ae1389810726eaad96558975'
p342
(dp343
g4
I17
sg5
I2
ssS'3c94e7d64eebed6b8c94e3b06effc807d90e8839'
p344
(dp345
g4
I11
sg5
I4
ssS'55fb9752311f79c5aa2ecd85c4264ae6821f52da'
p346
(dp347
g4
I20
sg5
I0
ssS'3e82192f3a1cdb38b7eb2da2d0796407ea13018d'
p348
(dp349
g4
I0
sg5
I0
ssS'c47d219b3ab46d9008eb2f8907b2d7743e002589'
p350
(dp351
g4
I25
sg5
I16
ssS'531cb153e41fc82649532daad38d9f262b22d9ee'
p352
(dp353
g4
I15
sg5
I3
ssS'17bf0c1f882bb8efca74fa0d223e166543204cf5'
p354
(dp355
g4
I11
sg5
I1
ssS'6d3137a5be284f1011837fd45074d6ce2b6cb2cd'
p356
(dp357
g4
I1
sg5
I1
ssS'c89e78f764fb0c912ac6c89d4523c048b5a30a66'
p358
(dp359
g4
I38
sg5
I27
ssS'fcf4e5b2eadc964d27d096cbcedd1d871dcbc855'
p360
(dp361
g4
I2
sg5
I2
ssS'ee4196b29f086be52908f5ab44d6a51e2d22a073'
p362
(dp363
g4
I2
sg5
I1
ssS'ec0c1ccb6ca72cd93d9dec7d6e490dddd67d495d'
p364
(dp365
g4
I1
sg5
I1
ssS'f096e51f3c3ddb73f8cb3a3e859bb751d023c39b'
p366
(dp367
g4
I188
sg5
I28
ssS'eb3e2fdf033457bd03a106b9d2f6764e333030f4'
p368
(dp369
g4
I2
sg5
I1
ssS'5fb6b51fb7ec8124bf9a3d45043b4ab02fc0a4af'
p370
(dp371
g4
I6
sg5
I1
ssS'5b9a26bbdae7a264056e92940b5ba6f2135dc85b'
p372
(dp373
g4
I15
sg5
I4
ssS'9636c6f6b68774136d48c8553e383571a112bcdc'
p374
(dp375
g4
I0
sg5
I0
ssS'cdc9b391ce56696138266a4bd9235201ce618b81'
p376
(dp377
g4
I203
sg5
I0
ssS'1f48d73687eeea56f2a1d41b9a2a70271f088f4c'
p378
(dp379
g4
I0
sg5
I0
ssS'd4717c161ea9556bdc64c2589e4ed1d96f4de966'
p380
(dp381
g4
I1
sg5
I0
ssS'a426007267dae9d6f0b253002ca0750106fa72b7'
p382
(dp383
g4
I0
sg5
I0
ssS'a08bd6952f9e2b35c0c988d6a3e09df3c2440940'
p384
(dp385
g4
I2
sg5
I1
ssS'15938aca1208095f394ba19f2e8063865c52d140'
p386
(dp387
g4
I15
sg5
I14
ssS'6625640851aad108a3eda2a0f436aebc2217adb4'
p388
(dp389
g4
I1
sg5
I1
ssS'70874a1de4866f7604d0f62f096d3df652c56833'
p390
(dp391
g4
I14
sg5
I2
ssS'd138696583b4ed61473d27cbc12089583aabfd27'
p392
(dp393
g4
I0
sg5
I0
ssS'4a23c3bb6e8cbfc31ba269f1cb60682250bab366'
p394
(dp395
g4
I2
sg5
I2
ssS'7927bc1628a79f85240e1f23fc260890d9e48444'
p396
(dp397
g4
I0
sg5
I0
ssS'7caf4f9e68625b6ea6c76ee4ae34520f85511f98'
p398
(dp399
g4
I1
sg5
I1
ssS'3340f6aed507a5cbed95b1c698c70a9a692ee4e0'
p400
(dp401
g4
I7
sg5
I1
ssS'3905a0127d7dd4659e5f4d78935cb435feab1407'
p402
(dp403
g4
I8
sg5
I0
ssS'469199123796e6ec4b4c2149a4e1521ba0a472dd'
p404
(dp405
g4
I0
sg5
I0
ssS'6227cc4431ad7e221da62dac18742b2791612bba'
p406
(dp407
g4
I29
sg5
I17
ssS'a040499398c2d7dfe27f4bbd9ca1452992acdae7'
p408
(dp409
g4
I0
sg5
I0
ssS'd64ad0721e5dece8eedc0b0ceb7905b626b140b1'
p410
(dp411
g4
I1
sg5
I1
ssS'56873e689a98d7836a46ca03acf7b6274dbb60e5'
p412
(dp413
g4
I249
sg5
I11
ssS'54ead39664367135cf8c75390b4279b56a96ab05'
p414
(dp415
g4
I1
sg5
I0
ssS'5650b35672c9a246dfcc0565bfa7711ee1ffc45f'
p416
(dp417
g4
I1
sg5
I1
ssS'a5bf1c96ae54eceb22784d7550869e09819b9f17'
p418
(dp419
g4
I0
sg5
I1
ssS'c005b568b6dd3bbf42eba22b623eba7318bbb24b'
p420
(dp421
g4
I0
sg5
I0
ssS'4108b4b53d4ba9b17375f353efed395df732846d'
p422
(dp423
g4
I1
sg5
I2
ssS'ce6ae6303425e23300f83dbd14dc06bec2ad949d'
p424
(dp425
g4
I3
sg5
I0
ssS'04c8d45fc8acecf1eefde00e0268c94cbcbf42cb'
p426
(dp427
g4
I5
sg5
I2
ssS'2c6eb994c004bc1d8f6d9e16573d959fd844e31b'
p428
(dp429
g4
I4
sg5
I6
ssS'2a50af2d7cb34ebdb10e5c0ce8058fb11bd0eeac'
p430
(dp431
g4
I144
sg5
I135
ssS'7d4adf0efbed79b3ca811cc10ba11d11e9db3cb7'
p432
(dp433
g4
I18
sg5
I1556
ssS'92ad75809ff1727764ca33b5b2236b7d751175ad'
p434
(dp435
g4
I5
sg5
I5
ssS'00ccbef9d3cc346e710a1997652dac268bdf10d4'
p436
(dp437
g4
I2
sg5
I2
ssS'28edad4f1f2f6fb2cfab772d05c38d95b5780ce4'
p438
(dp439
g4
I0
sg5
I0
ssS'd86de82798a3795bbeff9e975d95db5e38d17de1'
p440
(dp441
g4
I93
sg5
I31
ssS'2b9854b295cc8dc005123b01aae6b727245c661b'
p442
(dp443
g4
I2
sg5
I2
ssS'5c565789a88c58469be67f7b6f409f21cbaba97f'
p444
(dp445
g4
I2
sg5
I1
ssS'c6496ffd6893fe4e454f0d09de19f04ef0ba3d7c'
p446
(dp447
g4
I8
sg5
I6
ssS'd007353bc659f1a48413136aee42c4a6da509025'
p448
(dp449
g4
I1
sg5
I1
ssS'ac064bb2cb466a7d6ce69821345e351a5f94839b'
p450
(dp451
g4
I187
sg5
I90
ssS'6b888f7d8b9503627520f3276a75050a268669fe'
p452
(dp453
g4
I88
sg5
I13
ssS'9864bcd57f110bad1a5b5271808f10f25b5501c5'
p454
(dp455
g4
I0
sg5
I0
ssS'1a0251d8b513217bda92f9ee36a74e03a2834e69'
p456
(dp457
g4
I5
sg5
I4
ssS'afb1411266be9cefe5a296321ce13bd88f885d88'
p458
(dp459
g4
I1
sg5
I1
ssS'4e6f49c910492ff66cefcc763ce5d1dcc1d826f6'
p460
(dp461
g4
I21
sg5
I5
ssS'a2e7d4f6879be6e6d97668b8f40b9e8812243dd7'
p462
(dp463
g4
I3
sg5
I1
ssS'bf5f192967024f94170bec5653d492b88d9e2987'
p464
(dp465
g4
I0
sg5
I0
ssS'bd25f82d0c38ba02d4654d1ceb0b36c8258052b7'
p466
(dp467
g4
I1
sg5
I1
ssS'29d3da901cb3e12493e61db33e75ed78642f2167'
p468
(dp469
g4
I5
sg5
I0
ssS'939cf6ca898a41a392c48b7843d129f16d7045a7'
p470
(dp471
g4
I2
sg5
I2
ssS'5e5474dab3af80ee18abad8970a85fa7d65f27dc'
p472
(dp473
g4
I12
sg5
I16
ssS'e7715debc4eded3253424e473325174a1df97d0e'
p474
(dp475
g4
I0
sg5
I0
ssS'1f60dd24e71899b62556229918e15f27ec70f872'
p476
(dp477
g4
I1
sg5
I5
ssS'116ac97cbef86874cc9b23ba47715316a827043d'
p478
(dp479
g4
I2
sg5
I1
ssS'03e3ac4594dce5585607b623d7a1b279bdc55187'
p480
(dp481
g4
I41
sg5
I27
ssS'a111b75b93306ff623a03584f7048ee9b1b02e61'
p482
(dp483
g4
I1
sg5
I2
ssS'1af647cfa103521e25653445900f8ad7772a2f52'
p484
(dp485
g4
I3
sg5
I4
ssS'dea09b70118cc4f86773b4d8316fdc6849fa9e57'
p486
(dp487
g4
I0
sg5
I0
ssS'8bd77b87acb29545cc29a30f424c670e27e81a36'
p488
(dp489
g4
I6552
sg5
I0
ssS'3f91c105459a17aee92e3f646d65241f51c83f87'
p490
(dp491
g4
I2
sg5
I1
ssS'e9c760f44a3e070231c1f052f8610700f62e8561'
p492
(dp493
g4
I4
sg5
I3
ssS'640470574ac120418c60896116474545df277eea'
p494
(dp495
g4
I17
sg5
I6
ssS'e643140e6cc7f8aacdc0e6d655dafe823ad51d2e'
p496
(dp497
g4
I0
sg5
I0
ssS'e639460fba588fdde1544b455e9d5863c8f13d8e'
p498
(dp499
g4
I0
sg5
I0
ssS'525cb2484e50916d659a16628a87140c6ef90e1d'
p500
(dp501
g4
I6
sg5
I0
ssS'716245c5672b9d4672b6913bb34f5d00c06df37d'
p502
(dp503
g4
I0
sg5
I0
ssS'de86539c45ec31ee65405597cdf87f6605c4e74b'
p504
(dp505
g4
I1
sg5
I0
ssS'c26bd5216e389466b777aa59130adeef76b1d11a'
p506
(dp507
g4
I2
sg5
I1
ssS'14a6972d2c75e4e995d0b1d7b2a15e8b62b0f576'
p508
(dp509
g4
I31
sg5
I0
ssS'e24b8b72aba16b0b15ad78ab8aedbd9a76840bcb'
p510
(dp511
g4
I1
sg5
I1
ssS'2dce56dbd248bea4f2445672fd2a79ef7bfced7e'
p512
(dp513
g4
I4
sg5
I4
ssS'64952dddf670e1ceb42987627601550a62e665fe'
p514
(dp515
g4
I0
sg5
I1
ssS'9d8a752866a56d06bd1f3ec8405edde34435c4f3'
p516
(dp517
g4
I1
sg5
I1
ssS'5191352461a14fea55ad6fae14e13e724bb029b9'
p518
(dp519
g4
I17
sg5
I0
ssS'22d73fb81c45d9d1752f61dfc731ade2159be411'
p520
(dp521
g4
I1
sg5
I1
ssS'999bf451e03eebdbd9d96675e569fd6400591b9a'
p522
(dp523
g4
I2
sg5
I3
ssS'e7dabfdf6e4e5b2aaa509a9b3386edd1e91d5fa9'
p524
(dp525
g4
I0
sg5
I0
ssS'c49de547c99bb45e3d3b20b166a68f2bc36000bb'
p526
(dp527
g4
I2
sg5
I16
ssS'282d00b6cf2717f12fe76384dfa615205b513455'
p528
(dp529
g4
I1
sg5
I2
ssS'42d008fbcfc88b70b1395bf7f3bc6b3a6d958962'
p530
(dp531
g4
I0
sg5
I0
ssS'329796772d12ad9779cab64814eb43c6fbf2bf7b'
p532
(dp533
g4
I2
sg5
I2
ssS'df7c8d9a051d1666d8a1c1678e94b650d4d1f56d'
p534
(dp535
g4
I6
sg5
I6
ssS'daafac256a4e9faf3f21702af3b3709fcb4dd4b8'
p536
(dp537
g4
I11
sg5
I1
ssS'827d3db27cc86bdb4cd7e797c8df2354ee8c253e'
p538
(dp539
g4
I0
sg5
I0
ssS'3dc4381f5b426c79663f1c6db5084119f762ac22'
p540
(dp541
g4
I0
sg5
I0
ssS'f70b9a116433e26a649532cfe0c924ed4a03574e'
p542
(dp543
g4
I2
sg5
I2
ssS'4dbc7599d53a3f795d3a55797a9efd7dd2d8cbcc'
p544
(dp545
g4
I47
sg5
I1880
ssS'fcb2ec7fc75ce5029e99aaf35864b1aa22456152'
p546
(dp547
g4
I564
sg5
I59
ssS'daad1f8fa7b53b89b56179529453f7851be5aac7'
p548
(dp549
g4
I0
sg5
I0
ssS'f0ef771f947bb16c936abb5722af0ddc17f43e3c'
p550
(dp551
g4
I3
sg5
I2
ssS'792f701a73c0e87d0cd79497a285f2789c59c443'
p552
(dp553
g4
I26
sg5
I13
ssS'7760562b4f37d48f8825aa4de831576915928cda'
p554
(dp555
g4
I0
sg5
I0
ssS'f8c8517d0d1c93792d6687d5afbede101f76e76a'
p556
(dp557
g4
I2
sg5
I1
ssS'193897d3653d3237d7c567e1a64a3da3f12b6b0f'
p558
(dp559
g4
I2
sg5
I2
ssS'4a08b93eca1d033199b32a6c0e3679f859553427'
p560
(dp561
g4
I0
sg5
I0
ssS'23f8cc11dfbf0bd47d5972801e3d9a5e2206b248'
p562
(dp563
g4
I1
sg5
I1
ssS'9157d80c74eb9b2a6a4130a526f592e1c029d3ca'
p564
(dp565
g4
I9
sg5
I2
ssS'4c51af07138db449a439f60b0015b3176e3825e4'
p566
(dp567
g4
I2
sg5
I1
ssS'c149b25ad7549ed5999398cf4c1fb106018ecd7f'
p568
(dp569
g4
I31
sg5
I1
ssS'8456898933fb176356a5b89de59d7d9ca8394a8e'
p570
(dp571
g4
I37
sg5
I26
ssS'93d57b292c7f325076d011682bbc0fb7f29c5546'
p572
(dp573
g4
I341
sg5
I664
ssS'39af49c85e59a630720b6e157ec4c199a739ce56'
p574
(dp575
g4
I12
sg5
I9
ssS'5c336f59236158f75b6e989af9fec302515ea5dd'
p576
(dp577
g4
I0
sg5
I0
ssS'ed62be9422758a31482877ba9b2929846d8f3e2b'
p578
(dp579
g4
I1
sg5
I1
ssS'7c7c2320104badfd4e8622a70f408581eb204a78'
p580
(dp581
g4
I0
sg5
I0
ssS'10a175d82fb85c7155b0f889931b6acd23ad28f0'
p582
(dp583
g4
I2
sg5
I1
ssS'8dfe2b32f5c51df702d937860879fc3f8aff4284'
p584
(dp585
g4
I1
sg5
I1
ssS'14af00fb9a478979462b9f7a9fefb23383697b91'
p586
(dp587
g4
I2
sg5
I1
ssS'5eeb8b81b1fdf20d81cabff0249f9ae9c810a318'
p588
(dp589
g4
I2
sg5
I0
ssS'ebe144a5c55ede6107555a100a5a30fa1778ee6c'
p590
(dp591
g4
I533
sg5
I411
ssS'65d0e62c7b1315ab9ef50a7fbb95e84df745da00'
p592
(dp593
g4
I1
sg5
I1
ssS'102994c5d1f0535ec633e432cde7e3cef69083b5'
p594
(dp595
g4
I2
sg5
I2
ssS'401850a5d08f2354b40c1a2728bf82c45b92e44e'
p596
(dp597
g4
I6
sg5
I4
ssS'e2d8b0c878dd646e9a651711e08d1e298f583045'
p598
(dp599
g4
I1
sg5
I2
ssS'4ddfc91a87afa187c388ecba0533958072a34712'
p600
(dp601
g4
I2
sg5
I1
ssS'4bea7a438edaae648ef7c544cd9591341293e29c'
p602
(dp603
g4
I0
sg5
I0
ssS'3d805f5423694eab093d54524fe9c24863f4c6d6'
p604
(dp605
g4
I0
sg5
I1
ssS'05d20c49eef3f1f384e131d4eee3bc5813583a86'
p606
(dp607
g4
I0
sg5
I0
ssS'856e0a5b27ecede41869491c384c66783c6359c3'
p608
(dp609
g4
I0
sg5
I0
ssS'113a21fa0b6d7a8a2af66d3aaf26cf76660c8c16'
p610
(dp611
g4
I418
sg5
I1
ssS'6822506b4d5eca01c8523af68deb02dd51d8841d'
p612
(dp613
g4
I1
sg5
I0
ssS'78f35deb39153edd02cd0a1258bddfedd4e2439c'
p614
(dp615
g4
I4
sg5
I1
ssS'e7b4028f8be84ab1c472886b0400aa62f8cea626'
p616
(dp617
g4
I2
sg5
I2
ssS'd32835ad1aa37ec6ba5b354828457fd6db188f3e'
p618
(dp619
g4
I24
sg5
I13
ssS'1d80b126c1c79048ed4171a1b843177a0e6aa200'
p620
(dp621
g4
I5
sg5
I2
ssS'2978a121f311d059d47c9c24fe8f08939b92f5c8'
p622
(dp623
g4
I11
sg5
I2
ssS'a91a094cfedd675a979240edf4c6bb4fdf06a24e'
p624
(dp625
g4
I6
sg5
I6
ssS'45b64edb7c721c95d42016f69225e5f135770e8f'
p626
(dp627
g4
I9
sg5
I1695
ssS'2cabeec5b439f58d2a00699d6d383fb4bfc62a1f'
p628
(dp629
g4
I5
sg5
I3
ssS'17bcbbe108ad1af1b2c7f21659347d934d08238c'
p630
(dp631
g4
I0
sg5
I1
ssS'c05e626f116945861c38ee00b0dacb89795fd4ad'
p632
(dp633
g4
I0
sg5
I1
ssS'80000cfa113f3b8f5d14c150c70a6a6fbff7db81'
p634
(dp635
g4
I3
sg5
I9
ssS'18beaf04e1827d6b005659a129e95c4f138c3e9f'
p636
(dp637
g4
I88
sg5
I72
ssS'29ba92c2eb24bde8978221517888e68be35adc8d'
p638
(dp639
g4
I0
sg5
I0
ssS'c5d1940708e528382bb888bdc3499786421afb33'
p640
(dp641
g4
I22
sg5
I10
ssS'3a2c5272f62e6e04d64d2cdf17f2faa30426719e'
p642
(dp643
g4
I1
sg5
I1
ssS'22c7eb4c0dec57d6c2dab6ec93c7821baa5a841e'
p644
(dp645
g4
I27
sg5
I15
ssS'e5a5ea962e145c5cde5e3f94ab7fc87c77e57b93'
p646
(dp647
g4
I0
sg5
I0
ssS'01b7221c8da05033c70ddb048eac06bbe3ad1d5c'
p648
(dp649
g4
I0
sg5
I0
ssS'b8cb9dcb3c8a55da3f697b43d930bcb9255cd53f'
p650
(dp651
g4
I151
sg5
I205
ssS'3b2cba662ed4f8ef06b2771656e3e3431181cd32'
p652
(dp653
g4
I1
sg5
I0
ssS'edba9afb2308967e0efcb666138e4f607da2a68d'
p654
(dp655
g4
I0
sg5
I0
ssS'28df687289e3644e778cc3b926c50891d56d508f'
p656
(dp657
g4
I4
sg5
I0
ssS'bb32552184234aaf18c162e2905875dfb73f0160'
p658
(dp659
g4
I3
sg5
I2
ssS'f59d85295d0623dcca13fe82e264bc2c986c5863'
p660
(dp661
g4
I165
sg5
I118
ssS'924c5e4ebbd621b928dd9b6a1c80740e4bea1d88'
p662
(dp663
g4
I1
sg5
I1
ssS'06e619eb90d11768bf4337a10bb4b7f20f7b18fe'
p664
(dp665
g4
I56
sg5
I4
ssS'86fe45c4ce59c39946468b79b4e4b73dc7094197'
p666
(dp667
g4
I0
sg5
I0
ssS'1c23f63cdab76d3222799ab7961013e9bfb95aed'
p668
(dp669
g4
I147
sg5
I12
ssS'33d22252061dff24a59998d48a7fe109010c6590'
p670
(dp671
g4
I0
sg5
I0
ssS'a7d54cad4ba62cf72593d72ec2a50632b353e003'
p672
(dp673
g4
I2
sg5
I1
ssS'b3c90159f28681d8ab96644d2ed6feaf130d7665'
p674
(dp675
g4
I0
sg5
I0
ssS'2b894501b9bddaf0205ec8c40207d8d555a031f1'
p676
(dp677
g4
I18
sg5
I2
ssS'379086c28181272cb857c884ad6e8cb4cb249903'
p678
(dp679
g4
I0
sg5
I0
ssS'2ceeb92c5fd3fceb80803a16047f9b9815935478'
p680
(dp681
g4
I3
sg5
I1
ssS'd887f1c5ad1f611e300f1868485efba9c2b34488'
p682
(dp683
g4
I4
sg5
I3
ssS'3d055e9706bec897a9d4fdd3c01ce4618152f036'
p684
(dp685
g4
I216
sg5
I13
ssS'7fcd06b62020b5b505d6d0dee6a9e8feb3f7f453'
p686
(dp687
g4
I18
sg5
I10
ssS'fc6f90c0317b60e98c4b8fe53fb5ca7beca1cb47'
p688
(dp689
g4
I2
sg5
I1
ssS'0dd47fca0980a2d1e8371426137726ae6a3b3ae1'
p690
(dp691
g4
I0
sg5
I0
ssS'a5b3ef93f4f5059adae072beba2a9e2dc571e38a'
p692
(dp693
g4
I78
sg5
I78
ssS'e9611ef217be31ebcfc74308a9d203494bc9b36e'
p694
(dp695
g4
I0
sg5
I0
ssS'4751b01312756ec5a6aaff6562882f43a7720d2a'
p696
(dp697
g4
I25
sg5
I4
ssS'38169ed1b575b74f6007aa64e4baabedd1f61759'
p698
(dp699
g4
I42
sg5
I3
ssS'335daed897e28856e72d95d145d25c1ae9f77dd2'
p700
(dp701
g4
I0
sg5
I0
ssS'd7829167287de37b6ef2daa2b05199b3067413df'
p702
(dp703
g4
I549
sg5
I25
ssS'663c956ed67a45d07085fc9adcb32af0b0adcbb2'
p704
(dp705
g4
I17
sg5
I1
ssS'5ac96ee0ecc9d4ba8fcc44bf52187fdf8bd7c623'
p706
(dp707
g4
I183
sg5
I77
ssS'1e5f0ee1fadd2a5672a015bfa7515447dfaef8a8'
p708
(dp709
g4
I1
sg5
I1
ssS'1c7fe03edacfce4402cb95048f99745e505e66aa'
p710
(dp711
g4
I34
sg5
I22
ssS'140fd1c68a0e0cc3e191fc1d8f22d8ebc6fc20ec'
p712
(dp713
g4
I31
sg5
I23
ssS'9fcd1925a9fed2e3ccef2c4fbc00f2c4109b45cf'
p714
(dp715
g4
I45
sg5
I5
ssS'670906fe57434146096ab4e80a0392c3c39a15d2'
p716
(dp717
g4
I4
sg5
I1
ssS'fcf3e489b0065827876c57831f92a5cefc38ce9c'
p718
(dp719
g4
I2
sg5
I0
ssS'074ee84e5a83ed83536ea3c09d2da2e786592734'
p720
(dp721
g4
I232
sg5
I135
ssS'4ab4d2bc353f3563ba2ba7d4d2d678577d731a20'
p722
(dp723
g4
I0
sg5
I0
ssS'c97595686d9def87eddb72e4138e8d517d3d6471'
p724
(dp725
g4
I501
sg5
I179
ssS'0d94cee489ed34db2cb03df2c2362c22579d85ec'
p726
(dp727
g4
I0
sg5
I1
ssS'4457afa505e617aa9fc4d2c996cddf74e7486af3'
p728
(dp729
g4
I12
sg5
I0
ssS'9bdf1af13cf28d229979bb51f9ae66f7ce954735'
p730
(dp731
g4
I9
sg5
I7
ssS'c0588c996b9aa3eae56eefad5dd8f16a39395b6f'
p732
(dp733
g4
I41
sg5
I18
ssS'5f5c3b172add193a2de1dbba8b5e16de7455aa9d'
p734
(dp735
g4
I1
sg5
I1
ssS'8ec470bfd555deff8ad33c2555baecd8c32c3808'
p736
(dp737
g4
I3
sg5
I2
ssS'1101bbd4ea2565e698a18bd635a2d81ea425e877'
p738
(dp739
g4
I1
sg5
I0
ssS'ea3b3aa41b9f077c933551f1590866b69f99605f'
p740
(dp741
g4
I1
sg5
I1
ssS'108254624d08a99fe3c95806f3eeb50f9ad48a8c'
p742
(dp743
g4
I2
sg5
I2
ssS'94e2f244757efa949f480f6bbcb83deccab844a8'
p744
(dp745
g4
I45
sg5
I1
ssS'9b85e406325e64e4c1e1fae897634c5f4163ba57'
p746
(dp747
g4
I60
sg5
I16
ssS'507503f4d71ce985d1aceca7c15a06ae8aca2743'
p748
(dp749
g4
I7
sg5
I6
ssS'a6dbdc85ae2c0a5efeb3e406a7f19c124db693a0'
p750
(dp751
g4
I109
sg5
I3
ssS'8eca1c63ab7f5510fe18c4cf631427495d9c63e3'
p752
(dp753
g4
I0
sg5
I0
ssS'903af41feaef3d7c171805f62a3972576a7f39dd'
p754
(dp755
g4
I1670
sg5
I13
ssS'49588ee9aaedca39102e49e2bb9adb8aadf75a04'
p756
(dp757
g4
I4
sg5
I0
ssS'94370a432939fa23d186cea638c303856474d511'
p758
(dp759
g4
I0
sg5
I0
ssS'07bc48ceed288caef5e3658b395934b0345b2288'
p760
(dp761
g4
I84
sg5
I56
ssS'da8cc859b61cd4ed488c7dffc99fd98ca45c4b5f'
p762
(dp763
g4
I0
sg5
I0
ssS'336470d8d1d36bbce23e583d7810066ee01a164b'
p764
(dp765
g4
I0
sg5
I0
ssS'84829c05732b98e5f70c6fbd2919c798197c87e2'
p766
(dp767
g4
I1
sg5
I1
ssS'cdf7adfaf9994f0fdb9cc6556490ecaf3901ae11'
p768
(dp769
g4
I6
sg5
I4
ssS'39f8eafe30af68af1a141dae51896e6c8b3ca24d'
p770
(dp771
g4
I4
sg5
I1
ssS'e2ed1ee246cfe5db8b4df764b674c96fce261661'
p772
(dp773
g4
I0
sg5
I0
ssS'7e84ca388dc2753baa6fe6e1601a4e04300bca0d'
p774
(dp775
g4
I3
sg5
I3
ssS'c9f9c850476412443e0f75186feda43768d79d14'
p776
(dp777
g4
I0
sg5
I0
ssS'a142d12ffafbe6c91cc93f58cdc9b95d6ba58df9'
p778
(dp779
g4
I0
sg5
I7
ssS'195f6fa27e101a2338106939be775b7b74726f25'
p780
(dp781
g4
I0
sg5
I0
ssS'aa3117cc38fe9a0fcf970195a2b4c26d34bc4b0a'
p782
(dp783
g4
I1
sg5
I1
ss.